---
triple:          'arm64-apple-darwin'
binary-path:     '/Users/rgorshkov/Documents/GitHub/CMU15462_ComputerGraphics/build/mhw1'
relocations:
  - { offsetInCU: 0x44, offset: 0x44, size: 0x8, addend: 0x0, symName: __ZN5EigenL4lastE, symObjAddr: 0xA17158, symBinAddr: 0x100078020, symSize: 0x0 }
  - { offsetInCU: 0x877, offset: 0x877, size: 0x8, addend: 0x0, symName: __ZN5Eigen8internal20manage_caching_sizesENS_6ActionEPlS2_S2_, symObjAddr: 0x43688, symBinAddr: 0x100047974, symSize: 0x138 }
  - { offsetInCU: 0x89C, offset: 0x89C, size: 0x8, addend: 0x0, symName: __ZZN5Eigen8internal20manage_caching_sizesENS_6ActionEPlS2_S2_E12m_cacheSizes, symObjAddr: 0x62378, symBinAddr: 0x100078000, symSize: 0x0 }
  - { offsetInCU: 0x17AFD, offset: 0x17AFD, size: 0x8, addend: 0x0, symName: __ZN5Eigen8internal37evaluateProductBlockingSizesHeuristicIffLi4ElEEvRT2_S3_S3_S2_, symObjAddr: 0x42E98, symBinAddr: 0x100047184, symSize: 0x7F0 }
  - { offsetInCU: 0x263F7, offset: 0x263F7, size: 0x8, addend: 0x0, symName: __ZN5Eigen8internal28check_static_allocation_sizeIfLi9EEEvv, symObjAddr: 0x115C, symBinAddr: 0x100005448, symSize: 0x4 }
  - { offsetInCU: 0x26424, offset: 0x26424, size: 0x8, addend: 0x0, symName: __ZN5Eigen8internal28check_static_allocation_sizeIfLi3EEEvv, symObjAddr: 0x12B8, symBinAddr: 0x1000055A4, symSize: 0x4 }
  - { offsetInCU: 0x26451, offset: 0x26451, size: 0x8, addend: 0x0, symName: __ZN5Eigen8internal12print_matrixINS_6MatrixIfLi3ELi3ELi0ELi3ELi3EEEEERNSt3__113basic_ostreamIcNS4_11char_traitsIcEEEES9_RKT_RKNS_8IOFormatE, symObjAddr: 0x23D0, symBinAddr: 0x1000066BC, symSize: 0x580 }
  - { offsetInCU: 0x265DA, offset: 0x265DA, size: 0x8, addend: 0x0, symName: __ZN5Eigen8internal12print_matrixINS_6MatrixIfLi3ELi1ELi0ELi3ELi1EEEEERNSt3__113basic_ostreamIcNS4_11char_traitsIcEEEES9_RKT_RKNS_8IOFormatE, symObjAddr: 0x38A0, symBinAddr: 0x100007B8C, symSize: 0x580 }
  - { offsetInCU: 0x26735, offset: 0x26735, size: 0x8, addend: 0x0, symName: __ZN5Eigen8internal22ignore_unused_variableIbEEvRKT_, symObjAddr: 0x45B0, symBinAddr: 0x10000889C, symSize: 0x10 }
  - { offsetInCU: 0x26764, offset: 0x26764, size: 0x8, addend: 0x0, symName: __ZN5Eigen8internal28check_static_allocation_sizeIiLi3EEEvv, symObjAddr: 0x48A0, symBinAddr: 0x100008B8C, symSize: 0x4 }
  - { offsetInCU: 0x26791, offset: 0x26791, size: 0x8, addend: 0x0, symName: __ZN5Eigen8internal28check_static_allocation_sizeIlLi3EEEvv, symObjAddr: 0x4B18, symBinAddr: 0x100008E04, symSize: 0x4 }
  - { offsetInCU: 0x26808, offset: 0x26808, size: 0x8, addend: 0x0, symName: __ZN5Eigen8internal15call_assignmentINS_6MatrixIfLi3ELi3ELi0ELi3ELi3EEES3_EEvRT_RKT0_, symObjAddr: 0x57BC, symBinAddr: 0x100009AA8, symSize: 0x50 }
  - { offsetInCU: 0x26853, offset: 0x26853, size: 0x8, addend: 0x0, symName: __ZN5Eigen8internal15call_assignmentINS_6MatrixIfLi3ELi3ELi0ELi3ELi3EEES3_NS0_9assign_opIffEEEEvRT_RKT0_RKT1_NS0_9enable_ifIXntsr25evaluator_assume_aliasingIS8_EE5valueEPvE4typeE, symObjAddr: 0x5820, symBinAddr: 0x100009B0C, symSize: 0x38 }
  - { offsetInCU: 0x268C1, offset: 0x268C1, size: 0x8, addend: 0x0, symName: __ZN5Eigen8internal24call_assignment_no_aliasINS_6MatrixIfLi3ELi3ELi0ELi3ELi3EEES3_NS0_9assign_opIffEEEEvRT_RKT0_RKT1_, symObjAddr: 0x5884, symBinAddr: 0x100009B70, symSize: 0x3C }
  - { offsetInCU: 0x26999, offset: 0x26999, size: 0x8, addend: 0x0, symName: __ZN5Eigen8internal18check_for_aliasingINS_6MatrixIfLi3ELi3ELi0ELi3ELi3EEES3_EEvRKT_RKT0_, symObjAddr: 0x5900, symBinAddr: 0x100009BEC, symSize: 0x60 }
  - { offsetInCU: 0x269E4, offset: 0x269E4, size: 0x8, addend: 0x0, symName: __ZN5Eigen8internal26call_dense_assignment_loopINS_6MatrixIfLi3ELi3ELi0ELi3ELi3EEES3_NS0_9assign_opIffEEEEvRT_RKT0_RKT1_, symObjAddr: 0x5960, symBinAddr: 0x100009C4C, symSize: 0xE0 }
  - { offsetInCU: 0x26AD6, offset: 0x26AD6, size: 0x8, addend: 0x0, symName: __ZN5Eigen8internal17resize_if_allowedINS_6MatrixIfLi3ELi3ELi0ELi3ELi3EEES3_ffEEvRT_RKT0_RKNS0_9assign_opIT1_T2_EE, symObjAddr: 0x5A88, symBinAddr: 0x100009D74, symSize: 0xF8 }
  - { offsetInCU: 0x26B96, offset: 0x26B96, size: 0x8, addend: 0x0, symName: __ZN5Eigen8internal22ignore_unused_variableIlEEvRKT_, symObjAddr: 0x5E34, symBinAddr: 0x10000A120, symSize: 0x10 }
  - { offsetInCU: 0x26C58, offset: 0x26C58, size: 0x8, addend: 0x0, symName: __ZN5Eigen8internal7pstoreuIf18__simd64_float32_tEEvPT_RKT0_, symObjAddr: 0x6120, symBinAddr: 0x10000A40C, symSize: 0x2C }
  - { offsetInCU: 0x26CC0, offset: 0x26CC0, size: 0x8, addend: 0x0, symName: __ZN5Eigen8internal6ploaduI18__simd64_float32_tEET_PKNS0_15unpacket_traitsIS3_E4typeE, symObjAddr: 0x6160, symBinAddr: 0x10000A44C, symSize: 0x28 }
  - { offsetInCU: 0x26E53, offset: 0x26E53, size: 0x8, addend: 0x0, symName: __ZN5Eigen8internal6preduxI18__simd64_float32_tEENS0_15unpacket_traitsIT_E4typeERKS4_, symObjAddr: 0x7EAC, symBinAddr: 0x10000C198, symSize: 0x58 }
  - { offsetInCU: 0x26EB6, offset: 0x26EB6, size: 0x8, addend: 0x0, symName: __ZN5Eigen8internal4pmulI18__simd64_float32_tEET_RKS3_S5_, symObjAddr: 0x805C, symBinAddr: 0x10000C348, symSize: 0x40 }
  - { offsetInCU: 0x26FD8, offset: 0x26FD8, size: 0x8, addend: 0x0, symName: __ZN5Eigen8internal10predux_maxILi0E18__simd64_float32_tEENS0_15unpacket_traitsIT0_E4typeERKS4_, symObjAddr: 0x8A10, symBinAddr: 0x10000CCFC, symSize: 0x2C }
  - { offsetInCU: 0x27019, offset: 0x27019, size: 0x8, addend: 0x0, symName: __ZN5Eigen8internal13predux_helperI18__simd64_float32_tPFfRKfS4_EEENS0_15unpacket_traitsIT_E4typeERKS8_T0_, symObjAddr: 0x8A3C, symBinAddr: 0x10000CD28, symSize: 0x118 }
  - { offsetInCU: 0x270CD, offset: 0x270CD, size: 0x8, addend: 0x0, symName: __ZN5Eigen8internal4pmaxILi0EfEET0_RKS2_S4_, symObjAddr: 0x8B54, symBinAddr: 0x10000CE40, symSize: 0x34 }
  - { offsetInCU: 0x27164, offset: 0x27164, size: 0x8, addend: 0x0, symName: __ZN5Eigen8internal4pmaxIfEET_RKS2_S4_, symObjAddr: 0x8BBC, symBinAddr: 0x10000CEA8, symSize: 0x40 }
  - { offsetInCU: 0x271D0, offset: 0x271D0, size: 0x8, addend: 0x0, symName: __ZN5Eigen8internal17get_runtime_valueIlEElRKT_, symObjAddr: 0x8F04, symBinAddr: 0x10000D1F0, symSize: 0x18 }
  - { offsetInCU: 0x27473, offset: 0x27473, size: 0x8, addend: 0x0, symName: __ZN5Eigen8internal15call_assignmentINS_5BlockINS_6MatrixIfLi3ELi3ELi0ELi3ELi3EEELi3ELi1ELb1EEES5_NS0_14swap_assign_opIfEEEEvRT_RKT0_RKT1_NS0_9enable_ifIXntsr25evaluator_assume_aliasingISA_EE5valueEPvE4typeE, symObjAddr: 0xA050, symBinAddr: 0x10000E33C, symSize: 0x38 }
  - { offsetInCU: 0x274E1, offset: 0x274E1, size: 0x8, addend: 0x0, symName: __ZN5Eigen8internal24call_assignment_no_aliasINS_5BlockINS_6MatrixIfLi3ELi3ELi0ELi3ELi3EEELi3ELi1ELb1EEES5_NS0_14swap_assign_opIfEEEEvRT_RKT0_RKT1_, symObjAddr: 0xA0DC, symBinAddr: 0x10000E3C8, symSize: 0x3C }
  - { offsetInCU: 0x275AF, offset: 0x275AF, size: 0x8, addend: 0x0, symName: __ZN5Eigen8internal18check_for_aliasingINS_5BlockINS_6MatrixIfLi3ELi3ELi0ELi3ELi3EEELi3ELi1ELb1EEES5_EEvRKT_RKT0_, symObjAddr: 0xA158, symBinAddr: 0x10000E444, symSize: 0x14 }
  - { offsetInCU: 0x275FA, offset: 0x275FA, size: 0x8, addend: 0x0, symName: __ZN5Eigen8internal26call_dense_assignment_loopINS_5BlockINS_6MatrixIfLi3ELi3ELi0ELi3ELi3EEELi3ELi1ELb1EEES5_NS0_14swap_assign_opIfEEEEvRT_RKT0_RKT1_, symObjAddr: 0xA16C, symBinAddr: 0x10000E458, symSize: 0xE0 }
  - { offsetInCU: 0x276AE, offset: 0x276AE, size: 0x8, addend: 0x0, symName: __ZN5Eigen8internal17resize_if_allowedINS_5BlockINS_6MatrixIfLi3ELi3ELi0ELi3ELi3EEELi3ELi1ELb1EEES5_NS0_14swap_assign_opIfEEEEvRT_RKT0_RKT1_, symObjAddr: 0xA280, symBinAddr: 0x10000E56C, symSize: 0xB4 }
  - { offsetInCU: 0x27A6E, offset: 0x27A6E, size: 0x8, addend: 0x0, symName: __ZN5Eigen8internalL21first_default_alignedINS_12CwiseUnaryOpINS0_14scalar_abs2_opIfEEKNS_5BlockIKNS5_INS5_INS_6MatrixIfLi3ELi3ELi0ELi3ELi3EEELi3ELi1ELb1EEELin1ELi1ELb0EEELin1ELi1ELb0EEEEEEElRKNS_9DenseBaseIT_EE, symObjAddr: 0xCA64, symBinAddr: 0x100010D50, symSize: 0x24 }
  - { offsetInCU: 0x27AA5, offset: 0x27AA5, size: 0x8, addend: 0x0, symName: __ZN5Eigen8internalL13first_alignedILi16ENS_12CwiseUnaryOpINS0_14scalar_abs2_opIfEEKNS_5BlockIKNS5_INS5_INS_6MatrixIfLi3ELi3ELi0ELi3ELi3EEELi3ELi1ELb1EEELin1ELi1ELb0EEELin1ELi1ELb0EEEEEEElRKNS_9DenseBaseIT0_EE, symObjAddr: 0xCB80, symBinAddr: 0x100010E6C, symSize: 0x28 }
  - { offsetInCU: 0x27B81, offset: 0x27B81, size: 0x8, addend: 0x0, symName: __ZN5Eigen8internal4pmulI19__simd128_float32_tEET_RKS3_S5_, symObjAddr: 0xCC50, symBinAddr: 0x100010F3C, symSize: 0x40 }
  - { offsetInCU: 0x27BC7, offset: 0x27BC7, size: 0x8, addend: 0x0, symName: __ZN5Eigen8internal6ploaduI19__simd128_float32_tEET_PKNS0_15unpacket_traitsIS3_E4typeE, symObjAddr: 0xCC90, symBinAddr: 0x100010F7C, symSize: 0x28 }
  - { offsetInCU: 0x27C1B, offset: 0x27C1B, size: 0x8, addend: 0x0, symName: __ZN5Eigen8internal4paddI19__simd128_float32_tEET_RKS3_S5_, symObjAddr: 0xCCB8, symBinAddr: 0x100010FA4, symSize: 0x40 }
  - { offsetInCU: 0x27C61, offset: 0x27C61, size: 0x8, addend: 0x0, symName: __ZN5Eigen8internal6preduxI19__simd128_float32_tEENS0_15unpacket_traitsIT_E4typeERKS4_, symObjAddr: 0xCCF8, symBinAddr: 0x100010FE4, symSize: 0xA8 }
  - { offsetInCU: 0x27CD3, offset: 0x27CD3, size: 0x8, addend: 0x0, symName: __ZN5Eigen8internal15call_assignmentINS_5BlockINS2_INS2_INS_6MatrixIfLi3ELi3ELi0ELi3ELi3EEELi3ELi1ELb1EEELin1ELi1ELb0EEELin1ELi1ELb0EEENS_14CwiseNullaryOpINS0_18scalar_constant_opIfEENS3_IfLin1ELi1ELi0ELi3ELi1EEEEEEEvRT_RKT0_, symObjAddr: 0xD7B4, symBinAddr: 0x100011AA0, symSize: 0x50 }
  - { offsetInCU: 0x27D1E, offset: 0x27D1E, size: 0x8, addend: 0x0, symName: __ZN5Eigen8internal15call_assignmentINS_5BlockINS2_INS2_INS_6MatrixIfLi3ELi3ELi0ELi3ELi3EEELi3ELi1ELb1EEELin1ELi1ELb0EEELin1ELi1ELb0EEENS_14CwiseNullaryOpINS0_18scalar_constant_opIfEENS3_IfLin1ELi1ELi0ELi3ELi1EEEEENS0_9assign_opIffEEEEvRT_RKT0_RKT1_NS0_9enable_ifIXntsr25evaluator_assume_aliasingISH_EE5valueEPvE4typeE, symObjAddr: 0xD804, symBinAddr: 0x100011AF0, symSize: 0x38 }
  - { offsetInCU: 0x27D8C, offset: 0x27D8C, size: 0x8, addend: 0x0, symName: __ZN5Eigen8internal24call_assignment_no_aliasINS_5BlockINS2_INS2_INS_6MatrixIfLi3ELi3ELi0ELi3ELi3EEELi3ELi1ELb1EEELin1ELi1ELb0EEELin1ELi1ELb0EEENS_14CwiseNullaryOpINS0_18scalar_constant_opIfEENS3_IfLin1ELi1ELi0ELi3ELi1EEEEENS0_9assign_opIffEEEEvRT_RKT0_RKT1_, symObjAddr: 0xD83C, symBinAddr: 0x100011B28, symSize: 0x3C }
  - { offsetInCU: 0x27E5A, offset: 0x27E5A, size: 0x8, addend: 0x0, symName: __ZN5Eigen8internal18check_for_aliasingINS_5BlockINS2_INS2_INS_6MatrixIfLi3ELi3ELi0ELi3ELi3EEELi3ELi1ELb1EEELin1ELi1ELb0EEELin1ELi1ELb0EEENS_14CwiseNullaryOpINS0_18scalar_constant_opIfEENS3_IfLin1ELi1ELi0ELi3ELi1EEEEEEEvRKT_RKT0_, symObjAddr: 0xD8B8, symBinAddr: 0x100011BA4, symSize: 0x14 }
  - { offsetInCU: 0x27EA5, offset: 0x27EA5, size: 0x8, addend: 0x0, symName: __ZN5Eigen8internal26call_dense_assignment_loopINS_5BlockINS2_INS2_INS_6MatrixIfLi3ELi3ELi0ELi3ELi3EEELi3ELi1ELb1EEELin1ELi1ELb0EEELin1ELi1ELb0EEENS_14CwiseNullaryOpINS0_18scalar_constant_opIfEENS3_IfLin1ELi1ELi0ELi3ELi1EEEEENS0_9assign_opIffEEEEvRT_RKT0_RKT1_, symObjAddr: 0xD8CC, symBinAddr: 0x100011BB8, symSize: 0xE0 }
  - { offsetInCU: 0x27F59, offset: 0x27F59, size: 0x8, addend: 0x0, symName: __ZN5Eigen8internal17resize_if_allowedINS_5BlockINS2_INS2_INS_6MatrixIfLi3ELi3ELi0ELi3ELi3EEELi3ELi1ELb1EEELin1ELi1ELb0EEELin1ELi1ELb0EEENS_14CwiseNullaryOpINS0_18scalar_constant_opIfEENS3_IfLin1ELi1ELi0ELi3ELi1EEEEEffEEvRT_RKT0_RKNS0_9assign_opIT1_T2_EE, symObjAddr: 0xD9E0, symBinAddr: 0x100011CCC, symSize: 0xF8 }
  - { offsetInCU: 0x27FDF, offset: 0x27FDF, size: 0x8, addend: 0x0, symName: __ZN5Eigen8internal13first_alignedILi16EflEET1_PKT0_S2_, symObjAddr: 0xE124, symBinAddr: 0x100012410, symSize: 0xA4 }
  - { offsetInCU: 0x28270, offset: 0x28270, size: 0x8, addend: 0x0, symName: __ZN5Eigen8internal6pstoreIf19__simd128_float32_tEEvPT_RKT0_, symObjAddr: 0xE4BC, symBinAddr: 0x1000127A8, symSize: 0x2C }
  - { offsetInCU: 0x282D8, offset: 0x282D8, size: 0x8, addend: 0x0, symName: __ZN5Eigen8internal5pset1I19__simd128_float32_tEET_RKNS0_15unpacket_traitsIS3_E4typeE, symObjAddr: 0xE53C, symBinAddr: 0x100012828, symSize: 0x5C }
  - { offsetInCU: 0x2830F, offset: 0x2830F, size: 0x8, addend: 0x0, symName: __ZN5Eigen8internal15call_assignmentINS_5BlockINS2_INS2_INS_6MatrixIfLi3ELi3ELi0ELi3ELi3EEELi3ELi1ELb1EEELin1ELi1ELb0EEELin1ELi1ELb0EEENS_13CwiseBinaryOpINS0_18scalar_quotient_opIffEEKNS2_IKS6_Lin1ELi1ELb0EEEKNS_14CwiseNullaryOpINS0_18scalar_constant_opIfEEKNS3_IfLin1ELi1ELi0ELi3ELi1EEEEEEEEEvRT_RKT0_, symObjAddr: 0xEB68, symBinAddr: 0x100012E54, symSize: 0x50 }
  - { offsetInCU: 0x2835A, offset: 0x2835A, size: 0x8, addend: 0x0, symName: __ZN5Eigen8internal15call_assignmentINS_5BlockINS2_INS2_INS_6MatrixIfLi3ELi3ELi0ELi3ELi3EEELi3ELi1ELb1EEELin1ELi1ELb0EEELin1ELi1ELb0EEENS_13CwiseBinaryOpINS0_18scalar_quotient_opIffEEKNS2_IKS6_Lin1ELi1ELb0EEEKNS_14CwiseNullaryOpINS0_18scalar_constant_opIfEEKNS3_IfLin1ELi1ELi0ELi3ELi1EEEEEEENS0_9assign_opIffEEEEvRT_RKT0_RKT1_NS0_9enable_ifIXntsr25evaluator_assume_aliasingISQ_EE5valueEPvE4typeE, symObjAddr: 0xEBB8, symBinAddr: 0x100012EA4, symSize: 0x38 }
  - { offsetInCU: 0x283C8, offset: 0x283C8, size: 0x8, addend: 0x0, symName: __ZN5Eigen8internal24call_assignment_no_aliasINS_5BlockINS2_INS2_INS_6MatrixIfLi3ELi3ELi0ELi3ELi3EEELi3ELi1ELb1EEELin1ELi1ELb0EEELin1ELi1ELb0EEENS_13CwiseBinaryOpINS0_18scalar_quotient_opIffEEKNS2_IKS6_Lin1ELi1ELb0EEEKNS_14CwiseNullaryOpINS0_18scalar_constant_opIfEEKNS3_IfLin1ELi1ELi0ELi3ELi1EEEEEEENS0_9assign_opIffEEEEvRT_RKT0_RKT1_, symObjAddr: 0xEBF0, symBinAddr: 0x100012EDC, symSize: 0x3C }
  - { offsetInCU: 0x28496, offset: 0x28496, size: 0x8, addend: 0x0, symName: __ZN5Eigen8internal18check_for_aliasingINS_5BlockINS2_INS2_INS_6MatrixIfLi3ELi3ELi0ELi3ELi3EEELi3ELi1ELb1EEELin1ELi1ELb0EEELin1ELi1ELb0EEENS_13CwiseBinaryOpINS0_18scalar_quotient_opIffEEKNS2_IKS6_Lin1ELi1ELb0EEEKNS_14CwiseNullaryOpINS0_18scalar_constant_opIfEEKNS3_IfLin1ELi1ELi0ELi3ELi1EEEEEEEEEvRKT_RKT0_, symObjAddr: 0xEC6C, symBinAddr: 0x100012F58, symSize: 0x14 }
  - { offsetInCU: 0x284E1, offset: 0x284E1, size: 0x8, addend: 0x0, symName: __ZN5Eigen8internal26call_dense_assignment_loopINS_5BlockINS2_INS2_INS_6MatrixIfLi3ELi3ELi0ELi3ELi3EEELi3ELi1ELb1EEELin1ELi1ELb0EEELin1ELi1ELb0EEENS_13CwiseBinaryOpINS0_18scalar_quotient_opIffEEKNS2_IKS6_Lin1ELi1ELb0EEEKNS_14CwiseNullaryOpINS0_18scalar_constant_opIfEEKNS3_IfLin1ELi1ELi0ELi3ELi1EEEEEEENS0_9assign_opIffEEEEvRT_RKT0_RKT1_, symObjAddr: 0xEC80, symBinAddr: 0x100012F6C, symSize: 0xD8 }
  - { offsetInCU: 0x28595, offset: 0x28595, size: 0x8, addend: 0x0, symName: __ZN5Eigen8internal17resize_if_allowedINS_5BlockINS2_INS2_INS_6MatrixIfLi3ELi3ELi0ELi3ELi3EEELi3ELi1ELb1EEELin1ELi1ELb0EEELin1ELi1ELb0EEENS_13CwiseBinaryOpINS0_18scalar_quotient_opIffEEKNS2_IKS6_Lin1ELi1ELb0EEEKNS_14CwiseNullaryOpINS0_18scalar_constant_opIfEEKNS3_IfLin1ELi1ELi0ELi3ELi1EEEEEEEffEEvRT_RKT0_RKNS0_9assign_opIT1_T2_EE, symObjAddr: 0xED8C, symBinAddr: 0x100013078, symSize: 0xF8 }
  - { offsetInCU: 0x2861B, offset: 0x2861B, size: 0x8, addend: 0x0, symName: __ZN5Eigen8internal4pdivI19__simd128_float32_tEET_RKS3_S5_, symObjAddr: 0xF688, symBinAddr: 0x100013974, symSize: 0x40 }
  - { offsetInCU: 0x28693, offset: 0x28693, size: 0x8, addend: 0x0, symName: __ZN5Eigen8internal15call_assignmentINS_5BlockINS_6MatrixIfLi3ELi3ELi0ELi3ELi3EEELin1ELin1ELb0EEENS_14CwiseNullaryOpINS0_18scalar_constant_opIfEENS3_IfLin1ELin1ELi0ELi3ELi3EEEEENS0_13mul_assign_opIffEEEEvRT_RKT0_RKT1_NS0_9enable_ifIXntsr25evaluator_assume_aliasingISF_EE5valueEPvE4typeE, symObjAddr: 0x102E4, symBinAddr: 0x1000145D0, symSize: 0x38 }
  - { offsetInCU: 0x28757, offset: 0x28757, size: 0x8, addend: 0x0, symName: __ZN5Eigen8internal24call_assignment_no_aliasINS_5BlockINS_6MatrixIfLi3ELi3ELi0ELi3ELi3EEELin1ELin1ELb0EEENS_14CwiseNullaryOpINS0_18scalar_constant_opIfEENS3_IfLin1ELin1ELi0ELi3ELi3EEEEENS0_13mul_assign_opIffEEEEvRT_RKT0_RKT1_, symObjAddr: 0x103A8, symBinAddr: 0x100014694, symSize: 0x3C }
  - { offsetInCU: 0x28825, offset: 0x28825, size: 0x8, addend: 0x0, symName: __ZN5Eigen8internal18check_for_aliasingINS_5BlockINS_6MatrixIfLi3ELi3ELi0ELi3ELi3EEELin1ELin1ELb0EEENS_14CwiseNullaryOpINS0_18scalar_constant_opIfEENS3_IfLin1ELin1ELi0ELi3ELi3EEEEEEEvRKT_RKT0_, symObjAddr: 0x10424, symBinAddr: 0x100014710, symSize: 0x60 }
  - { offsetInCU: 0x28870, offset: 0x28870, size: 0x8, addend: 0x0, symName: __ZN5Eigen8internal26call_dense_assignment_loopINS_5BlockINS_6MatrixIfLi3ELi3ELi0ELi3ELi3EEELin1ELin1ELb0EEENS_14CwiseNullaryOpINS0_18scalar_constant_opIfEENS3_IfLin1ELin1ELi0ELi3ELi3EEEEENS0_13mul_assign_opIffEEEEvRT_RKT0_RKT1_, symObjAddr: 0x10484, symBinAddr: 0x100014770, symSize: 0xE0 }
  - { offsetInCU: 0x28A52, offset: 0x28A52, size: 0x8, addend: 0x0, symName: __ZN5Eigen8internal17resize_if_allowedINS_5BlockINS_6MatrixIfLi3ELi3ELi0ELi3ELi3EEELin1ELin1ELb0EEENS_14CwiseNullaryOpINS0_18scalar_constant_opIfEENS3_IfLin1ELin1ELi0ELi3ELi3EEEEENS0_13mul_assign_opIffEEEEvRT_RKT0_RKT1_, symObjAddr: 0x105D4, symBinAddr: 0x1000148C0, symSize: 0xB4 }
  - { offsetInCU: 0x28DBF, offset: 0x28DBF, size: 0x8, addend: 0x0, symName: __ZN5Eigen8internal24call_assignment_no_aliasINS_3MapINS_6MatrixIfLi1ELin1ELi1ELi1ELi3EEELi0ENS_6StrideILi0ELi0EEEEENS_7ProductINS_9TransposeIKNS_5BlockINSA_INS3_IfLi3ELi3ELi0ELi3ELi3EEELi3ELi1ELb1EEELin1ELi1ELb0EEEEENSA_INSA_ISB_Lin1ELin1ELb0EEELin1ELin1ELb0EEELi0EEENS0_9assign_opIffEEEEvRT_RKT0_RKT1_, symObjAddr: 0x11C40, symBinAddr: 0x100015F2C, symSize: 0x3C }
  - { offsetInCU: 0x28EF4, offset: 0x28EF4, size: 0x8, addend: 0x0, symName: __ZN5Eigen8internal24call_assignment_no_aliasINS_3MapINS_6MatrixIfLi1ELin1ELi1ELi1ELi3EEELi0ENS_6StrideILi0ELi0EEEEENS_7ProductINS_9TransposeIKNS_5BlockINSA_INS3_IfLi3ELi3ELi0ELi3ELi3EEELi3ELi1ELb1EEELin1ELi1ELb0EEEEENSA_INSA_ISB_Lin1ELin1ELb0EEELin1ELin1ELb0EEELi1EEENS0_9assign_opIffEEEEvRT_RKT0_RKT1_, symObjAddr: 0x11FE8, symBinAddr: 0x1000162D4, symSize: 0x3C }
  - { offsetInCU: 0x291CE, offset: 0x291CE, size: 0x8, addend: 0x0, symName: __ZN5Eigen8internal18check_for_aliasingINS_3MapINS_6MatrixIfLi1ELin1ELi1ELi1ELi3EEELi0ENS_6StrideILi0ELi0EEEEENS_7ProductINS_9TransposeIKNS_5BlockINSA_INS3_IfLi3ELi3ELi0ELi3ELi3EEELi3ELi1ELb1EEELin1ELi1ELb0EEEEENSA_INSA_ISB_Lin1ELin1ELb0EEELin1ELin1ELb0EEELi1EEEEEvRKT_RKT0_, symObjAddr: 0x120AC, symBinAddr: 0x100016398, symSize: 0x14 }
  - { offsetInCU: 0x29219, offset: 0x29219, size: 0x8, addend: 0x0, symName: __ZN5Eigen8internal26call_dense_assignment_loopINS_3MapINS_6MatrixIfLi1ELin1ELi1ELi1ELi3EEELi0ENS_6StrideILi0ELi0EEEEENS_7ProductINS_9TransposeIKNS_5BlockINSA_INS3_IfLi3ELi3ELi0ELi3ELi3EEELi3ELi1ELb1EEELin1ELi1ELb0EEEEENSA_INSA_ISB_Lin1ELin1ELb0EEELin1ELin1ELb0EEELi1EEENS0_9assign_opIffEEEEvRT_RKT0_RKT1_, symObjAddr: 0x120C0, symBinAddr: 0x1000163AC, symSize: 0xE8 }
  - { offsetInCU: 0x296FC, offset: 0x296FC, size: 0x8, addend: 0x0, symName: __ZN5Eigen8internal17resize_if_allowedINS_3MapINS_6MatrixIfLi1ELin1ELi1ELi1ELi3EEELi0ENS_6StrideILi0ELi0EEEEENS_7ProductINS_9TransposeIKNS_5BlockINSA_INS3_IfLi3ELi3ELi0ELi3ELi3EEELi3ELi1ELb1EEELin1ELi1ELb0EEEEENSA_INSA_ISB_Lin1ELin1ELb0EEELin1ELin1ELb0EEELi1EEEffEEvRT_RKT0_RKNS0_9assign_opIT1_T2_EE, symObjAddr: 0x121DC, symBinAddr: 0x1000164C8, symSize: 0xF8 }
  - { offsetInCU: 0x2A0B9, offset: 0x2A0B9, size: 0x8, addend: 0x0, symName: __ZN5Eigen8internalL21first_default_alignedINS_13CwiseBinaryOpINS0_17scalar_product_opIffEEKNS_9TransposeIKNS_5BlockIKNS5_IKNS6_INS6_INS_6MatrixIfLi3ELi3ELi0ELi3ELi3EEELi3ELi1ELb1EEELin1ELi1ELb0EEEEELi1ELin1ELb1EEEEEKNS6_IKNS6_INS6_IS8_Lin1ELin1ELb0EEELin1ELin1ELb0EEELin1ELi1ELb1EEEEEEElRKNS_9DenseBaseIT_EE, symObjAddr: 0x14D68, symBinAddr: 0x100019054, symSize: 0x24 }
  - { offsetInCU: 0x2A0F0, offset: 0x2A0F0, size: 0x8, addend: 0x0, symName: __ZN5Eigen8internalL13first_alignedILi16ENS_13CwiseBinaryOpINS0_17scalar_product_opIffEEKNS_9TransposeIKNS_5BlockIKNS5_IKNS6_INS6_INS_6MatrixIfLi3ELi3ELi0ELi3ELi3EEELi3ELi1ELb1EEELin1ELi1ELb0EEEEELi1ELin1ELb1EEEEEKNS6_IKNS6_INS6_IS8_Lin1ELin1ELb0EEELin1ELin1ELb0EEELin1ELi1ELb1EEEEEEElRKNS_9DenseBaseIT0_EE, symObjAddr: 0x14E6C, symBinAddr: 0x100019158, symSize: 0x28 }
  - { offsetInCU: 0x2A16F, offset: 0x2A16F, size: 0x8, addend: 0x0, symName: __ZN5Eigen8internal15call_assignmentINS_3MapINS_6MatrixIfLi1ELin1ELi1ELi1ELi3EEELi0ENS_6StrideILi0ELi0EEEEENS_5BlockINS8_INS3_IfLi3ELi3ELi0ELi3ELi3EEELin1ELin1ELb0EEELi1ELin1ELb0EEENS0_13add_assign_opIffEEEEvRT_RKT0_RKT1_NS0_9enable_ifIXntsr25evaluator_assume_aliasingISG_EE5valueEPvE4typeE, symObjAddr: 0x158AC, symBinAddr: 0x100019B98, symSize: 0x38 }
  - { offsetInCU: 0x2A1DD, offset: 0x2A1DD, size: 0x8, addend: 0x0, symName: __ZN5Eigen8internal24call_assignment_no_aliasINS_3MapINS_6MatrixIfLi1ELin1ELi1ELi1ELi3EEELi0ENS_6StrideILi0ELi0EEEEENS_5BlockINS8_INS3_IfLi3ELi3ELi0ELi3ELi3EEELin1ELin1ELb0EEELi1ELin1ELb0EEENS0_13add_assign_opIffEEEEvRT_RKT0_RKT1_, symObjAddr: 0x15924, symBinAddr: 0x100019C10, symSize: 0x3C }
  - { offsetInCU: 0x2A2AB, offset: 0x2A2AB, size: 0x8, addend: 0x0, symName: __ZN5Eigen8internal18check_for_aliasingINS_3MapINS_6MatrixIfLi1ELin1ELi1ELi1ELi3EEELi0ENS_6StrideILi0ELi0EEEEENS_5BlockINS8_INS3_IfLi3ELi3ELi0ELi3ELi3EEELin1ELin1ELb0EEELi1ELin1ELb0EEEEEvRKT_RKT0_, symObjAddr: 0x159A0, symBinAddr: 0x100019C8C, symSize: 0x14 }
  - { offsetInCU: 0x2A2F6, offset: 0x2A2F6, size: 0x8, addend: 0x0, symName: __ZN5Eigen8internal26call_dense_assignment_loopINS_3MapINS_6MatrixIfLi1ELin1ELi1ELi1ELi3EEELi0ENS_6StrideILi0ELi0EEEEENS_5BlockINS8_INS3_IfLi3ELi3ELi0ELi3ELi3EEELin1ELin1ELb0EEELi1ELin1ELb0EEENS0_13add_assign_opIffEEEEvRT_RKT0_RKT1_, symObjAddr: 0x159B4, symBinAddr: 0x100019CA0, symSize: 0xD8 }
  - { offsetInCU: 0x2A466, offset: 0x2A466, size: 0x8, addend: 0x0, symName: __ZN5Eigen8internal17resize_if_allowedINS_3MapINS_6MatrixIfLi1ELin1ELi1ELi1ELi3EEELi0ENS_6StrideILi0ELi0EEEEENS_5BlockINS8_INS3_IfLi3ELi3ELi0ELi3ELi3EEELin1ELin1ELb0EEELi1ELin1ELb0EEENS0_13add_assign_opIffEEEEvRT_RKT0_RKT1_, symObjAddr: 0x15AC0, symBinAddr: 0x100019DAC, symSize: 0xB4 }
  - { offsetInCU: 0x2A717, offset: 0x2A717, size: 0x8, addend: 0x0, symName: __ZN5Eigen8internal15call_assignmentINS_5BlockINS2_INS_6MatrixIfLi3ELi3ELi0ELi3ELi3EEELin1ELin1ELb0EEELi1ELin1ELb0EEENS_13CwiseBinaryOpINS0_17scalar_product_opIffEEKNS_14CwiseNullaryOpINS0_18scalar_constant_opIfEEKNS3_IfLi1ELin1ELi1ELi1ELi3EEEEEKNS_3MapISD_Li0ENS_6StrideILi0ELi0EEEEEEENS0_13sub_assign_opIffEEEEvRT_RKT0_RKT1_NS0_9enable_ifIXntsr25evaluator_assume_aliasingISR_EE5valueEPvE4typeE, symObjAddr: 0x16540, symBinAddr: 0x10001A82C, symSize: 0x38 }
  - { offsetInCU: 0x2A785, offset: 0x2A785, size: 0x8, addend: 0x0, symName: __ZN5Eigen8internal24call_assignment_no_aliasINS_5BlockINS2_INS_6MatrixIfLi3ELi3ELi0ELi3ELi3EEELin1ELin1ELb0EEELi1ELin1ELb0EEENS_13CwiseBinaryOpINS0_17scalar_product_opIffEEKNS_14CwiseNullaryOpINS0_18scalar_constant_opIfEEKNS3_IfLi1ELin1ELi1ELi1ELi3EEEEEKNS_3MapISD_Li0ENS_6StrideILi0ELi0EEEEEEENS0_13sub_assign_opIffEEEEvRT_RKT0_RKT1_, symObjAddr: 0x165CC, symBinAddr: 0x10001A8B8, symSize: 0x3C }
  - { offsetInCU: 0x2A853, offset: 0x2A853, size: 0x8, addend: 0x0, symName: __ZN5Eigen8internal18check_for_aliasingINS_5BlockINS2_INS_6MatrixIfLi3ELi3ELi0ELi3ELi3EEELin1ELin1ELb0EEELi1ELin1ELb0EEENS_13CwiseBinaryOpINS0_17scalar_product_opIffEEKNS_14CwiseNullaryOpINS0_18scalar_constant_opIfEEKNS3_IfLi1ELin1ELi1ELi1ELi3EEEEEKNS_3MapISD_Li0ENS_6StrideILi0ELi0EEEEEEEEEvRKT_RKT0_, symObjAddr: 0x16648, symBinAddr: 0x10001A934, symSize: 0x14 }
  - { offsetInCU: 0x2A89E, offset: 0x2A89E, size: 0x8, addend: 0x0, symName: __ZN5Eigen8internal26call_dense_assignment_loopINS_5BlockINS2_INS_6MatrixIfLi3ELi3ELi0ELi3ELi3EEELin1ELin1ELb0EEELi1ELin1ELb0EEENS_13CwiseBinaryOpINS0_17scalar_product_opIffEEKNS_14CwiseNullaryOpINS0_18scalar_constant_opIfEEKNS3_IfLi1ELin1ELi1ELi1ELi3EEEEEKNS_3MapISD_Li0ENS_6StrideILi0ELi0EEEEEEENS0_13sub_assign_opIffEEEEvRT_RKT0_RKT1_, symObjAddr: 0x1665C, symBinAddr: 0x10001A948, symSize: 0xE0 }
  - { offsetInCU: 0x2AB4B, offset: 0x2AB4B, size: 0x8, addend: 0x0, symName: __ZN5Eigen8internal17resize_if_allowedINS_5BlockINS2_INS_6MatrixIfLi3ELi3ELi0ELi3ELi3EEELin1ELin1ELb0EEELi1ELin1ELb0EEENS_13CwiseBinaryOpINS0_17scalar_product_opIffEEKNS_14CwiseNullaryOpINS0_18scalar_constant_opIfEEKNS3_IfLi1ELin1ELi1ELi1ELi3EEEEEKNS_3MapISD_Li0ENS_6StrideILi0ELi0EEEEEEENS0_13sub_assign_opIffEEEEvRT_RKT0_RKT1_, symObjAddr: 0x16770, symBinAddr: 0x10001AA5C, symSize: 0xB4 }
  - { offsetInCU: 0x2ADFC, offset: 0x2ADFC, size: 0x8, addend: 0x0, symName: __ZN5Eigen8internal24call_assignment_no_aliasINS_5BlockINS2_INS_6MatrixIfLi3ELi3ELi0ELi3ELi3EEELin1ELin1ELb0EEELin1ELin1ELb0EEENS_7ProductINS_13CwiseBinaryOpINS0_17scalar_product_opIffEEKNS_14CwiseNullaryOpINS0_18scalar_constant_opIfEEKNS3_IfLin1ELi1ELi0ELi3ELi1EEEEEKNS2_INS2_IS4_Li3ELi1ELb1EEELin1ELi1ELb0EEEEENS_3MapINS3_IfLi1ELin1ELi1ELi1ELi3EEELi0ENS_6StrideILi0ELi0EEEEELi0EEENS0_13sub_assign_opIffEEEEvRT_RKT0_RKT1_, symObjAddr: 0x175EC, symBinAddr: 0x10001B8D8, symSize: 0x3C }
  - { offsetInCU: 0x2AF31, offset: 0x2AF31, size: 0x8, addend: 0x0, symName: __ZN5Eigen8internal24call_assignment_no_aliasINS_5BlockINS2_INS_6MatrixIfLi3ELi3ELi0ELi3ELi3EEELin1ELin1ELb0EEELin1ELin1ELb0EEENS_7ProductINS_13CwiseBinaryOpINS0_17scalar_product_opIffEEKNS_14CwiseNullaryOpINS0_18scalar_constant_opIfEEKNS3_IfLin1ELi1ELi0ELi3ELi1EEEEEKNS2_INS2_IS4_Li3ELi1ELb1EEELin1ELi1ELb0EEEEENS_3MapINS3_IfLi1ELin1ELi1ELi1ELi3EEELi0ENS_6StrideILi0ELi0EEEEELi1EEENS0_13sub_assign_opIffEEEEvRT_RKT0_RKT1_, symObjAddr: 0x1784C, symBinAddr: 0x10001BB38, symSize: 0x3C }
  - { offsetInCU: 0x2B203, offset: 0x2B203, size: 0x8, addend: 0x0, symName: __ZN5Eigen8internal18check_for_aliasingINS_5BlockINS2_INS_6MatrixIfLi3ELi3ELi0ELi3ELi3EEELin1ELin1ELb0EEELin1ELin1ELb0EEENS_7ProductINS_13CwiseBinaryOpINS0_17scalar_product_opIffEEKNS_14CwiseNullaryOpINS0_18scalar_constant_opIfEEKNS3_IfLin1ELi1ELi0ELi3ELi1EEEEEKNS2_INS2_IS4_Li3ELi1ELb1EEELin1ELi1ELb0EEEEENS_3MapINS3_IfLi1ELin1ELi1ELi1ELi3EEELi0ENS_6StrideILi0ELi0EEEEELi1EEEEEvRKT_RKT0_, symObjAddr: 0x17914, symBinAddr: 0x10001BC00, symSize: 0x60 }
  - { offsetInCU: 0x2B24E, offset: 0x2B24E, size: 0x8, addend: 0x0, symName: __ZN5Eigen8internal26call_dense_assignment_loopINS_5BlockINS2_INS_6MatrixIfLi3ELi3ELi0ELi3ELi3EEELin1ELin1ELb0EEELin1ELin1ELb0EEENS_7ProductINS_13CwiseBinaryOpINS0_17scalar_product_opIffEEKNS_14CwiseNullaryOpINS0_18scalar_constant_opIfEEKNS3_IfLin1ELi1ELi0ELi3ELi1EEEEEKNS2_INS2_IS4_Li3ELi1ELb1EEELin1ELi1ELb0EEEEENS_3MapINS3_IfLi1ELin1ELi1ELi1ELi3EEELi0ENS_6StrideILi0ELi0EEEEELi1EEENS0_13sub_assign_opIffEEEEvRT_RKT0_RKT1_, symObjAddr: 0x17974, symBinAddr: 0x10001BC60, symSize: 0xE0 }
  - { offsetInCU: 0x2B512, offset: 0x2B512, size: 0x8, addend: 0x0, symName: __ZN5Eigen8internal17resize_if_allowedINS_5BlockINS2_INS_6MatrixIfLi3ELi3ELi0ELi3ELi3EEELin1ELin1ELb0EEELin1ELin1ELb0EEENS_7ProductINS_13CwiseBinaryOpINS0_17scalar_product_opIffEEKNS_14CwiseNullaryOpINS0_18scalar_constant_opIfEEKNS3_IfLin1ELi1ELi0ELi3ELi1EEEEEKNS2_INS2_IS4_Li3ELi1ELb1EEELin1ELi1ELb0EEEEENS_3MapINS3_IfLi1ELin1ELi1ELi1ELi3EEELi0ENS_6StrideILi0ELi0EEEEELi1EEENS0_13sub_assign_opIffEEEEvRT_RKT0_RKT1_, symObjAddr: 0x17A9C, symBinAddr: 0x10001BD88, symSize: 0xB4 }
  - { offsetInCU: 0x2B7C3, offset: 0x2B7C3, size: 0x8, addend: 0x0, symName: __ZN5Eigen8internal24call_assignment_no_aliasINS_6MatrixIfLin1ELi1ELi0ELi3ELi1EEENS_13CwiseBinaryOpINS0_17scalar_product_opIffEEKNS_14CwiseNullaryOpINS0_18scalar_constant_opIfEEKS3_EEKNS_5BlockINSD_INS2_IfLi3ELi3ELi0ELi3ELi3EEELi3ELi1ELb1EEELin1ELi1ELb0EEEEENS0_9assign_opIffEEEEvRT_RKT0_RKT1_, symObjAddr: 0x18068, symBinAddr: 0x10001C354, symSize: 0x3C }
  - { offsetInCU: 0x2B891, offset: 0x2B891, size: 0x8, addend: 0x0, symName: __ZN5Eigen8internal18check_for_aliasingINS_6MatrixIfLin1ELi1ELi0ELi3ELi1EEENS_13CwiseBinaryOpINS0_17scalar_product_opIffEEKNS_14CwiseNullaryOpINS0_18scalar_constant_opIfEEKS3_EEKNS_5BlockINSD_INS2_IfLi3ELi3ELi0ELi3ELi3EEELi3ELi1ELb1EEELin1ELi1ELb0EEEEEEEvRKT_RKT0_, symObjAddr: 0x180F8, symBinAddr: 0x10001C3E4, symSize: 0x14 }
  - { offsetInCU: 0x2B8DC, offset: 0x2B8DC, size: 0x8, addend: 0x0, symName: __ZN5Eigen8internal26call_dense_assignment_loopINS_6MatrixIfLin1ELi1ELi0ELi3ELi1EEENS_13CwiseBinaryOpINS0_17scalar_product_opIffEEKNS_14CwiseNullaryOpINS0_18scalar_constant_opIfEEKS3_EEKNS_5BlockINSD_INS2_IfLi3ELi3ELi0ELi3ELi3EEELi3ELi1ELb1EEELin1ELi1ELb0EEEEENS0_9assign_opIffEEEEvRT_RKT0_RKT1_, symObjAddr: 0x1810C, symBinAddr: 0x10001C3F8, symSize: 0xE0 }
  - { offsetInCU: 0x2B990, offset: 0x2B990, size: 0x8, addend: 0x0, symName: __ZN5Eigen8internal17resize_if_allowedINS_6MatrixIfLin1ELi1ELi0ELi3ELi1EEENS_13CwiseBinaryOpINS0_17scalar_product_opIffEEKNS_14CwiseNullaryOpINS0_18scalar_constant_opIfEEKS3_EEKNS_5BlockINSD_INS2_IfLi3ELi3ELi0ELi3ELi3EEELi3ELi1ELb1EEELin1ELi1ELb0EEEEEffEEvRT_RKT0_RKNS0_9assign_opIT1_T2_EE, symObjAddr: 0x18220, symBinAddr: 0x10001C50C, symSize: 0xF8 }
  - { offsetInCU: 0x2BD31, offset: 0x2BD31, size: 0x8, addend: 0x0, symName: __ZN5Eigen8internalL21first_default_alignedINS_12CwiseUnaryOpINS0_14scalar_abs2_opIfEEKNS_5BlockINS5_INS_6MatrixIfLi3ELi3ELi0ELi3ELi3EEELi3ELi1ELb1EEELin1ELi1ELb0EEEEEEElRKNS_9DenseBaseIT_EE, symObjAddr: 0x1BCF4, symBinAddr: 0x10001FFE0, symSize: 0x24 }
  - { offsetInCU: 0x2BD68, offset: 0x2BD68, size: 0x8, addend: 0x0, symName: __ZN5Eigen8internalL13first_alignedILi16ENS_12CwiseUnaryOpINS0_14scalar_abs2_opIfEEKNS_5BlockINS5_INS_6MatrixIfLi3ELi3ELi0ELi3ELi3EEELi3ELi1ELb1EEELin1ELi1ELb0EEEEEEElRKNS_9DenseBaseIT0_EE, symObjAddr: 0x1BDB4, symBinAddr: 0x1000200A0, symSize: 0x28 }
  - { offsetInCU: 0x2BE23, offset: 0x2BE23, size: 0x8, addend: 0x0, symName: __ZN5Eigen8internal24call_assignment_no_aliasINS_6MatrixIfLi3ELi1ELi0ELi3ELi1EEENS_5SolveINS_19ColPivHouseholderQRINS2_IfLi3ELi3ELi0ELi3ELi3EEEEES3_EENS0_9assign_opIffEEEEvRT_RKT0_RKT1_, symObjAddr: 0x1C7C4, symBinAddr: 0x100020AB0, symSize: 0x3C }
  - { offsetInCU: 0x2BEFA, offset: 0x2BEFA, size: 0x8, addend: 0x0, symName: __ZN5Eigen8internal15call_assignmentINS_6MatrixIfLi3ELi1ELi0ELi3ELi1EEENS_14CwiseNullaryOpINS0_18scalar_constant_opIfEES3_EEEEvRT_RKT0_, symObjAddr: 0x1D288, symBinAddr: 0x100021574, symSize: 0x50 }
  - { offsetInCU: 0x2BF45, offset: 0x2BF45, size: 0x8, addend: 0x0, symName: __ZN5Eigen8internal15call_assignmentINS_6MatrixIfLi3ELi1ELi0ELi3ELi1EEENS_14CwiseNullaryOpINS0_18scalar_constant_opIfEES3_EENS0_9assign_opIffEEEEvRT_RKT0_RKT1_NS0_9enable_ifIXntsr25evaluator_assume_aliasingISC_EE5valueEPvE4typeE, symObjAddr: 0x1D2EC, symBinAddr: 0x1000215D8, symSize: 0x38 }
  - { offsetInCU: 0x2BFB3, offset: 0x2BFB3, size: 0x8, addend: 0x0, symName: __ZN5Eigen8internal24call_assignment_no_aliasINS_6MatrixIfLi3ELi1ELi0ELi3ELi1EEENS_14CwiseNullaryOpINS0_18scalar_constant_opIfEES3_EENS0_9assign_opIffEEEEvRT_RKT0_RKT1_, symObjAddr: 0x1D324, symBinAddr: 0x100021610, symSize: 0x3C }
  - { offsetInCU: 0x2C081, offset: 0x2C081, size: 0x8, addend: 0x0, symName: __ZN5Eigen8internal18check_for_aliasingINS_6MatrixIfLi3ELi1ELi0ELi3ELi1EEENS_14CwiseNullaryOpINS0_18scalar_constant_opIfEES3_EEEEvRKT_RKT0_, symObjAddr: 0x1D3A0, symBinAddr: 0x10002168C, symSize: 0x14 }
  - { offsetInCU: 0x2C0CC, offset: 0x2C0CC, size: 0x8, addend: 0x0, symName: __ZN5Eigen8internal26call_dense_assignment_loopINS_6MatrixIfLi3ELi1ELi0ELi3ELi1EEEEEvRT_RKNS_14CwiseNullaryOpINS0_18scalar_constant_opINS4_6ScalarEEES4_EERKNS0_9assign_opIS8_S8_EE, symObjAddr: 0x1D3B4, symBinAddr: 0x1000216A0, symSize: 0x6C }
  - { offsetInCU: 0x2C11D, offset: 0x2C11D, size: 0x8, addend: 0x0, symName: __ZN5Eigen8internal17resize_if_allowedINS_6MatrixIfLi3ELi1ELi0ELi3ELi1EEENS_14CwiseNullaryOpINS0_18scalar_constant_opIfEES3_EEffEEvRT_RKT0_RKNS0_9assign_opIT1_T2_EE, symObjAddr: 0x1D420, symBinAddr: 0x10002170C, symSize: 0xF8 }
  - { offsetInCU: 0x2C1A3, offset: 0x2C1A3, size: 0x8, addend: 0x0, symName: __ZN5Eigen8internal28check_static_allocation_sizeIfLi1EEEvv, symObjAddr: 0x1DD6C, symBinAddr: 0x100022058, symSize: 0x4 }
  - { offsetInCU: 0x2C1D0, offset: 0x2C1D0, size: 0x8, addend: 0x0, symName: __ZN5Eigen8internal35apply_block_householder_on_the_leftINS_5BlockINS_6MatrixIfLi3ELi1ELi0ELi3ELi1EEELin1ELin1ELb0EEENS2_INS3_IfLi3ELi3ELi0ELi3ELi3EEELin1ELin1ELb0EEENS_11VectorBlockIKS4_Lin1EEEEEvRT_RKT0_RKT1_b, symObjAddr: 0x1DDEC, symBinAddr: 0x1000220D8, symSize: 0x21C }
  - { offsetInCU: 0x2C278, offset: 0x2C278, size: 0x8, addend: 0x0, symName: __ZN5Eigen8internal40make_block_householder_triangular_factorINS_6MatrixIfLin1ELin1ELi1ELin1ELin1EEENS_5BlockINS2_IfLi3ELi3ELi0ELi3ELi3EEELin1ELin1ELb0EEENS_11VectorBlockIKNS2_IfLi3ELi1ELi0ELi3ELi1EEELin1EEEEEvRT_RKT0_RKT1_, symObjAddr: 0x1E9F0, symBinAddr: 0x100022CDC, symSize: 0x3CC }
  - { offsetInCU: 0x2C36C, offset: 0x2C36C, size: 0x8, addend: 0x0, symName: __ZN5Eigen8internal40make_block_householder_triangular_factorINS_6MatrixIfLin1ELin1ELi1ELin1ELin1EEENS_5BlockINS2_IfLi3ELi3ELi0ELi3ELi3EEELin1ELin1ELb0EEENS4_IKNS2_IfLi3ELi1ELi0ELi3ELi1EEELin1ELi1ELb0EEEEEvRT_RKT0_RKT1_, symObjAddr: 0x1EDBC, symBinAddr: 0x1000230A8, symSize: 0x3CC }
  - { offsetInCU: 0x2C493, offset: 0x2C493, size: 0x8, addend: 0x0, symName: __ZN5Eigen8internal19throw_std_bad_allocEv, symObjAddr: 0x1F8B4, symBinAddr: 0x100023BA0, symSize: 0x34 }
  - { offsetInCU: 0x2C4AC, offset: 0x2C4AC, size: 0x8, addend: 0x0, symName: __ZN5Eigen8internal31conditional_aligned_delete_autoIfLb1EEEvPT_m, symObjAddr: 0x1F8E8, symBinAddr: 0x100023BD4, symSize: 0x28 }
  - { offsetInCU: 0x2C51B, offset: 0x2C51B, size: 0x8, addend: 0x0, symName: __ZN5Eigen8internal28conditional_aligned_new_autoIfLb1EEEPT_m, symObjAddr: 0x1F910, symBinAddr: 0x100023BFC, symSize: 0x84 }
  - { offsetInCU: 0x2C589, offset: 0x2C589, size: 0x8, addend: 0x0, symName: __ZN5Eigen8internal24conditional_aligned_freeILb1EEEvPv, symObjAddr: 0x1F994, symBinAddr: 0x100023C80, symSize: 0x24 }
  - { offsetInCU: 0x2C5BD, offset: 0x2C5BD, size: 0x8, addend: 0x0, symName: __ZN5Eigen8internal12aligned_freeEPv, symObjAddr: 0x1F9B8, symBinAddr: 0x100023CA4, symSize: 0x24 }
  - { offsetInCU: 0x2C5EC, offset: 0x2C5EC, size: 0x8, addend: 0x0, symName: __ZN5Eigen8internal26conditional_aligned_mallocILb1EEEPvm, symObjAddr: 0x1F9DC, symBinAddr: 0x100023CC8, symSize: 0x24 }
  - { offsetInCU: 0x2C622, offset: 0x2C622, size: 0x8, addend: 0x0, symName: __ZN5Eigen8internal14aligned_mallocEm, symObjAddr: 0x1FA00, symBinAddr: 0x100023CEC, symSize: 0xDC }
  - { offsetInCU: 0x2C663, offset: 0x2C663, size: 0x8, addend: 0x0, symName: __ZN5Eigen8internal28check_that_malloc_is_allowedEv, symObjAddr: 0x1FADC, symBinAddr: 0x100023DC8, symSize: 0x4 }
  - { offsetInCU: 0x2C67C, offset: 0x2C67C, size: 0x8, addend: 0x0, symName: __ZN5Eigen8internal24call_assignment_no_aliasINS_5BlockINS2_INS_6MatrixIfLin1ELin1ELi1ELin1ELin1EEELi1ELin1ELb1EEELi1ELin1ELb0EEENS_7ProductINS_13CwiseBinaryOpINS0_17scalar_product_opIffEEKNS_14CwiseNullaryOpINS0_18scalar_constant_opIfEEKNS3_IfLi1ELin1ELi1ELi1ELi3EEEEEKNS_9TransposeIKNS2_IKNS2_IKNS2_INS3_IfLi3ELi3ELi0ELi3ELi3EEELin1ELin1ELb0EEELin1ELi1ELb1EEELin1ELi1ELb0EEEEEEENS_14TriangularViewIKNS2_ISL_Lin1ELin1ELb0EEELj5EEELi0EEENS0_9assign_opIffEEEEvRT_RKT0_RKT1_, symObjAddr: 0x228F0, symBinAddr: 0x100026BDC, symSize: 0x3C }
  - { offsetInCU: 0x2C849, offset: 0x2C849, size: 0x8, addend: 0x0, symName: __ZN5Eigen8internal15call_assignmentINS_5BlockINS2_INS_6MatrixIfLin1ELin1ELi1ELin1ELin1EEELi1ELin1ELb1EEELi1ELin1ELb0EEENS_14CwiseNullaryOpINS0_18scalar_constant_opIfEENS3_IfLi1ELin1ELi1ELi1ELin1EEEEEEEvRT_RKT0_, symObjAddr: 0x230B8, symBinAddr: 0x1000273A4, symSize: 0x50 }
  - { offsetInCU: 0x2C894, offset: 0x2C894, size: 0x8, addend: 0x0, symName: __ZN5Eigen8internal15call_assignmentINS_5BlockINS2_INS_6MatrixIfLin1ELin1ELi1ELin1ELin1EEELi1ELin1ELb1EEELi1ELin1ELb0EEENS_14CwiseNullaryOpINS0_18scalar_constant_opIfEENS3_IfLi1ELin1ELi1ELi1ELin1EEEEENS0_9assign_opIffEEEEvRT_RKT0_RKT1_NS0_9enable_ifIXntsr25evaluator_assume_aliasingISG_EE5valueEPvE4typeE, symObjAddr: 0x23108, symBinAddr: 0x1000273F4, symSize: 0x38 }
  - { offsetInCU: 0x2C902, offset: 0x2C902, size: 0x8, addend: 0x0, symName: __ZN5Eigen8internal24call_assignment_no_aliasINS_5BlockINS2_INS_6MatrixIfLin1ELin1ELi1ELin1ELin1EEELi1ELin1ELb1EEELi1ELin1ELb0EEENS_14CwiseNullaryOpINS0_18scalar_constant_opIfEENS3_IfLi1ELin1ELi1ELi1ELin1EEEEENS0_9assign_opIffEEEEvRT_RKT0_RKT1_, symObjAddr: 0x23140, symBinAddr: 0x10002742C, symSize: 0x3C }
  - { offsetInCU: 0x2C9D0, offset: 0x2C9D0, size: 0x8, addend: 0x0, symName: __ZN5Eigen8internal18check_for_aliasingINS_5BlockINS2_INS_6MatrixIfLin1ELin1ELi1ELin1ELin1EEELi1ELin1ELb1EEELi1ELin1ELb0EEENS_14CwiseNullaryOpINS0_18scalar_constant_opIfEENS3_IfLi1ELin1ELi1ELi1ELin1EEEEEEEvRKT_RKT0_, symObjAddr: 0x231BC, symBinAddr: 0x1000274A8, symSize: 0x14 }
  - { offsetInCU: 0x2CA1B, offset: 0x2CA1B, size: 0x8, addend: 0x0, symName: __ZN5Eigen8internal26call_dense_assignment_loopINS_5BlockINS2_INS_6MatrixIfLin1ELin1ELi1ELin1ELin1EEELi1ELin1ELb1EEELi1ELin1ELb0EEENS_14CwiseNullaryOpINS0_18scalar_constant_opIfEENS3_IfLi1ELin1ELi1ELi1ELin1EEEEENS0_9assign_opIffEEEEvRT_RKT0_RKT1_, symObjAddr: 0x231D0, symBinAddr: 0x1000274BC, symSize: 0xE0 }
  - { offsetInCU: 0x2CACF, offset: 0x2CACF, size: 0x8, addend: 0x0, symName: __ZN5Eigen8internal17resize_if_allowedINS_5BlockINS2_INS_6MatrixIfLin1ELin1ELi1ELin1ELin1EEELi1ELin1ELb1EEELi1ELin1ELb0EEENS_14CwiseNullaryOpINS0_18scalar_constant_opIfEENS3_IfLi1ELin1ELi1ELi1ELin1EEEEEffEEvRT_RKT0_RKNS0_9assign_opIT1_T2_EE, symObjAddr: 0x232E4, symBinAddr: 0x1000275D0, symSize: 0xF8 }
  - { offsetInCU: 0x2D31F, offset: 0x2D31F, size: 0x8, addend: 0x0, symName: __ZN5Eigen8internalL21first_default_alignedINS_13CwiseBinaryOpINS0_17scalar_product_opIffEEKNS_5BlockIKNS5_IKNS_3MapIKNS_6MatrixIfLin1ELin1ELi1ELin1ELin1EEELi0ENS_11OuterStrideILin1EEEEELi1ELin1ELb1EEELi1ELin1ELb0EEEKNS_9TransposeIKNS5_IKNS6_IKNS7_IfLin1ELi1ELi0ELin1ELi1EEELi0ENS_6StrideILi0ELi0EEEEELin1ELi1ELb0EEEEEEEEElRKNS_9DenseBaseIT_EE, symObjAddr: 0x2A010, symBinAddr: 0x10002E2FC, symSize: 0x24 }
  - { offsetInCU: 0x2D356, offset: 0x2D356, size: 0x8, addend: 0x0, symName: __ZN5Eigen8internalL13first_alignedILi16ENS_13CwiseBinaryOpINS0_17scalar_product_opIffEEKNS_5BlockIKNS5_IKNS_3MapIKNS_6MatrixIfLin1ELin1ELi1ELin1ELin1EEELi0ENS_11OuterStrideILin1EEEEELi1ELin1ELb1EEELi1ELin1ELb0EEEKNS_9TransposeIKNS5_IKNS6_IKNS7_IfLin1ELi1ELi0ELin1ELi1EEELi0ENS_6StrideILi0ELi0EEEEELin1ELi1ELb0EEEEEEEEElRKNS_9DenseBaseIT0_EE, symObjAddr: 0x2A114, symBinAddr: 0x10002E400, symSize: 0x28 }
  - { offsetInCU: 0x2D4BB, offset: 0x2D4BB, size: 0x8, addend: 0x0, symName: __ZN5Eigen8internal5pset1I18__simd64_float32_tEET_RKNS0_15unpacket_traitsIS3_E4typeE, symObjAddr: 0x2A6B0, symBinAddr: 0x10002E99C, symSize: 0x50 }
  - { offsetInCU: 0x2D565, offset: 0x2D565, size: 0x8, addend: 0x0, symName: __ZN5Eigen8internal5pmaddI19__simd128_float32_tEET_RKS3_S5_S5_, symObjAddr: 0x2A754, symBinAddr: 0x10002EA40, symSize: 0x54 }
  - { offsetInCU: 0x2D65A, offset: 0x2D65A, size: 0x8, addend: 0x0, symName: __ZN5Eigen8internal4pmulIfEET_RKS2_S4_, symObjAddr: 0x2A7C0, symBinAddr: 0x10002EAAC, symSize: 0x28 }
  - { offsetInCU: 0x2D69D, offset: 0x2D69D, size: 0x8, addend: 0x0, symName: __ZN5Eigen8internal5pmaddI18__simd64_float32_tEET_RKS3_S5_S5_, symObjAddr: 0x2A800, symBinAddr: 0x10002EAEC, symSize: 0x54 }
  - { offsetInCU: 0x2D6F2, offset: 0x2D6F2, size: 0x8, addend: 0x0, symName: __ZN5Eigen8internal15call_assignmentINS_5BlockINS_9TransposeINS2_INS2_INS_6MatrixIfLin1ELin1ELi1ELin1ELin1EEELi1ELin1ELb1EEELi1ELin1ELb0EEEEELin1ELi1ELb0EEENS_13CwiseBinaryOpINS0_17scalar_product_opIffEEKNS_14CwiseNullaryOpINS0_18scalar_constant_opIfEEKNS4_IfLin1ELi1ELi0ELi3ELi1EEEEEKNS2_IKNS3_IKNSA_ISC_KNSD_ISF_KNS4_IfLi1ELin1ELi1ELi1ELi3EEEEEKNS3_IKNS2_IKNS2_IKNS2_INS4_IfLi3ELi3ELi0ELi3ELi3EEELin1ELin1ELb0EEELin1ELi1ELb1EEELin1ELi1ELb0EEEEEEEEELin1ELi1ELb0EEEEENS0_13sub_assign_opIffEEEEvRT_RKT0_RKT1_NS0_9enable_ifIXntsr25evaluator_assume_aliasingIS18_EE5valueEPvE4typeE, symObjAddr: 0x2B638, symBinAddr: 0x10002F924, symSize: 0x38 }
  - { offsetInCU: 0x2D760, offset: 0x2D760, size: 0x8, addend: 0x0, symName: __ZN5Eigen8internal24call_assignment_no_aliasINS_5BlockINS_9TransposeINS2_INS2_INS_6MatrixIfLin1ELin1ELi1ELin1ELin1EEELi1ELin1ELb1EEELi1ELin1ELb0EEEEELin1ELi1ELb0EEENS_13CwiseBinaryOpINS0_17scalar_product_opIffEEKNS_14CwiseNullaryOpINS0_18scalar_constant_opIfEEKNS4_IfLin1ELi1ELi0ELi3ELi1EEEEEKNS2_IKNS3_IKNSA_ISC_KNSD_ISF_KNS4_IfLi1ELin1ELi1ELi1ELi3EEEEEKNS3_IKNS2_IKNS2_IKNS2_INS4_IfLi3ELi3ELi0ELi3ELi3EEELin1ELin1ELb0EEELin1ELi1ELb1EEELin1ELi1ELb0EEEEEEEEELin1ELi1ELb0EEEEENS0_13sub_assign_opIffEEEEvRT_RKT0_RKT1_, symObjAddr: 0x2B698, symBinAddr: 0x10002F984, symSize: 0x3C }
  - { offsetInCU: 0x2D82E, offset: 0x2D82E, size: 0x8, addend: 0x0, symName: __ZN5Eigen8internal18check_for_aliasingINS_5BlockINS_9TransposeINS2_INS2_INS_6MatrixIfLin1ELin1ELi1ELin1ELin1EEELi1ELin1ELb1EEELi1ELin1ELb0EEEEELin1ELi1ELb0EEENS_13CwiseBinaryOpINS0_17scalar_product_opIffEEKNS_14CwiseNullaryOpINS0_18scalar_constant_opIfEEKNS4_IfLin1ELi1ELi0ELi3ELi1EEEEEKNS2_IKNS3_IKNSA_ISC_KNSD_ISF_KNS4_IfLi1ELin1ELi1ELi1ELi3EEEEEKNS3_IKNS2_IKNS2_IKNS2_INS4_IfLi3ELi3ELi0ELi3ELi3EEELin1ELin1ELb0EEELin1ELi1ELb1EEELin1ELi1ELb0EEEEEEEEELin1ELi1ELb0EEEEEEEvRKT_RKT0_, symObjAddr: 0x2B714, symBinAddr: 0x10002FA00, symSize: 0x14 }
  - { offsetInCU: 0x2D879, offset: 0x2D879, size: 0x8, addend: 0x0, symName: __ZN5Eigen8internal26call_dense_assignment_loopINS_5BlockINS_9TransposeINS2_INS2_INS_6MatrixIfLin1ELin1ELi1ELin1ELin1EEELi1ELin1ELb1EEELi1ELin1ELb0EEEEELin1ELi1ELb0EEENS_13CwiseBinaryOpINS0_17scalar_product_opIffEEKNS_14CwiseNullaryOpINS0_18scalar_constant_opIfEEKNS4_IfLin1ELi1ELi0ELi3ELi1EEEEEKNS2_IKNS3_IKNSA_ISC_KNSD_ISF_KNS4_IfLi1ELin1ELi1ELi1ELi3EEEEEKNS3_IKNS2_IKNS2_IKNS2_INS4_IfLi3ELi3ELi0ELi3ELi3EEELin1ELin1ELb0EEELin1ELi1ELb1EEELin1ELi1ELb0EEEEEEEEELin1ELi1ELb0EEEEENS0_13sub_assign_opIffEEEEvRT_RKT0_RKT1_, symObjAddr: 0x2B728, symBinAddr: 0x10002FA14, symSize: 0xE0 }
  - { offsetInCU: 0x2D92E, offset: 0x2D92E, size: 0x8, addend: 0x0, symName: __ZN5Eigen8internal17resize_if_allowedINS_5BlockINS_9TransposeINS2_INS2_INS_6MatrixIfLin1ELin1ELi1ELin1ELin1EEELi1ELin1ELb1EEELi1ELin1ELb0EEEEELin1ELi1ELb0EEENS_13CwiseBinaryOpINS0_17scalar_product_opIffEEKNS_14CwiseNullaryOpINS0_18scalar_constant_opIfEEKNS4_IfLin1ELi1ELi0ELi3ELi1EEEEEKNS2_IKNS3_IKNSA_ISC_KNSD_ISF_KNS4_IfLi1ELin1ELi1ELi1ELi3EEEEEKNS3_IKNS2_IKNS2_IKNS2_INS4_IfLi3ELi3ELi0ELi3ELi3EEELin1ELin1ELb0EEELin1ELi1ELb1EEELin1ELi1ELb0EEEEEEEEELin1ELi1ELb0EEEEENS0_13sub_assign_opIffEEEEvRT_RKT0_RKT1_, symObjAddr: 0x2B83C, symBinAddr: 0x10002FB28, symSize: 0xB4 }
  - { offsetInCU: 0x2D9BE, offset: 0x2D9BE, size: 0x8, addend: 0x0, symName: __ZN5Eigen8internal4psubI19__simd128_float32_tEET_RKS3_S5_, symObjAddr: 0x2D25C, symBinAddr: 0x100031548, symSize: 0x40 }
  - { offsetInCU: 0x2DA04, offset: 0x2DA04, size: 0x8, addend: 0x0, symName: __ZN5Eigen8internal5ploadI19__simd128_float32_tEET_PKNS0_15unpacket_traitsIS3_E4typeE, symObjAddr: 0x2D29C, symBinAddr: 0x100031588, symSize: 0x28 }
  - { offsetInCU: 0x2DA58, offset: 0x2DA58, size: 0x8, addend: 0x0, symName: __ZN5Eigen8internal15call_assignmentINS_5BlockINS2_INS_6MatrixIfLin1ELin1ELi1ELin1ELin1EEELi1ELin1ELb1EEELi1ELin1ELb0EEENS_13CwiseBinaryOpINS0_17scalar_product_opIffEEKNS_14CwiseNullaryOpINS0_18scalar_constant_opIfEEKNS3_IfLi1ELin1ELi1ELi1ELin1EEEEEKS6_EENS0_13add_assign_opIffEEEEvRT_RKT0_RKT1_NS0_9enable_ifIXntsr25evaluator_assume_aliasingISN_EE5valueEPvE4typeE, symObjAddr: 0x2DF14, symBinAddr: 0x100032200, symSize: 0x38 }
  - { offsetInCU: 0x2DAC6, offset: 0x2DAC6, size: 0x8, addend: 0x0, symName: __ZN5Eigen8internal24call_assignment_no_aliasINS_5BlockINS2_INS_6MatrixIfLin1ELin1ELi1ELin1ELin1EEELi1ELin1ELb1EEELi1ELin1ELb0EEENS_13CwiseBinaryOpINS0_17scalar_product_opIffEEKNS_14CwiseNullaryOpINS0_18scalar_constant_opIfEEKNS3_IfLi1ELin1ELi1ELi1ELin1EEEEEKS6_EENS0_13add_assign_opIffEEEEvRT_RKT0_RKT1_, symObjAddr: 0x2DF60, symBinAddr: 0x10003224C, symSize: 0x3C }
  - { offsetInCU: 0x2DB94, offset: 0x2DB94, size: 0x8, addend: 0x0, symName: __ZN5Eigen8internal18check_for_aliasingINS_5BlockINS2_INS_6MatrixIfLin1ELin1ELi1ELin1ELin1EEELi1ELin1ELb1EEELi1ELin1ELb0EEENS_13CwiseBinaryOpINS0_17scalar_product_opIffEEKNS_14CwiseNullaryOpINS0_18scalar_constant_opIfEEKNS3_IfLi1ELin1ELi1ELi1ELin1EEEEEKS6_EEEEvRKT_RKT0_, symObjAddr: 0x2DFDC, symBinAddr: 0x1000322C8, symSize: 0x14 }
  - { offsetInCU: 0x2DBDF, offset: 0x2DBDF, size: 0x8, addend: 0x0, symName: __ZN5Eigen8internal26call_dense_assignment_loopINS_5BlockINS2_INS_6MatrixIfLin1ELin1ELi1ELin1ELin1EEELi1ELin1ELb1EEELi1ELin1ELb0EEENS_13CwiseBinaryOpINS0_17scalar_product_opIffEEKNS_14CwiseNullaryOpINS0_18scalar_constant_opIfEEKNS3_IfLi1ELin1ELi1ELi1ELin1EEEEEKS6_EENS0_13add_assign_opIffEEEEvRT_RKT0_RKT1_, symObjAddr: 0x2DFF0, symBinAddr: 0x1000322DC, symSize: 0xD8 }
  - { offsetInCU: 0x2DC93, offset: 0x2DC93, size: 0x8, addend: 0x0, symName: __ZN5Eigen8internal17resize_if_allowedINS_5BlockINS2_INS_6MatrixIfLin1ELin1ELi1ELin1ELin1EEELi1ELin1ELb1EEELi1ELin1ELb0EEENS_13CwiseBinaryOpINS0_17scalar_product_opIffEEKNS_14CwiseNullaryOpINS0_18scalar_constant_opIfEEKNS3_IfLi1ELin1ELi1ELi1ELin1EEEEEKS6_EENS0_13add_assign_opIffEEEEvRT_RKT0_RKT1_, symObjAddr: 0x2E0FC, symBinAddr: 0x1000323E8, symSize: 0xB4 }
  - { offsetInCU: 0x2DCF2, offset: 0x2DCF2, size: 0x8, addend: 0x0, symName: __ZN5Eigen8internal24call_assignment_no_aliasINS_6MatrixIfLin1ELin1ELi0ELi3ELi1EEENS_7ProductINS_14TriangularViewIKNS_9TransposeIKNS_5BlockINS2_IfLi3ELi3ELi0ELi3ELi3EEELin1ELin1ELb0EEEEELj6EEENS7_INS2_IfLi3ELi1ELi0ELi3ELi1EEELin1ELin1ELb0EEELi0EEENS0_9assign_opIffEEEEvRT_RKT0_RKT1_, symObjAddr: 0x2F550, symBinAddr: 0x10003383C, symSize: 0x3C }
  - { offsetInCU: 0x2DEBF, offset: 0x2DEBF, size: 0x8, addend: 0x0, symName: __ZN5Eigen8internal15call_assignmentINS_6MatrixIfLin1ELin1ELi0ELi3ELi1EEENS_14CwiseNullaryOpINS0_18scalar_constant_opIfEES3_EEEEvRT_RKT0_, symObjAddr: 0x2FB24, symBinAddr: 0x100033E10, symSize: 0x50 }
  - { offsetInCU: 0x2DF0A, offset: 0x2DF0A, size: 0x8, addend: 0x0, symName: __ZN5Eigen8internal15call_assignmentINS_6MatrixIfLin1ELin1ELi0ELi3ELi1EEENS_14CwiseNullaryOpINS0_18scalar_constant_opIfEES3_EENS0_9assign_opIffEEEEvRT_RKT0_RKT1_NS0_9enable_ifIXntsr25evaluator_assume_aliasingISC_EE5valueEPvE4typeE, symObjAddr: 0x2FB88, symBinAddr: 0x100033E74, symSize: 0x38 }
  - { offsetInCU: 0x2DF78, offset: 0x2DF78, size: 0x8, addend: 0x0, symName: __ZN5Eigen8internal24call_assignment_no_aliasINS_6MatrixIfLin1ELin1ELi0ELi3ELi1EEENS_14CwiseNullaryOpINS0_18scalar_constant_opIfEES3_EENS0_9assign_opIffEEEEvRT_RKT0_RKT1_, symObjAddr: 0x2FBC0, symBinAddr: 0x100033EAC, symSize: 0x3C }
  - { offsetInCU: 0x2E046, offset: 0x2E046, size: 0x8, addend: 0x0, symName: __ZN5Eigen8internal18check_for_aliasingINS_6MatrixIfLin1ELin1ELi0ELi3ELi1EEENS_14CwiseNullaryOpINS0_18scalar_constant_opIfEES3_EEEEvRKT_RKT0_, symObjAddr: 0x2FC3C, symBinAddr: 0x100033F28, symSize: 0x60 }
  - { offsetInCU: 0x2E091, offset: 0x2E091, size: 0x8, addend: 0x0, symName: __ZN5Eigen8internal26call_dense_assignment_loopINS_6MatrixIfLin1ELin1ELi0ELi3ELi1EEEEEvRT_RKNS_14CwiseNullaryOpINS0_18scalar_constant_opINS4_6ScalarEEES4_EERKNS0_9assign_opIS8_S8_EE, symObjAddr: 0x2FC9C, symBinAddr: 0x100033F88, symSize: 0x6C }
  - { offsetInCU: 0x2E120, offset: 0x2E120, size: 0x8, addend: 0x0, symName: __ZN5Eigen8internal17resize_if_allowedINS_6MatrixIfLin1ELin1ELi0ELi3ELi1EEENS_14CwiseNullaryOpINS0_18scalar_constant_opIfEES3_EEffEEvRT_RKT0_RKNS0_9assign_opIT1_T2_EE, symObjAddr: 0x2FD1C, symBinAddr: 0x100034008, symSize: 0xF8 }
  - { offsetInCU: 0x2E1E8, offset: 0x2E1E8, size: 0x8, addend: 0x0, symName: __ZN5Eigen8internal28check_static_allocation_sizeIfLi576EEEvv, symObjAddr: 0x38738, symBinAddr: 0x10003CA24, symSize: 0x4 }
  - { offsetInCU: 0x2E216, offset: 0x2E216, size: 0x8, addend: 0x0, symName: __ZN5Eigen8internal15call_assignmentINS_6MatrixIfLi24ELi24ELi1ELi24ELi24EEENS_14CwiseNullaryOpINS0_18scalar_constant_opIfEES3_EEEEvRT_RKT0_, symObjAddr: 0x38BBC, symBinAddr: 0x10003CEA8, symSize: 0x50 }
  - { offsetInCU: 0x2E261, offset: 0x2E261, size: 0x8, addend: 0x0, symName: __ZN5Eigen8internal15call_assignmentINS_6MatrixIfLi24ELi24ELi1ELi24ELi24EEENS_14CwiseNullaryOpINS0_18scalar_constant_opIfEES3_EENS0_9assign_opIffEEEEvRT_RKT0_RKT1_NS0_9enable_ifIXntsr25evaluator_assume_aliasingISC_EE5valueEPvE4typeE, symObjAddr: 0x38C20, symBinAddr: 0x10003CF0C, symSize: 0x38 }
  - { offsetInCU: 0x2E2CF, offset: 0x2E2CF, size: 0x8, addend: 0x0, symName: __ZN5Eigen8internal24call_assignment_no_aliasINS_6MatrixIfLi24ELi24ELi1ELi24ELi24EEENS_14CwiseNullaryOpINS0_18scalar_constant_opIfEES3_EENS0_9assign_opIffEEEEvRT_RKT0_RKT1_, symObjAddr: 0x38C58, symBinAddr: 0x10003CF44, symSize: 0x3C }
  - { offsetInCU: 0x2E39D, offset: 0x2E39D, size: 0x8, addend: 0x0, symName: __ZN5Eigen8internal18check_for_aliasingINS_6MatrixIfLi24ELi24ELi1ELi24ELi24EEENS_14CwiseNullaryOpINS0_18scalar_constant_opIfEES3_EEEEvRKT_RKT0_, symObjAddr: 0x38CD4, symBinAddr: 0x10003CFC0, symSize: 0x60 }
  - { offsetInCU: 0x2E3E8, offset: 0x2E3E8, size: 0x8, addend: 0x0, symName: __ZN5Eigen8internal26call_dense_assignment_loopINS_6MatrixIfLi24ELi24ELi1ELi24ELi24EEEEEvRT_RKNS_14CwiseNullaryOpINS0_18scalar_constant_opINS4_6ScalarEEES4_EERKNS0_9assign_opIS8_S8_EE, symObjAddr: 0x38D34, symBinAddr: 0x10003D020, symSize: 0x6C }
  - { offsetInCU: 0x2E477, offset: 0x2E477, size: 0x8, addend: 0x0, symName: __ZN5Eigen8internal17resize_if_allowedINS_6MatrixIfLi24ELi24ELi1ELi24ELi24EEENS_14CwiseNullaryOpINS0_18scalar_constant_opIfEES3_EEffEEvRT_RKT0_RKNS0_9assign_opIT1_T2_EE, symObjAddr: 0x38DB4, symBinAddr: 0x10003D0A0, symSize: 0xF8 }
  - { offsetInCU: 0x2E4FD, offset: 0x2E4FD, size: 0x8, addend: 0x0, symName: __ZN5Eigen8internal15call_assignmentINS_8DiagonalINS_6MatrixIfLi24ELi24ELi1ELi24ELi24EEELi0EEENS_14CwiseNullaryOpINS0_18scalar_constant_opIfEENS3_IfLi24ELi1ELi0ELi24ELi1EEEEEEEvRT_RKT0_, symObjAddr: 0x39754, symBinAddr: 0x10003DA40, symSize: 0x50 }
  - { offsetInCU: 0x2E548, offset: 0x2E548, size: 0x8, addend: 0x0, symName: __ZN5Eigen8internal15call_assignmentINS_8DiagonalINS_6MatrixIfLi24ELi24ELi1ELi24ELi24EEELi0EEENS_14CwiseNullaryOpINS0_18scalar_constant_opIfEENS3_IfLi24ELi1ELi0ELi24ELi1EEEEENS0_9assign_opIffEEEEvRT_RKT0_RKT1_NS0_9enable_ifIXntsr25evaluator_assume_aliasingISF_EE5valueEPvE4typeE, symObjAddr: 0x397A4, symBinAddr: 0x10003DA90, symSize: 0x38 }
  - { offsetInCU: 0x2E5B6, offset: 0x2E5B6, size: 0x8, addend: 0x0, symName: __ZN5Eigen8internal24call_assignment_no_aliasINS_8DiagonalINS_6MatrixIfLi24ELi24ELi1ELi24ELi24EEELi0EEENS_14CwiseNullaryOpINS0_18scalar_constant_opIfEENS3_IfLi24ELi1ELi0ELi24ELi1EEEEENS0_9assign_opIffEEEEvRT_RKT0_RKT1_, symObjAddr: 0x397DC, symBinAddr: 0x10003DAC8, symSize: 0x3C }
  - { offsetInCU: 0x2E684, offset: 0x2E684, size: 0x8, addend: 0x0, symName: __ZN5Eigen8internal18check_for_aliasingINS_8DiagonalINS_6MatrixIfLi24ELi24ELi1ELi24ELi24EEELi0EEENS_14CwiseNullaryOpINS0_18scalar_constant_opIfEENS3_IfLi24ELi1ELi0ELi24ELi1EEEEEEEvRKT_RKT0_, symObjAddr: 0x39858, symBinAddr: 0x10003DB44, symSize: 0x14 }
  - { offsetInCU: 0x2E6CF, offset: 0x2E6CF, size: 0x8, addend: 0x0, symName: __ZN5Eigen8internal26call_dense_assignment_loopINS_8DiagonalINS_6MatrixIfLi24ELi24ELi1ELi24ELi24EEELi0EEENS_14CwiseNullaryOpINS0_18scalar_constant_opIfEENS3_IfLi24ELi1ELi0ELi24ELi1EEEEENS0_9assign_opIffEEEEvRT_RKT0_RKT1_, symObjAddr: 0x3986C, symBinAddr: 0x10003DB58, symSize: 0xE0 }
  - { offsetInCU: 0x2E86E, offset: 0x2E86E, size: 0x8, addend: 0x0, symName: __ZN5Eigen8internal17resize_if_allowedINS_8DiagonalINS_6MatrixIfLi24ELi24ELi1ELi24ELi24EEELi0EEENS_14CwiseNullaryOpINS0_18scalar_constant_opIfEENS3_IfLi24ELi1ELi0ELi24ELi1EEEEEffEEvRT_RKT0_RKNS0_9assign_opIT1_T2_EE, symObjAddr: 0x39980, symBinAddr: 0x10003DC6C, symSize: 0xF8 }
  - { offsetInCU: 0x2F37F, offset: 0x2F37F, size: 0x8, addend: 0x0, symName: __ZN5Eigen8internal10ptransposeERNS0_11PacketBlockI19__simd128_float32_tLi4EEE, symObjAddr: 0x3A808, symBinAddr: 0x10003EAF4, symSize: 0x1D8 }
  - { offsetInCU: 0x2F488, offset: 0x2F488, size: 0x8, addend: 0x0, symName: __ZN5Eigen8internal7pstoreuIf19__simd128_float32_tEEvPT_RKT0_, symObjAddr: 0x3A9E0, symBinAddr: 0x10003ECCC, symSize: 0x2C }
  - { offsetInCU: 0x2F526, offset: 0x2F526, size: 0x8, addend: 0x0, symName: __ZN5Eigen8internal10ptransposeERNS0_11PacketBlockI18__simd64_float32_tLi2EEE, symObjAddr: 0x3AA38, symBinAddr: 0x10003ED24, symSize: 0x84 }
  - { offsetInCU: 0x2F59C, offset: 0x2F59C, size: 0x8, addend: 0x0, symName: __ZN5Eigen8internal6pstoreIf18__simd64_float32_tEEvPT_RKT0_, symObjAddr: 0x3AABC, symBinAddr: 0x10003EDA8, symSize: 0x2C }
  - { offsetInCU: 0x2F604, offset: 0x2F604, size: 0x8, addend: 0x0, symName: __ZN5Eigen8internal8prefetchIfEEvPKT_, symObjAddr: 0x3AB0C, symBinAddr: 0x10003EDF8, symSize: 0x18 }
  - { offsetInCU: 0x2FFE7, offset: 0x2FFE7, size: 0x8, addend: 0x0, symName: __ZN5Eigen8internal4paddI18__simd64_float32_tEET_RKS3_S5_, symObjAddr: 0x3D558, symBinAddr: 0x100041844, symSize: 0x40 }
  - { offsetInCU: 0x3002D, offset: 0x3002D, size: 0x8, addend: 0x0, symName: __ZN5Eigen8internal5ploadI18__simd64_float32_tEET_PKNS0_15unpacket_traitsIS3_E4typeE, symObjAddr: 0x3D8B0, symBinAddr: 0x100041B9C, symSize: 0x28 }
  - { offsetInCU: 0x30081, offset: 0x30081, size: 0x8, addend: 0x0, symName: __ZN5Eigen8internal11pbroadcast4I18__simd64_float32_tEEvPKNS0_15unpacket_traitsIT_E4typeERS4_S9_S9_S9_, symObjAddr: 0x3D8D8, symBinAddr: 0x100041BC4, symSize: 0x78 }
  - { offsetInCU: 0x300F0, offset: 0x300F0, size: 0x8, addend: 0x0, symName: __ZN5Eigen8internal6pload1I18__simd64_float32_tEET_PKNS0_15unpacket_traitsIS3_E4typeE, symObjAddr: 0x3D950, symBinAddr: 0x100041C3C, symSize: 0x24 }
  - { offsetInCU: 0x30127, offset: 0x30127, size: 0x8, addend: 0x0, symName: __ZN5Eigen8internal22ignore_unused_variableI18__simd64_float32_tEEvRKT_, symObjAddr: 0x3D9FC, symBinAddr: 0x100041CE8, symSize: 0x10 }
  - { offsetInCU: 0x30156, offset: 0x30156, size: 0x8, addend: 0x0, symName: __ZN5Eigen8internal7pgatherIf19__simd128_float32_tEET0_PKT_l, symObjAddr: 0x3DAEC, symBinAddr: 0x100041DD8, symSize: 0xE8 }
  - { offsetInCU: 0x3025D, offset: 0x3025D, size: 0x8, addend: 0x0, symName: __ZN5Eigen8internal8pscatterIf19__simd128_float32_tEEvPT_RKT0_l, symObjAddr: 0x3DBD4, symBinAddr: 0x100041EC0, symSize: 0xB0 }
  - { offsetInCU: 0x3032E, offset: 0x3032E, size: 0x8, addend: 0x0, symName: __ZN5Eigen8internal5pmaddIfEET_RKS2_S4_S4_, symObjAddr: 0x3DC84, symBinAddr: 0x100041F70, symSize: 0x40 }
  - { offsetInCU: 0x30383, offset: 0x30383, size: 0x8, addend: 0x0, symName: __ZN5Eigen8internal4paddIfEET_RKS2_S4_, symObjAddr: 0x3DCC4, symBinAddr: 0x100041FB0, symSize: 0x28 }
  - { offsetInCU: 0x303C6, offset: 0x303C6, size: 0x8, addend: 0x0, symName: __ZN5Eigen8internal15call_assignmentINS_5BlockINS_6MatrixIfLin1ELin1ELi0ELi3ELi1EEELin1ELin1ELb0EEENS2_IKNS_13CwiseBinaryOpINS0_17scalar_product_opIffEEKNS_14CwiseNullaryOpINS0_18scalar_constant_opIfEEKS4_EEKNS2_INS3_IfLi3ELi1ELi0ELi3ELi1EEELin1ELin1ELb0EEEEELin1ELin1ELb0EEENS0_13sub_assign_opIffEEEEvRT_RKT0_RKT1_NS0_9enable_ifIXntsr25evaluator_assume_aliasingISP_EE5valueEPvE4typeE, symObjAddr: 0x3EB58, symBinAddr: 0x100042E44, symSize: 0x38 }
  - { offsetInCU: 0x30434, offset: 0x30434, size: 0x8, addend: 0x0, symName: __ZN5Eigen8internal24call_assignment_no_aliasINS_5BlockINS_6MatrixIfLin1ELin1ELi0ELi3ELi1EEELin1ELin1ELb0EEENS2_IKNS_13CwiseBinaryOpINS0_17scalar_product_opIffEEKNS_14CwiseNullaryOpINS0_18scalar_constant_opIfEEKS4_EEKNS2_INS3_IfLi3ELi1ELi0ELi3ELi1EEELin1ELin1ELb0EEEEELin1ELin1ELb0EEENS0_13sub_assign_opIffEEEEvRT_RKT0_RKT1_, symObjAddr: 0x3EBB8, symBinAddr: 0x100042EA4, symSize: 0x3C }
  - { offsetInCU: 0x30502, offset: 0x30502, size: 0x8, addend: 0x0, symName: __ZN5Eigen8internal18check_for_aliasingINS_5BlockINS_6MatrixIfLin1ELin1ELi0ELi3ELi1EEELin1ELin1ELb0EEENS2_IKNS_13CwiseBinaryOpINS0_17scalar_product_opIffEEKNS_14CwiseNullaryOpINS0_18scalar_constant_opIfEEKS4_EEKNS2_INS3_IfLi3ELi1ELi0ELi3ELi1EEELin1ELin1ELb0EEEEELin1ELin1ELb0EEEEEvRKT_RKT0_, symObjAddr: 0x3EC34, symBinAddr: 0x100042F20, symSize: 0x60 }
  - { offsetInCU: 0x3054D, offset: 0x3054D, size: 0x8, addend: 0x0, symName: __ZN5Eigen8internal26call_dense_assignment_loopINS_5BlockINS_6MatrixIfLin1ELin1ELi0ELi3ELi1EEELin1ELin1ELb0EEENS2_IKNS_13CwiseBinaryOpINS0_17scalar_product_opIffEEKNS_14CwiseNullaryOpINS0_18scalar_constant_opIfEEKS4_EEKNS2_INS3_IfLi3ELi1ELi0ELi3ELi1EEELin1ELin1ELb0EEEEELin1ELin1ELb0EEENS0_13sub_assign_opIffEEEEvRT_RKT0_RKT1_, symObjAddr: 0x3EC94, symBinAddr: 0x100042F80, symSize: 0xE0 }
  - { offsetInCU: 0x30CFC, offset: 0x30CFC, size: 0x8, addend: 0x0, symName: __ZN5Eigen8internal17resize_if_allowedINS_5BlockINS_6MatrixIfLin1ELin1ELi0ELi3ELi1EEELin1ELin1ELb0EEENS2_IKNS_13CwiseBinaryOpINS0_17scalar_product_opIffEEKNS_14CwiseNullaryOpINS0_18scalar_constant_opIfEEKS4_EEKNS2_INS3_IfLi3ELi1ELi0ELi3ELi1EEELin1ELin1ELb0EEEEELin1ELin1ELb0EEENS0_13sub_assign_opIffEEEEvRT_RKT0_RKT1_, symObjAddr: 0x3EE0C, symBinAddr: 0x1000430F8, symSize: 0xB4 }
  - { offsetInCU: 0x31069, offset: 0x31069, size: 0x8, addend: 0x0, symName: __ZN5Eigen8internal15call_assignmentINS_6MatrixIfLin1ELin1ELi0ELi3ELi1EEENS_7ProductINS_14TriangularViewINS2_IfLin1ELin1ELi1ELin1ELin1EEELj2EEES3_Li0EEEEEvRT_RKT0_, symObjAddr: 0x40614, symBinAddr: 0x100044900, symSize: 0x50 }
  - { offsetInCU: 0x310B4, offset: 0x310B4, size: 0x8, addend: 0x0, symName: __ZN5Eigen8internal15call_assignmentINS_6MatrixIfLin1ELin1ELi0ELi3ELi1EEENS_7ProductINS_14TriangularViewINS2_IfLin1ELin1ELi1ELin1ELin1EEELj2EEES3_Li0EEENS0_9assign_opIffEEEEvRT_RKT0_RKT1_NS0_9enable_ifIXsr25evaluator_assume_aliasingISD_EE5valueEPvE4typeE, symObjAddr: 0x40678, symBinAddr: 0x100044964, symSize: 0x74 }
  - { offsetInCU: 0x31131, offset: 0x31131, size: 0x8, addend: 0x0, symName: __ZN5Eigen8internal24call_assignment_no_aliasINS_6MatrixIfLin1ELin1ELi0ELi3ELi1EEENS2_IfLin1ELin1ELi0ELin1ELi1EEENS0_9assign_opIffEEEEvRT_RKT0_RKT1_, symObjAddr: 0x40720, symBinAddr: 0x100044A0C, symSize: 0x3C }
  - { offsetInCU: 0x311AF, offset: 0x311AF, size: 0x8, addend: 0x0, symName: __ZN5Eigen8internal24call_assignment_no_aliasINS_6MatrixIfLin1ELin1ELi0ELin1ELi1EEENS_7ProductINS_14TriangularViewINS2_IfLin1ELin1ELi1ELin1ELin1EEELj2EEENS2_IfLin1ELin1ELi0ELi3ELi1EEELi0EEENS0_9assign_opIffEEEEvRT_RKT0_RKT1_, symObjAddr: 0x40970, symBinAddr: 0x100044C5C, symSize: 0x3C }
  - { offsetInCU: 0x3137C, offset: 0x3137C, size: 0x8, addend: 0x0, symName: __ZN5Eigen8internal15call_assignmentINS_6MatrixIfLin1ELin1ELi0ELin1ELi1EEENS_14CwiseNullaryOpINS0_18scalar_constant_opIfEES3_EEEEvRT_RKT0_, symObjAddr: 0x411B4, symBinAddr: 0x1000454A0, symSize: 0x50 }
  - { offsetInCU: 0x313C7, offset: 0x313C7, size: 0x8, addend: 0x0, symName: __ZN5Eigen8internal15call_assignmentINS_6MatrixIfLin1ELin1ELi0ELin1ELi1EEENS_14CwiseNullaryOpINS0_18scalar_constant_opIfEES3_EENS0_9assign_opIffEEEEvRT_RKT0_RKT1_NS0_9enable_ifIXntsr25evaluator_assume_aliasingISC_EE5valueEPvE4typeE, symObjAddr: 0x41218, symBinAddr: 0x100045504, symSize: 0x38 }
  - { offsetInCU: 0x31435, offset: 0x31435, size: 0x8, addend: 0x0, symName: __ZN5Eigen8internal24call_assignment_no_aliasINS_6MatrixIfLin1ELin1ELi0ELin1ELi1EEENS_14CwiseNullaryOpINS0_18scalar_constant_opIfEES3_EENS0_9assign_opIffEEEEvRT_RKT0_RKT1_, symObjAddr: 0x41250, symBinAddr: 0x10004553C, symSize: 0x3C }
  - { offsetInCU: 0x31503, offset: 0x31503, size: 0x8, addend: 0x0, symName: __ZN5Eigen8internal18check_for_aliasingINS_6MatrixIfLin1ELin1ELi0ELin1ELi1EEENS_14CwiseNullaryOpINS0_18scalar_constant_opIfEES3_EEEEvRKT_RKT0_, symObjAddr: 0x412CC, symBinAddr: 0x1000455B8, symSize: 0x60 }
  - { offsetInCU: 0x3154E, offset: 0x3154E, size: 0x8, addend: 0x0, symName: __ZN5Eigen8internal26call_dense_assignment_loopINS_6MatrixIfLin1ELin1ELi0ELin1ELi1EEEEEvRT_RKNS_14CwiseNullaryOpINS0_18scalar_constant_opINS4_6ScalarEEES4_EERKNS0_9assign_opIS8_S8_EE, symObjAddr: 0x4132C, symBinAddr: 0x100045618, symSize: 0x6C }
  - { offsetInCU: 0x315DD, offset: 0x315DD, size: 0x8, addend: 0x0, symName: __ZN5Eigen8internal17resize_if_allowedINS_6MatrixIfLin1ELin1ELi0ELin1ELi1EEENS_14CwiseNullaryOpINS0_18scalar_constant_opIfEES3_EEffEEvRT_RKT0_RKNS0_9assign_opIT1_T2_EE, symObjAddr: 0x413AC, symBinAddr: 0x100045698, symSize: 0xF8 }
  - { offsetInCU: 0x317E3, offset: 0x317E3, size: 0x8, addend: 0x0, symName: __ZN5Eigen8internal27computeProductBlockingSizesIffLi4ElEEvRT2_S3_S3_S2_, symObjAddr: 0x42DFC, symBinAddr: 0x1000470E8, symSize: 0x58 }
  - { offsetInCU: 0x3185F, offset: 0x3185F, size: 0x8, addend: 0x0, symName: __ZN5Eigen8internal24useSpecificBlockingSizesIlEEbRT_S3_S3_, symObjAddr: 0x42E54, symBinAddr: 0x100047140, symSize: 0x44 }
  - { offsetInCU: 0x318B4, offset: 0x318B4, size: 0x8, addend: 0x0, symName: __ZN5Eigen8internal15queryCacheSizesERiS1_S1_, symObjAddr: 0x438AC, symBinAddr: 0x100047B98, symSize: 0x34 }
  - { offsetInCU: 0x318FC, offset: 0x318FC, size: 0x8, addend: 0x0, symName: __ZN5Eigen8internal27manage_caching_sizes_helperEll, symObjAddr: 0x438E0, symBinAddr: 0x100047BCC, symSize: 0x44 }
  - { offsetInCU: 0x31936, offset: 0x31936, size: 0x8, addend: 0x0, symName: __ZN5Eigen8internal14aligned_deleteIfEEvPT_m, symObjAddr: 0x439AC, symBinAddr: 0x100047C98, symSize: 0x34 }
  - { offsetInCU: 0x31978, offset: 0x31978, size: 0x8, addend: 0x0, symName: __ZN5Eigen8internal26destruct_elements_of_arrayIfEEvPT_m, symObjAddr: 0x439E0, symBinAddr: 0x100047CCC, symSize: 0x54 }
  - { offsetInCU: 0x31A0A, offset: 0x31A0A, size: 0x8, addend: 0x0, symName: __ZN5Eigen8internal18check_for_aliasingINS_6MatrixIfLin1ELin1ELi0ELi3ELi1EEENS2_IfLin1ELin1ELi0ELin1ELi1EEEEEvRKT_RKT0_, symObjAddr: 0x43AE4, symBinAddr: 0x100047DD0, symSize: 0x60 }
  - { offsetInCU: 0x31A55, offset: 0x31A55, size: 0x8, addend: 0x0, symName: __ZN5Eigen8internal26call_dense_assignment_loopINS_6MatrixIfLin1ELin1ELi0ELi3ELi1EEENS2_IfLin1ELin1ELi0ELin1ELi1EEENS0_9assign_opIffEEEEvRT_RKT0_RKT1_, symObjAddr: 0x43B44, symBinAddr: 0x100047E30, symSize: 0xE0 }
  - { offsetInCU: 0x31B47, offset: 0x31B47, size: 0x8, addend: 0x0, symName: __ZN5Eigen8internal17resize_if_allowedINS_6MatrixIfLin1ELin1ELi0ELi3ELi1EEENS2_IfLin1ELin1ELi0ELin1ELi1EEEffEEvRT_RKT0_RKNS0_9assign_opIT1_T2_EE, symObjAddr: 0x43C6C, symBinAddr: 0x100047F58, symSize: 0xF8 }
  - { offsetInCU: 0x31BCD, offset: 0x31BCD, size: 0x8, addend: 0x0, symName: __ZN5Eigen8internal15call_assignmentINS_6MatrixIfLin1ELin1ELi0ELi3ELi1EEENS_7ProductINS_14TriangularViewIKNS_9TransposeIKNS2_IfLin1ELin1ELi1ELin1ELin1EEEEELj1EEES3_Li0EEEEEvRT_RKT0_, symObjAddr: 0x448C4, symBinAddr: 0x100048BB0, symSize: 0x50 }
  - { offsetInCU: 0x31C18, offset: 0x31C18, size: 0x8, addend: 0x0, symName: __ZN5Eigen8internal15call_assignmentINS_6MatrixIfLin1ELin1ELi0ELi3ELi1EEENS_7ProductINS_14TriangularViewIKNS_9TransposeIKNS2_IfLin1ELin1ELi1ELin1ELin1EEEEELj1EEES3_Li0EEENS0_9assign_opIffEEEEvRT_RKT0_RKT1_NS0_9enable_ifIXsr25evaluator_assume_aliasingISH_EE5valueEPvE4typeE, symObjAddr: 0x44928, symBinAddr: 0x100048C14, symSize: 0x74 }
  - { offsetInCU: 0x31C95, offset: 0x31C95, size: 0x8, addend: 0x0, symName: __ZN5Eigen8internal24call_assignment_no_aliasINS_6MatrixIfLin1ELin1ELi0ELin1ELi1EEENS_7ProductINS_14TriangularViewIKNS_9TransposeIKNS2_IfLin1ELin1ELi1ELin1ELin1EEEEELj1EEENS2_IfLin1ELin1ELi0ELi3ELi1EEELi0EEENS0_9assign_opIffEEEEvRT_RKT0_RKT1_, symObjAddr: 0x44AC4, symBinAddr: 0x100048DB0, symSize: 0x3C }
  - { offsetInCU: 0x31ED1, offset: 0x31ED1, size: 0x8, addend: 0x0, symName: __ZN5Eigen8internal15call_assignmentINS_6MatrixIfLi24ELi24ELi0ELi24ELi24EEENS_14CwiseNullaryOpINS0_18scalar_constant_opIfEES3_EEEEvRT_RKT0_, symObjAddr: 0x471A4, symBinAddr: 0x10004B490, symSize: 0x50 }
  - { offsetInCU: 0x31F1C, offset: 0x31F1C, size: 0x8, addend: 0x0, symName: __ZN5Eigen8internal15call_assignmentINS_6MatrixIfLi24ELi24ELi0ELi24ELi24EEENS_14CwiseNullaryOpINS0_18scalar_constant_opIfEES3_EENS0_9assign_opIffEEEEvRT_RKT0_RKT1_NS0_9enable_ifIXntsr25evaluator_assume_aliasingISC_EE5valueEPvE4typeE, symObjAddr: 0x47208, symBinAddr: 0x10004B4F4, symSize: 0x38 }
  - { offsetInCU: 0x31F8A, offset: 0x31F8A, size: 0x8, addend: 0x0, symName: __ZN5Eigen8internal24call_assignment_no_aliasINS_6MatrixIfLi24ELi24ELi0ELi24ELi24EEENS_14CwiseNullaryOpINS0_18scalar_constant_opIfEES3_EENS0_9assign_opIffEEEEvRT_RKT0_RKT1_, symObjAddr: 0x47240, symBinAddr: 0x10004B52C, symSize: 0x3C }
  - { offsetInCU: 0x32058, offset: 0x32058, size: 0x8, addend: 0x0, symName: __ZN5Eigen8internal18check_for_aliasingINS_6MatrixIfLi24ELi24ELi0ELi24ELi24EEENS_14CwiseNullaryOpINS0_18scalar_constant_opIfEES3_EEEEvRKT_RKT0_, symObjAddr: 0x472BC, symBinAddr: 0x10004B5A8, symSize: 0x60 }
  - { offsetInCU: 0x320A3, offset: 0x320A3, size: 0x8, addend: 0x0, symName: __ZN5Eigen8internal26call_dense_assignment_loopINS_6MatrixIfLi24ELi24ELi0ELi24ELi24EEEEEvRT_RKNS_14CwiseNullaryOpINS0_18scalar_constant_opINS4_6ScalarEEES4_EERKNS0_9assign_opIS8_S8_EE, symObjAddr: 0x4731C, symBinAddr: 0x10004B608, symSize: 0x6C }
  - { offsetInCU: 0x32132, offset: 0x32132, size: 0x8, addend: 0x0, symName: __ZN5Eigen8internal17resize_if_allowedINS_6MatrixIfLi24ELi24ELi0ELi24ELi24EEENS_14CwiseNullaryOpINS0_18scalar_constant_opIfEES3_EEffEEvRT_RKT0_RKNS0_9assign_opIT1_T2_EE, symObjAddr: 0x4739C, symBinAddr: 0x10004B688, symSize: 0xF8 }
  - { offsetInCU: 0x321B8, offset: 0x321B8, size: 0x8, addend: 0x0, symName: __ZN5Eigen8internal15call_assignmentINS_8DiagonalINS_6MatrixIfLi24ELi24ELi0ELi24ELi24EEELi0EEENS_14CwiseNullaryOpINS0_18scalar_constant_opIfEENS3_IfLi24ELi1ELi0ELi24ELi1EEEEEEEvRT_RKT0_, symObjAddr: 0x47AF4, symBinAddr: 0x10004BDE0, symSize: 0x50 }
  - { offsetInCU: 0x32203, offset: 0x32203, size: 0x8, addend: 0x0, symName: __ZN5Eigen8internal15call_assignmentINS_8DiagonalINS_6MatrixIfLi24ELi24ELi0ELi24ELi24EEELi0EEENS_14CwiseNullaryOpINS0_18scalar_constant_opIfEENS3_IfLi24ELi1ELi0ELi24ELi1EEEEENS0_9assign_opIffEEEEvRT_RKT0_RKT1_NS0_9enable_ifIXntsr25evaluator_assume_aliasingISF_EE5valueEPvE4typeE, symObjAddr: 0x47B44, symBinAddr: 0x10004BE30, symSize: 0x38 }
  - { offsetInCU: 0x32271, offset: 0x32271, size: 0x8, addend: 0x0, symName: __ZN5Eigen8internal24call_assignment_no_aliasINS_8DiagonalINS_6MatrixIfLi24ELi24ELi0ELi24ELi24EEELi0EEENS_14CwiseNullaryOpINS0_18scalar_constant_opIfEENS3_IfLi24ELi1ELi0ELi24ELi1EEEEENS0_9assign_opIffEEEEvRT_RKT0_RKT1_, symObjAddr: 0x47B7C, symBinAddr: 0x10004BE68, symSize: 0x3C }
  - { offsetInCU: 0x3233F, offset: 0x3233F, size: 0x8, addend: 0x0, symName: __ZN5Eigen8internal18check_for_aliasingINS_8DiagonalINS_6MatrixIfLi24ELi24ELi0ELi24ELi24EEELi0EEENS_14CwiseNullaryOpINS0_18scalar_constant_opIfEENS3_IfLi24ELi1ELi0ELi24ELi1EEEEEEEvRKT_RKT0_, symObjAddr: 0x47BF8, symBinAddr: 0x10004BEE4, symSize: 0x14 }
  - { offsetInCU: 0x3238A, offset: 0x3238A, size: 0x8, addend: 0x0, symName: __ZN5Eigen8internal26call_dense_assignment_loopINS_8DiagonalINS_6MatrixIfLi24ELi24ELi0ELi24ELi24EEELi0EEENS_14CwiseNullaryOpINS0_18scalar_constant_opIfEENS3_IfLi24ELi1ELi0ELi24ELi1EEEEENS0_9assign_opIffEEEEvRT_RKT0_RKT1_, symObjAddr: 0x47C0C, symBinAddr: 0x10004BEF8, symSize: 0xE0 }
  - { offsetInCU: 0x3243E, offset: 0x3243E, size: 0x8, addend: 0x0, symName: __ZN5Eigen8internal17resize_if_allowedINS_8DiagonalINS_6MatrixIfLi24ELi24ELi0ELi24ELi24EEELi0EEENS_14CwiseNullaryOpINS0_18scalar_constant_opIfEENS3_IfLi24ELi1ELi0ELi24ELi1EEEEEffEEvRT_RKT0_RKNS0_9assign_opIT1_T2_EE, symObjAddr: 0x47CEC, symBinAddr: 0x10004BFD8, symSize: 0xF8 }
  - { offsetInCU: 0x32E57, offset: 0x32E57, size: 0x8, addend: 0x0, symName: __ZN5Eigen8internal24call_assignment_no_aliasINS_5BlockINS_6MatrixIfLi3ELi1ELi0ELi3ELi1EEELin1ELin1ELb0EEENS_7ProductINS_14TriangularViewIKNS2_INS3_IfLi3ELi3ELi0ELi3ELi3EEELin1ELin1ELb0EEELj5EEENS3_IfLin1ELin1ELi0ELi3ELi1EEELi0EEENS0_13sub_assign_opIffEEEEvRT_RKT0_RKT1_, symObjAddr: 0x48BF0, symBinAddr: 0x10004CEDC, symSize: 0x3C }
  - { offsetInCU: 0x33024, offset: 0x33024, size: 0x8, addend: 0x0, symName: __ZN5Eigen8internal15call_assignmentINS_5BlockINS2_INS_6MatrixIfLi3ELi1ELi0ELi3ELi1EEELin1ELin1ELb0EEELin1ELin1ELb0EEENS2_IKNS_13CwiseBinaryOpINS0_17scalar_product_opIffEEKNS_14CwiseNullaryOpINS0_18scalar_constant_opIfEEKNS3_IfLin1ELin1ELi0ELi3ELi1EEEEESE_EELin1ELin1ELb0EEENS0_13sub_assign_opIffEEEEvRT_RKT0_RKT1_NS0_9enable_ifIXntsr25evaluator_assume_aliasingISO_EE5valueEPvE4typeE, symObjAddr: 0x4AFF8, symBinAddr: 0x10004F2E4, symSize: 0x38 }
  - { offsetInCU: 0x33092, offset: 0x33092, size: 0x8, addend: 0x0, symName: __ZN5Eigen8internal24call_assignment_no_aliasINS_5BlockINS2_INS_6MatrixIfLi3ELi1ELi0ELi3ELi1EEELin1ELin1ELb0EEELin1ELin1ELb0EEENS2_IKNS_13CwiseBinaryOpINS0_17scalar_product_opIffEEKNS_14CwiseNullaryOpINS0_18scalar_constant_opIfEEKNS3_IfLin1ELin1ELi0ELi3ELi1EEEEESE_EELin1ELin1ELb0EEENS0_13sub_assign_opIffEEEEvRT_RKT0_RKT1_, symObjAddr: 0x4B058, symBinAddr: 0x10004F344, symSize: 0x3C }
  - { offsetInCU: 0x33160, offset: 0x33160, size: 0x8, addend: 0x0, symName: __ZN5Eigen8internal18check_for_aliasingINS_5BlockINS2_INS_6MatrixIfLi3ELi1ELi0ELi3ELi1EEELin1ELin1ELb0EEELin1ELin1ELb0EEENS2_IKNS_13CwiseBinaryOpINS0_17scalar_product_opIffEEKNS_14CwiseNullaryOpINS0_18scalar_constant_opIfEEKNS3_IfLin1ELin1ELi0ELi3ELi1EEEEESE_EELin1ELin1ELb0EEEEEvRKT_RKT0_, symObjAddr: 0x4B0D4, symBinAddr: 0x10004F3C0, symSize: 0x60 }
  - { offsetInCU: 0x331AB, offset: 0x331AB, size: 0x8, addend: 0x0, symName: __ZN5Eigen8internal26call_dense_assignment_loopINS_5BlockINS2_INS_6MatrixIfLi3ELi1ELi0ELi3ELi1EEELin1ELin1ELb0EEELin1ELin1ELb0EEENS2_IKNS_13CwiseBinaryOpINS0_17scalar_product_opIffEEKNS_14CwiseNullaryOpINS0_18scalar_constant_opIfEEKNS3_IfLin1ELin1ELi0ELi3ELi1EEEEESE_EELin1ELin1ELb0EEENS0_13sub_assign_opIffEEEEvRT_RKT0_RKT1_, symObjAddr: 0x4B134, symBinAddr: 0x10004F420, symSize: 0xE0 }
  - { offsetInCU: 0x33778, offset: 0x33778, size: 0x8, addend: 0x0, symName: __ZN5Eigen8internal17resize_if_allowedINS_5BlockINS2_INS_6MatrixIfLi3ELi1ELi0ELi3ELi1EEELin1ELin1ELb0EEELin1ELin1ELb0EEENS2_IKNS_13CwiseBinaryOpINS0_17scalar_product_opIffEEKNS_14CwiseNullaryOpINS0_18scalar_constant_opIfEEKNS3_IfLin1ELin1ELi0ELi3ELi1EEEEESE_EELin1ELin1ELb0EEENS0_13sub_assign_opIffEEEEvRT_RKT0_RKT1_, symObjAddr: 0x4B2AC, symBinAddr: 0x10004F598, symSize: 0xB4 }
  - { offsetInCU: 0x33AE5, offset: 0x33AE5, size: 0x8, addend: 0x0, symName: __ZN5Eigen8internal15call_assignmentINS_5BlockINS_6MatrixIfLi3ELi1ELi0ELi3ELi1EEELin1ELin1ELb0EEENS_14CwiseNullaryOpINS0_18scalar_constant_opIfEENS3_IfLin1ELin1ELi0ELi3ELi1EEEEENS0_13mul_assign_opIffEEEEvRT_RKT0_RKT1_NS0_9enable_ifIXntsr25evaluator_assume_aliasingISF_EE5valueEPvE4typeE, symObjAddr: 0x4CDC4, symBinAddr: 0x1000510B0, symSize: 0x38 }
  - { offsetInCU: 0x33B53, offset: 0x33B53, size: 0x8, addend: 0x0, symName: __ZN5Eigen8internal24call_assignment_no_aliasINS_5BlockINS_6MatrixIfLi3ELi1ELi0ELi3ELi1EEELin1ELin1ELb0EEENS_14CwiseNullaryOpINS0_18scalar_constant_opIfEENS3_IfLin1ELin1ELi0ELi3ELi1EEEEENS0_13mul_assign_opIffEEEEvRT_RKT0_RKT1_, symObjAddr: 0x4CDFC, symBinAddr: 0x1000510E8, symSize: 0x3C }
  - { offsetInCU: 0x33C21, offset: 0x33C21, size: 0x8, addend: 0x0, symName: __ZN5Eigen8internal18check_for_aliasingINS_5BlockINS_6MatrixIfLi3ELi1ELi0ELi3ELi1EEELin1ELin1ELb0EEENS_14CwiseNullaryOpINS0_18scalar_constant_opIfEENS3_IfLin1ELin1ELi0ELi3ELi1EEEEEEEvRKT_RKT0_, symObjAddr: 0x4CE78, symBinAddr: 0x100051164, symSize: 0x60 }
  - { offsetInCU: 0x33C6C, offset: 0x33C6C, size: 0x8, addend: 0x0, symName: __ZN5Eigen8internal26call_dense_assignment_loopINS_5BlockINS_6MatrixIfLi3ELi1ELi0ELi3ELi1EEELin1ELin1ELb0EEENS_14CwiseNullaryOpINS0_18scalar_constant_opIfEENS3_IfLin1ELin1ELi0ELi3ELi1EEEEENS0_13mul_assign_opIffEEEEvRT_RKT0_RKT1_, symObjAddr: 0x4CED8, symBinAddr: 0x1000511C4, symSize: 0xE0 }
  - { offsetInCU: 0x33E4E, offset: 0x33E4E, size: 0x8, addend: 0x0, symName: __ZN5Eigen8internal17resize_if_allowedINS_5BlockINS_6MatrixIfLi3ELi1ELi0ELi3ELi1EEELin1ELin1ELb0EEENS_14CwiseNullaryOpINS0_18scalar_constant_opIfEENS3_IfLin1ELin1ELi0ELi3ELi1EEEEENS0_13mul_assign_opIffEEEEvRT_RKT0_RKT1_, symObjAddr: 0x4D000, symBinAddr: 0x1000512EC, symSize: 0xB4 }
  - { offsetInCU: 0x340FF, offset: 0x340FF, size: 0x8, addend: 0x0, symName: __ZN5Eigen8internal24call_assignment_no_aliasINS_3MapINS_6MatrixIfLi1ELin1ELi1ELi1ELi1EEELi0ENS_6StrideILi0ELi0EEEEENS_7ProductINS_9TransposeIKNS_5BlockIKNS3_IfLi3ELi3ELi0ELi3ELi3EEELin1ELi1ELb0EEEEENSA_INSA_INS3_IfLi3ELi1ELi0ELi3ELi1EEELin1ELin1ELb0EEELin1ELin1ELb0EEELi0EEENS0_9assign_opIffEEEEvRT_RKT0_RKT1_, symObjAddr: 0x4DB78, symBinAddr: 0x100051E64, symSize: 0x3C }
  - { offsetInCU: 0x34234, offset: 0x34234, size: 0x8, addend: 0x0, symName: __ZN5Eigen8internal24call_assignment_no_aliasINS_3MapINS_6MatrixIfLi1ELin1ELi1ELi1ELi1EEELi0ENS_6StrideILi0ELi0EEEEENS_7ProductINS_9TransposeIKNS_5BlockIKNS3_IfLi3ELi3ELi0ELi3ELi3EEELin1ELi1ELb0EEEEENSA_INSA_INS3_IfLi3ELi1ELi0ELi3ELi1EEELin1ELin1ELb0EEELin1ELin1ELb0EEELi1EEENS0_9assign_opIffEEEEvRT_RKT0_RKT1_, symObjAddr: 0x4DF10, symBinAddr: 0x1000521FC, symSize: 0x3C }
  - { offsetInCU: 0x3450E, offset: 0x3450E, size: 0x8, addend: 0x0, symName: __ZN5Eigen8internal18check_for_aliasingINS_3MapINS_6MatrixIfLi1ELin1ELi1ELi1ELi1EEELi0ENS_6StrideILi0ELi0EEEEENS_7ProductINS_9TransposeIKNS_5BlockIKNS3_IfLi3ELi3ELi0ELi3ELi3EEELin1ELi1ELb0EEEEENSA_INSA_INS3_IfLi3ELi1ELi0ELi3ELi1EEELin1ELin1ELb0EEELin1ELin1ELb0EEELi1EEEEEvRKT_RKT0_, symObjAddr: 0x4DFD4, symBinAddr: 0x1000522C0, symSize: 0x14 }
  - { offsetInCU: 0x34559, offset: 0x34559, size: 0x8, addend: 0x0, symName: __ZN5Eigen8internal26call_dense_assignment_loopINS_3MapINS_6MatrixIfLi1ELin1ELi1ELi1ELi1EEELi0ENS_6StrideILi0ELi0EEEEENS_7ProductINS_9TransposeIKNS_5BlockIKNS3_IfLi3ELi3ELi0ELi3ELi3EEELin1ELi1ELb0EEEEENSA_INSA_INS3_IfLi3ELi1ELi0ELi3ELi1EEELin1ELin1ELb0EEELin1ELin1ELb0EEELi1EEENS0_9assign_opIffEEEEvRT_RKT0_RKT1_, symObjAddr: 0x4DFE8, symBinAddr: 0x1000522D4, symSize: 0xE8 }
  - { offsetInCU: 0x34980, offset: 0x34980, size: 0x8, addend: 0x0, symName: __ZN5Eigen8internal17resize_if_allowedINS_3MapINS_6MatrixIfLi1ELin1ELi1ELi1ELi1EEELi0ENS_6StrideILi0ELi0EEEEENS_7ProductINS_9TransposeIKNS_5BlockIKNS3_IfLi3ELi3ELi0ELi3ELi3EEELin1ELi1ELb0EEEEENSA_INSA_INS3_IfLi3ELi1ELi0ELi3ELi1EEELin1ELin1ELb0EEELin1ELin1ELb0EEELi1EEEffEEvRT_RKT0_RKNS0_9assign_opIT1_T2_EE, symObjAddr: 0x4E104, symBinAddr: 0x1000523F0, symSize: 0xF8 }
  - { offsetInCU: 0x3533D, offset: 0x3533D, size: 0x8, addend: 0x0, symName: __ZN5Eigen8internalL21first_default_alignedINS_13CwiseBinaryOpINS0_17scalar_product_opIffEEKNS_9TransposeIKNS_5BlockIKNS5_IKNS6_IKNS_6MatrixIfLi3ELi3ELi0ELi3ELi3EEELin1ELi1ELb0EEEEELi1ELin1ELb1EEEEEKNS6_IKNS6_INS6_INS7_IfLi3ELi1ELi0ELi3ELi1EEELin1ELin1ELb0EEELin1ELin1ELb0EEELin1ELi1ELb1EEEEEEElRKNS_9DenseBaseIT_EE, symObjAddr: 0x50D74, symBinAddr: 0x100055060, symSize: 0x24 }
  - { offsetInCU: 0x35374, offset: 0x35374, size: 0x8, addend: 0x0, symName: __ZN5Eigen8internalL13first_alignedILi16ENS_13CwiseBinaryOpINS0_17scalar_product_opIffEEKNS_9TransposeIKNS_5BlockIKNS5_IKNS6_IKNS_6MatrixIfLi3ELi3ELi0ELi3ELi3EEELin1ELi1ELb0EEEEELi1ELin1ELb1EEEEEKNS6_IKNS6_INS6_INS7_IfLi3ELi1ELi0ELi3ELi1EEELin1ELin1ELb0EEELin1ELin1ELb0EEELin1ELi1ELb1EEEEEEElRKNS_9DenseBaseIT0_EE, symObjAddr: 0x50E78, symBinAddr: 0x100055164, symSize: 0x28 }
  - { offsetInCU: 0x353F3, offset: 0x353F3, size: 0x8, addend: 0x0, symName: __ZN5Eigen8internal15call_assignmentINS_3MapINS_6MatrixIfLi1ELin1ELi1ELi1ELi1EEELi0ENS_6StrideILi0ELi0EEEEENS_5BlockINS8_INS3_IfLi3ELi1ELi0ELi3ELi1EEELin1ELin1ELb0EEELi1ELin1ELb0EEENS0_13add_assign_opIffEEEEvRT_RKT0_RKT1_NS0_9enable_ifIXntsr25evaluator_assume_aliasingISG_EE5valueEPvE4typeE, symObjAddr: 0x5185C, symBinAddr: 0x100055B48, symSize: 0x38 }
  - { offsetInCU: 0x35461, offset: 0x35461, size: 0x8, addend: 0x0, symName: __ZN5Eigen8internal24call_assignment_no_aliasINS_3MapINS_6MatrixIfLi1ELin1ELi1ELi1ELi1EEELi0ENS_6StrideILi0ELi0EEEEENS_5BlockINS8_INS3_IfLi3ELi1ELi0ELi3ELi1EEELin1ELin1ELb0EEELi1ELin1ELb0EEENS0_13add_assign_opIffEEEEvRT_RKT0_RKT1_, symObjAddr: 0x518A8, symBinAddr: 0x100055B94, symSize: 0x3C }
  - { offsetInCU: 0x3552F, offset: 0x3552F, size: 0x8, addend: 0x0, symName: __ZN5Eigen8internal18check_for_aliasingINS_3MapINS_6MatrixIfLi1ELin1ELi1ELi1ELi1EEELi0ENS_6StrideILi0ELi0EEEEENS_5BlockINS8_INS3_IfLi3ELi1ELi0ELi3ELi1EEELin1ELin1ELb0EEELi1ELin1ELb0EEEEEvRKT_RKT0_, symObjAddr: 0x51924, symBinAddr: 0x100055C10, symSize: 0x14 }
  - { offsetInCU: 0x3557A, offset: 0x3557A, size: 0x8, addend: 0x0, symName: __ZN5Eigen8internal26call_dense_assignment_loopINS_3MapINS_6MatrixIfLi1ELin1ELi1ELi1ELi1EEELi0ENS_6StrideILi0ELi0EEEEENS_5BlockINS8_INS3_IfLi3ELi1ELi0ELi3ELi1EEELin1ELin1ELb0EEELi1ELin1ELb0EEENS0_13add_assign_opIffEEEEvRT_RKT0_RKT1_, symObjAddr: 0x51938, symBinAddr: 0x100055C24, symSize: 0xD8 }
  - { offsetInCU: 0x356EA, offset: 0x356EA, size: 0x8, addend: 0x0, symName: __ZN5Eigen8internal17resize_if_allowedINS_3MapINS_6MatrixIfLi1ELin1ELi1ELi1ELi1EEELi0ENS_6StrideILi0ELi0EEEEENS_5BlockINS8_INS3_IfLi3ELi1ELi0ELi3ELi1EEELin1ELin1ELb0EEELi1ELin1ELb0EEENS0_13add_assign_opIffEEEEvRT_RKT0_RKT1_, symObjAddr: 0x51A44, symBinAddr: 0x100055D30, symSize: 0xB4 }
  - { offsetInCU: 0x3599B, offset: 0x3599B, size: 0x8, addend: 0x0, symName: __ZN5Eigen8internal15call_assignmentINS_5BlockINS2_INS_6MatrixIfLi3ELi1ELi0ELi3ELi1EEELin1ELin1ELb0EEELi1ELin1ELb0EEENS_13CwiseBinaryOpINS0_17scalar_product_opIffEEKNS_14CwiseNullaryOpINS0_18scalar_constant_opIfEEKNS3_IfLi1ELin1ELi1ELi1ELi1EEEEEKNS_3MapISD_Li0ENS_6StrideILi0ELi0EEEEEEENS0_13sub_assign_opIffEEEEvRT_RKT0_RKT1_NS0_9enable_ifIXntsr25evaluator_assume_aliasingISR_EE5valueEPvE4typeE, symObjAddr: 0x525F8, symBinAddr: 0x1000568E4, symSize: 0x38 }
  - { offsetInCU: 0x35A09, offset: 0x35A09, size: 0x8, addend: 0x0, symName: __ZN5Eigen8internal24call_assignment_no_aliasINS_5BlockINS2_INS_6MatrixIfLi3ELi1ELi0ELi3ELi1EEELin1ELin1ELb0EEELi1ELin1ELb0EEENS_13CwiseBinaryOpINS0_17scalar_product_opIffEEKNS_14CwiseNullaryOpINS0_18scalar_constant_opIfEEKNS3_IfLi1ELin1ELi1ELi1ELi1EEEEEKNS_3MapISD_Li0ENS_6StrideILi0ELi0EEEEEEENS0_13sub_assign_opIffEEEEvRT_RKT0_RKT1_, symObjAddr: 0x52658, symBinAddr: 0x100056944, symSize: 0x3C }
  - { offsetInCU: 0x35AD7, offset: 0x35AD7, size: 0x8, addend: 0x0, symName: __ZN5Eigen8internal18check_for_aliasingINS_5BlockINS2_INS_6MatrixIfLi3ELi1ELi0ELi3ELi1EEELin1ELin1ELb0EEELi1ELin1ELb0EEENS_13CwiseBinaryOpINS0_17scalar_product_opIffEEKNS_14CwiseNullaryOpINS0_18scalar_constant_opIfEEKNS3_IfLi1ELin1ELi1ELi1ELi1EEEEEKNS_3MapISD_Li0ENS_6StrideILi0ELi0EEEEEEEEEvRKT_RKT0_, symObjAddr: 0x526D4, symBinAddr: 0x1000569C0, symSize: 0x14 }
  - { offsetInCU: 0x35B22, offset: 0x35B22, size: 0x8, addend: 0x0, symName: __ZN5Eigen8internal26call_dense_assignment_loopINS_5BlockINS2_INS_6MatrixIfLi3ELi1ELi0ELi3ELi1EEELin1ELin1ELb0EEELi1ELin1ELb0EEENS_13CwiseBinaryOpINS0_17scalar_product_opIffEEKNS_14CwiseNullaryOpINS0_18scalar_constant_opIfEEKNS3_IfLi1ELin1ELi1ELi1ELi1EEEEEKNS_3MapISD_Li0ENS_6StrideILi0ELi0EEEEEEENS0_13sub_assign_opIffEEEEvRT_RKT0_RKT1_, symObjAddr: 0x526E8, symBinAddr: 0x1000569D4, symSize: 0xE0 }
  - { offsetInCU: 0x35EF5, offset: 0x35EF5, size: 0x8, addend: 0x0, symName: __ZN5Eigen8internal17resize_if_allowedINS_5BlockINS2_INS_6MatrixIfLi3ELi1ELi0ELi3ELi1EEELin1ELin1ELb0EEELi1ELin1ELb0EEENS_13CwiseBinaryOpINS0_17scalar_product_opIffEEKNS_14CwiseNullaryOpINS0_18scalar_constant_opIfEEKNS3_IfLi1ELin1ELi1ELi1ELi1EEEEEKNS_3MapISD_Li0ENS_6StrideILi0ELi0EEEEEEENS0_13sub_assign_opIffEEEEvRT_RKT0_RKT1_, symObjAddr: 0x527FC, symBinAddr: 0x100056AE8, symSize: 0xB4 }
  - { offsetInCU: 0x361A6, offset: 0x361A6, size: 0x8, addend: 0x0, symName: __ZN5Eigen8internal24call_assignment_no_aliasINS_5BlockINS2_INS_6MatrixIfLi3ELi1ELi0ELi3ELi1EEELin1ELin1ELb0EEELin1ELin1ELb0EEENS_7ProductINS_13CwiseBinaryOpINS0_17scalar_product_opIffEEKNS_14CwiseNullaryOpINS0_18scalar_constant_opIfEEKNS3_IfLin1ELi1ELi0ELi3ELi1EEEEEKNS2_IKNS3_IfLi3ELi3ELi0ELi3ELi3EEELin1ELi1ELb0EEEEENS_3MapINS3_IfLi1ELin1ELi1ELi1ELi1EEELi0ENS_6StrideILi0ELi0EEEEELi0EEENS0_13sub_assign_opIffEEEEvRT_RKT0_RKT1_, symObjAddr: 0x537F0, symBinAddr: 0x100057ADC, symSize: 0x3C }
  - { offsetInCU: 0x362DB, offset: 0x362DB, size: 0x8, addend: 0x0, symName: __ZN5Eigen8internal24call_assignment_no_aliasINS_5BlockINS2_INS_6MatrixIfLi3ELi1ELi0ELi3ELi1EEELin1ELin1ELb0EEELin1ELin1ELb0EEENS_7ProductINS_13CwiseBinaryOpINS0_17scalar_product_opIffEEKNS_14CwiseNullaryOpINS0_18scalar_constant_opIfEEKNS3_IfLin1ELi1ELi0ELi3ELi1EEEEEKNS2_IKNS3_IfLi3ELi3ELi0ELi3ELi3EEELin1ELi1ELb0EEEEENS_3MapINS3_IfLi1ELin1ELi1ELi1ELi1EEELi0ENS_6StrideILi0ELi0EEEEELi1EEENS0_13sub_assign_opIffEEEEvRT_RKT0_RKT1_, symObjAddr: 0x53A50, symBinAddr: 0x100057D3C, symSize: 0x3C }
  - { offsetInCU: 0x365AD, offset: 0x365AD, size: 0x8, addend: 0x0, symName: __ZN5Eigen8internal18check_for_aliasingINS_5BlockINS2_INS_6MatrixIfLi3ELi1ELi0ELi3ELi1EEELin1ELin1ELb0EEELin1ELin1ELb0EEENS_7ProductINS_13CwiseBinaryOpINS0_17scalar_product_opIffEEKNS_14CwiseNullaryOpINS0_18scalar_constant_opIfEEKNS3_IfLin1ELi1ELi0ELi3ELi1EEEEEKNS2_IKNS3_IfLi3ELi3ELi0ELi3ELi3EEELin1ELi1ELb0EEEEENS_3MapINS3_IfLi1ELin1ELi1ELi1ELi1EEELi0ENS_6StrideILi0ELi0EEEEELi1EEEEEvRKT_RKT0_, symObjAddr: 0x53B18, symBinAddr: 0x100057E04, symSize: 0x60 }
  - { offsetInCU: 0x365F8, offset: 0x365F8, size: 0x8, addend: 0x0, symName: __ZN5Eigen8internal26call_dense_assignment_loopINS_5BlockINS2_INS_6MatrixIfLi3ELi1ELi0ELi3ELi1EEELin1ELin1ELb0EEELin1ELin1ELb0EEENS_7ProductINS_13CwiseBinaryOpINS0_17scalar_product_opIffEEKNS_14CwiseNullaryOpINS0_18scalar_constant_opIfEEKNS3_IfLin1ELi1ELi0ELi3ELi1EEEEEKNS2_IKNS3_IfLi3ELi3ELi0ELi3ELi3EEELin1ELi1ELb0EEEEENS_3MapINS3_IfLi1ELin1ELi1ELi1ELi1EEELi0ENS_6StrideILi0ELi0EEEEELi1EEENS0_13sub_assign_opIffEEEEvRT_RKT0_RKT1_, symObjAddr: 0x53B78, symBinAddr: 0x100057E64, symSize: 0xD8 }
  - { offsetInCU: 0x368BC, offset: 0x368BC, size: 0x8, addend: 0x0, symName: __ZN5Eigen8internal17resize_if_allowedINS_5BlockINS2_INS_6MatrixIfLi3ELi1ELi0ELi3ELi1EEELin1ELin1ELb0EEELin1ELin1ELb0EEENS_7ProductINS_13CwiseBinaryOpINS0_17scalar_product_opIffEEKNS_14CwiseNullaryOpINS0_18scalar_constant_opIfEEKNS3_IfLin1ELi1ELi0ELi3ELi1EEEEEKNS2_IKNS3_IfLi3ELi3ELi0ELi3ELi3EEELin1ELi1ELb0EEEEENS_3MapINS3_IfLi1ELin1ELi1ELi1ELi1EEELi0ENS_6StrideILi0ELi0EEEEELi1EEENS0_13sub_assign_opIffEEEEvRT_RKT0_RKT1_, symObjAddr: 0x53C98, symBinAddr: 0x100057F84, symSize: 0xB4 }
  - { offsetInCU: 0x36B6D, offset: 0x36B6D, size: 0x8, addend: 0x0, symName: __ZN5Eigen8internal24call_assignment_no_aliasINS_6MatrixIfLin1ELi1ELi0ELi3ELi1EEENS_13CwiseBinaryOpINS0_17scalar_product_opIffEEKNS_14CwiseNullaryOpINS0_18scalar_constant_opIfEEKS3_EEKNS_5BlockIKNS2_IfLi3ELi3ELi0ELi3ELi3EEELin1ELi1ELb0EEEEENS0_9assign_opIffEEEEvRT_RKT0_RKT1_, symObjAddr: 0x5411C, symBinAddr: 0x100058408, symSize: 0x3C }
  - { offsetInCU: 0x36C3B, offset: 0x36C3B, size: 0x8, addend: 0x0, symName: __ZN5Eigen8internal18check_for_aliasingINS_6MatrixIfLin1ELi1ELi0ELi3ELi1EEENS_13CwiseBinaryOpINS0_17scalar_product_opIffEEKNS_14CwiseNullaryOpINS0_18scalar_constant_opIfEEKS3_EEKNS_5BlockIKNS2_IfLi3ELi3ELi0ELi3ELi3EEELin1ELi1ELb0EEEEEEEvRKT_RKT0_, symObjAddr: 0x54198, symBinAddr: 0x100058484, symSize: 0x14 }
  - { offsetInCU: 0x36C86, offset: 0x36C86, size: 0x8, addend: 0x0, symName: __ZN5Eigen8internal26call_dense_assignment_loopINS_6MatrixIfLin1ELi1ELi0ELi3ELi1EEENS_13CwiseBinaryOpINS0_17scalar_product_opIffEEKNS_14CwiseNullaryOpINS0_18scalar_constant_opIfEEKS3_EEKNS_5BlockIKNS2_IfLi3ELi3ELi0ELi3ELi3EEELin1ELi1ELb0EEEEENS0_9assign_opIffEEEEvRT_RKT0_RKT1_, symObjAddr: 0x541AC, symBinAddr: 0x100058498, symSize: 0xD8 }
  - { offsetInCU: 0x36D3A, offset: 0x36D3A, size: 0x8, addend: 0x0, symName: __ZN5Eigen8internal17resize_if_allowedINS_6MatrixIfLin1ELi1ELi0ELi3ELi1EEENS_13CwiseBinaryOpINS0_17scalar_product_opIffEEKNS_14CwiseNullaryOpINS0_18scalar_constant_opIfEEKS3_EEKNS_5BlockIKNS2_IfLi3ELi3ELi0ELi3ELi3EEELin1ELi1ELb0EEEEEffEEvRT_RKT0_RKNS0_9assign_opIT1_T2_EE, symObjAddr: 0x542B8, symBinAddr: 0x1000585A4, symSize: 0xF8 }
  - { offsetInCU: 0x36E7E, offset: 0x36E7E, size: 0x8, addend: 0x0, symName: __ZN5Eigen8internal15call_assignmentINS_3MapINS_6MatrixIfLin1ELi1ELi0ELin1ELi1EEELi16ENS_6StrideILi0ELi0EEEEENS_5BlockINS3_IfLi3ELi1ELi0ELi3ELi1EEELin1ELi1ELb0EEEEEvRT_RKT0_, symObjAddr: 0x57D54, symBinAddr: 0x10005C040, symSize: 0x50 }
  - { offsetInCU: 0x36EC9, offset: 0x36EC9, size: 0x8, addend: 0x0, symName: __ZN5Eigen8internal15call_assignmentINS_3MapINS_6MatrixIfLin1ELi1ELi0ELin1ELi1EEELi16ENS_6StrideILi0ELi0EEEEENS_5BlockINS3_IfLi3ELi1ELi0ELi3ELi1EEELin1ELi1ELb0EEENS0_9assign_opIffEEEEvRT_RKT0_RKT1_NS0_9enable_ifIXntsr25evaluator_assume_aliasingISF_EE5valueEPvE4typeE, symObjAddr: 0x57DB8, symBinAddr: 0x10005C0A4, symSize: 0x38 }
  - { offsetInCU: 0x36F37, offset: 0x36F37, size: 0x8, addend: 0x0, symName: __ZN5Eigen8internal24call_assignment_no_aliasINS_3MapINS_6MatrixIfLin1ELi1ELi0ELin1ELi1EEELi16ENS_6StrideILi0ELi0EEEEENS_5BlockINS3_IfLi3ELi1ELi0ELi3ELi1EEELin1ELi1ELb0EEENS0_9assign_opIffEEEEvRT_RKT0_RKT1_, symObjAddr: 0x57DF0, symBinAddr: 0x10005C0DC, symSize: 0x3C }
  - { offsetInCU: 0x37005, offset: 0x37005, size: 0x8, addend: 0x0, symName: __ZN5Eigen8internal18check_for_aliasingINS_3MapINS_6MatrixIfLin1ELi1ELi0ELin1ELi1EEELi16ENS_6StrideILi0ELi0EEEEENS_5BlockINS3_IfLi3ELi1ELi0ELi3ELi1EEELin1ELi1ELb0EEEEEvRKT_RKT0_, symObjAddr: 0x57E6C, symBinAddr: 0x10005C158, symSize: 0x14 }
  - { offsetInCU: 0x37050, offset: 0x37050, size: 0x8, addend: 0x0, symName: __ZN5Eigen8internal26call_dense_assignment_loopINS_3MapINS_6MatrixIfLin1ELi1ELi0ELin1ELi1EEELi16ENS_6StrideILi0ELi0EEEEENS_5BlockINS3_IfLi3ELi1ELi0ELi3ELi1EEELin1ELi1ELb0EEENS0_9assign_opIffEEEEvRT_RKT0_RKT1_, symObjAddr: 0x57E80, symBinAddr: 0x10005C16C, symSize: 0xE0 }
  - { offsetInCU: 0x37104, offset: 0x37104, size: 0x8, addend: 0x0, symName: __ZN5Eigen8internal17resize_if_allowedINS_3MapINS_6MatrixIfLin1ELi1ELi0ELin1ELi1EEELi16ENS_6StrideILi0ELi0EEEEENS_5BlockINS3_IfLi3ELi1ELi0ELi3ELi1EEELin1ELi1ELb0EEEffEEvRT_RKT0_RKNS0_9assign_opIT1_T2_EE, symObjAddr: 0x57F94, symBinAddr: 0x10005C280, symSize: 0xF8 }
  - { offsetInCU: 0x371C4, offset: 0x371C4, size: 0x8, addend: 0x0, symName: __ZN5Eigen8internal15call_assignmentINS_3MapINS_6MatrixIfLin1ELi1ELi0ELin1ELi1EEELi0ENS_6StrideILi0ELi0EEEEENS_13CwiseBinaryOpINS0_17scalar_product_opIffEEKNS_14CwiseNullaryOpINS0_18scalar_constant_opIfEEKS4_EEKNS_5BlockIKNSH_IKNS2_IKNS3_IfLin1ELin1ELi0ELin1ELin1EEELi0ENS_11OuterStrideILin1EEEEELin1ELi1ELb1EEELin1ELi1ELb0EEEEENS0_13sub_assign_opIffEEEEvRT_RKT0_RKT1_NS0_9enable_ifIXntsr25evaluator_assume_aliasingISX_EE5valueEPvE4typeE, symObjAddr: 0x5BC80, symBinAddr: 0x10005FF6C, symSize: 0x38 }
  - { offsetInCU: 0x37232, offset: 0x37232, size: 0x8, addend: 0x0, symName: __ZN5Eigen8internal24call_assignment_no_aliasINS_3MapINS_6MatrixIfLin1ELi1ELi0ELin1ELi1EEELi0ENS_6StrideILi0ELi0EEEEENS_13CwiseBinaryOpINS0_17scalar_product_opIffEEKNS_14CwiseNullaryOpINS0_18scalar_constant_opIfEEKS4_EEKNS_5BlockIKNSH_IKNS2_IKNS3_IfLin1ELin1ELi0ELin1ELin1EEELi0ENS_11OuterStrideILin1EEEEELin1ELi1ELb1EEELin1ELi1ELb0EEEEENS0_13sub_assign_opIffEEEEvRT_RKT0_RKT1_, symObjAddr: 0x5BCE0, symBinAddr: 0x10005FFCC, symSize: 0x3C }
  - { offsetInCU: 0x37300, offset: 0x37300, size: 0x8, addend: 0x0, symName: __ZN5Eigen8internal18check_for_aliasingINS_3MapINS_6MatrixIfLin1ELi1ELi0ELin1ELi1EEELi0ENS_6StrideILi0ELi0EEEEENS_13CwiseBinaryOpINS0_17scalar_product_opIffEEKNS_14CwiseNullaryOpINS0_18scalar_constant_opIfEEKS4_EEKNS_5BlockIKNSH_IKNS2_IKNS3_IfLin1ELin1ELi0ELin1ELin1EEELi0ENS_11OuterStrideILin1EEEEELin1ELi1ELb1EEELin1ELi1ELb0EEEEEEEvRKT_RKT0_, symObjAddr: 0x5BD5C, symBinAddr: 0x100060048, symSize: 0x14 }
  - { offsetInCU: 0x3734B, offset: 0x3734B, size: 0x8, addend: 0x0, symName: __ZN5Eigen8internal26call_dense_assignment_loopINS_3MapINS_6MatrixIfLin1ELi1ELi0ELin1ELi1EEELi0ENS_6StrideILi0ELi0EEEEENS_13CwiseBinaryOpINS0_17scalar_product_opIffEEKNS_14CwiseNullaryOpINS0_18scalar_constant_opIfEEKS4_EEKNS_5BlockIKNSH_IKNS2_IKNS3_IfLin1ELin1ELi0ELin1ELin1EEELi0ENS_11OuterStrideILin1EEEEELin1ELi1ELb1EEELin1ELi1ELb0EEEEENS0_13sub_assign_opIffEEEEvRT_RKT0_RKT1_, symObjAddr: 0x5BD70, symBinAddr: 0x10006005C, symSize: 0xE0 }
  - { offsetInCU: 0x373FF, offset: 0x373FF, size: 0x8, addend: 0x0, symName: __ZN5Eigen8internal17resize_if_allowedINS_3MapINS_6MatrixIfLin1ELi1ELi0ELin1ELi1EEELi0ENS_6StrideILi0ELi0EEEEENS_13CwiseBinaryOpINS0_17scalar_product_opIffEEKNS_14CwiseNullaryOpINS0_18scalar_constant_opIfEEKS4_EEKNS_5BlockIKNSH_IKNS2_IKNS3_IfLin1ELin1ELi0ELin1ELin1EEELi0ENS_11OuterStrideILin1EEEEELin1ELi1ELb1EEELin1ELi1ELb0EEEEENS0_13sub_assign_opIffEEEEvRT_RKT0_RKT1_, symObjAddr: 0x5BE84, symBinAddr: 0x100060170, symSize: 0xB4 }
  - { offsetInCU: 0x3745E, offset: 0x3745E, size: 0x8, addend: 0x0, symName: __ZN5Eigen8internal15call_assignmentINS_5BlockINS_6MatrixIfLi3ELi1ELi0ELi3ELi1EEELin1ELi1ELb0EEENS_3MapINS3_IfLin1ELi1ELi0ELin1ELi1EEELi16ENS_6StrideILi0ELi0EEEEEEEvRT_RKT0_, symObjAddr: 0x5D100, symBinAddr: 0x1000613EC, symSize: 0x50 }
  - { offsetInCU: 0x374A9, offset: 0x374A9, size: 0x8, addend: 0x0, symName: __ZN5Eigen8internal15call_assignmentINS_5BlockINS_6MatrixIfLi3ELi1ELi0ELi3ELi1EEELin1ELi1ELb0EEENS_3MapINS3_IfLin1ELi1ELi0ELin1ELi1EEELi16ENS_6StrideILi0ELi0EEEEENS0_9assign_opIffEEEEvRT_RKT0_RKT1_NS0_9enable_ifIXntsr25evaluator_assume_aliasingISF_EE5valueEPvE4typeE, symObjAddr: 0x5D164, symBinAddr: 0x100061450, symSize: 0x38 }
  - { offsetInCU: 0x37517, offset: 0x37517, size: 0x8, addend: 0x0, symName: __ZN5Eigen8internal24call_assignment_no_aliasINS_5BlockINS_6MatrixIfLi3ELi1ELi0ELi3ELi1EEELin1ELi1ELb0EEENS_3MapINS3_IfLin1ELi1ELi0ELin1ELi1EEELi16ENS_6StrideILi0ELi0EEEEENS0_9assign_opIffEEEEvRT_RKT0_RKT1_, symObjAddr: 0x5D19C, symBinAddr: 0x100061488, symSize: 0x3C }
  - { offsetInCU: 0x375E5, offset: 0x375E5, size: 0x8, addend: 0x0, symName: __ZN5Eigen8internal18check_for_aliasingINS_5BlockINS_6MatrixIfLi3ELi1ELi0ELi3ELi1EEELin1ELi1ELb0EEENS_3MapINS3_IfLin1ELi1ELi0ELin1ELi1EEELi16ENS_6StrideILi0ELi0EEEEEEEvRKT_RKT0_, symObjAddr: 0x5D218, symBinAddr: 0x100061504, symSize: 0x14 }
  - { offsetInCU: 0x37630, offset: 0x37630, size: 0x8, addend: 0x0, symName: __ZN5Eigen8internal26call_dense_assignment_loopINS_5BlockINS_6MatrixIfLi3ELi1ELi0ELi3ELi1EEELin1ELi1ELb0EEENS_3MapINS3_IfLin1ELi1ELi0ELin1ELi1EEELi16ENS_6StrideILi0ELi0EEEEENS0_9assign_opIffEEEEvRT_RKT0_RKT1_, symObjAddr: 0x5D22C, symBinAddr: 0x100061518, symSize: 0xD8 }
  - { offsetInCU: 0x376E4, offset: 0x376E4, size: 0x8, addend: 0x0, symName: __ZN5Eigen8internal17resize_if_allowedINS_5BlockINS_6MatrixIfLi3ELi1ELi0ELi3ELi1EEELin1ELi1ELb0EEENS_3MapINS3_IfLin1ELi1ELi0ELin1ELi1EEELi16ENS_6StrideILi0ELi0EEEEEffEEvRT_RKT0_RKNS0_9assign_opIT1_T2_EE, symObjAddr: 0x5D304, symBinAddr: 0x1000615F0, symSize: 0xF8 }
  - { offsetInCU: 0x3776A, offset: 0x3776A, size: 0x8, addend: 0x0, symName: __ZN5Eigen8internal15call_assignmentINS_5BlockINS_6MatrixIfLi3ELi1ELi0ELi3ELi1EEELi1ELi1ELb0EEES5_EEvRT_RKT0_, symObjAddr: 0x5E24C, symBinAddr: 0x100062538, symSize: 0x50 }
  - { offsetInCU: 0x377B5, offset: 0x377B5, size: 0x8, addend: 0x0, symName: __ZN5Eigen8internal15call_assignmentINS_5BlockINS_6MatrixIfLi3ELi1ELi0ELi3ELi1EEELi1ELi1ELb0EEES5_NS0_9assign_opIffEEEEvRT_RKT0_RKT1_NS0_9enable_ifIXntsr25evaluator_assume_aliasingISA_EE5valueEPvE4typeE, symObjAddr: 0x5E2B0, symBinAddr: 0x10006259C, symSize: 0x38 }
  - { offsetInCU: 0x37823, offset: 0x37823, size: 0x8, addend: 0x0, symName: __ZN5Eigen8internal24call_assignment_no_aliasINS_5BlockINS_6MatrixIfLi3ELi1ELi0ELi3ELi1EEELi1ELi1ELb0EEES5_NS0_9assign_opIffEEEEvRT_RKT0_RKT1_, symObjAddr: 0x5E2E8, symBinAddr: 0x1000625D4, symSize: 0x3C }
  - { offsetInCU: 0x378F1, offset: 0x378F1, size: 0x8, addend: 0x0, symName: __ZN5Eigen8internal18check_for_aliasingINS_5BlockINS_6MatrixIfLi3ELi1ELi0ELi3ELi1EEELi1ELi1ELb0EEES5_EEvRKT_RKT0_, symObjAddr: 0x5E364, symBinAddr: 0x100062650, symSize: 0x14 }
  - { offsetInCU: 0x3793C, offset: 0x3793C, size: 0x8, addend: 0x0, symName: __ZN5Eigen8internal26call_dense_assignment_loopINS_5BlockINS_6MatrixIfLi3ELi1ELi0ELi3ELi1EEELi1ELi1ELb0EEES5_NS0_9assign_opIffEEEEvRT_RKT0_RKT1_, symObjAddr: 0x5E378, symBinAddr: 0x100062664, symSize: 0xE0 }
  - { offsetInCU: 0x379F0, offset: 0x379F0, size: 0x8, addend: 0x0, symName: __ZN5Eigen8internal17resize_if_allowedINS_5BlockINS_6MatrixIfLi3ELi1ELi0ELi3ELi1EEELi1ELi1ELb0EEES5_ffEEvRT_RKT0_RKNS0_9assign_opIT1_T2_EE, symObjAddr: 0x5E48C, symBinAddr: 0x100062778, symSize: 0xF8 }
  - { offsetInCU: 0x37B22, offset: 0x37B22, size: 0x8, addend: 0x0, symName: __ZN5Eigen8internal15call_assignmentINS_5BlockINS_6MatrixIfLi3ELi1ELi0ELi3ELi1EEELi1ELi1ELb0EEENS_14CwiseNullaryOpINS0_18scalar_constant_opIfEENS3_IfLi1ELi1ELi0ELi1ELi1EEEEEEEvRT_RKT0_, symObjAddr: 0x5F0FC, symBinAddr: 0x1000633E8, symSize: 0x50 }
  - { offsetInCU: 0x37B6D, offset: 0x37B6D, size: 0x8, addend: 0x0, symName: __ZN5Eigen8internal15call_assignmentINS_5BlockINS_6MatrixIfLi3ELi1ELi0ELi3ELi1EEELi1ELi1ELb0EEENS_14CwiseNullaryOpINS0_18scalar_constant_opIfEENS3_IfLi1ELi1ELi0ELi1ELi1EEEEENS0_9assign_opIffEEEEvRT_RKT0_RKT1_NS0_9enable_ifIXntsr25evaluator_assume_aliasingISF_EE5valueEPvE4typeE, symObjAddr: 0x5F14C, symBinAddr: 0x100063438, symSize: 0x38 }
  - { offsetInCU: 0x37BDB, offset: 0x37BDB, size: 0x8, addend: 0x0, symName: __ZN5Eigen8internal24call_assignment_no_aliasINS_5BlockINS_6MatrixIfLi3ELi1ELi0ELi3ELi1EEELi1ELi1ELb0EEENS_14CwiseNullaryOpINS0_18scalar_constant_opIfEENS3_IfLi1ELi1ELi0ELi1ELi1EEEEENS0_9assign_opIffEEEEvRT_RKT0_RKT1_, symObjAddr: 0x5F184, symBinAddr: 0x100063470, symSize: 0x3C }
  - { offsetInCU: 0x37CA9, offset: 0x37CA9, size: 0x8, addend: 0x0, symName: __ZN5Eigen8internal18check_for_aliasingINS_5BlockINS_6MatrixIfLi3ELi1ELi0ELi3ELi1EEELi1ELi1ELb0EEENS_14CwiseNullaryOpINS0_18scalar_constant_opIfEENS3_IfLi1ELi1ELi0ELi1ELi1EEEEEEEvRKT_RKT0_, symObjAddr: 0x5F200, symBinAddr: 0x1000634EC, symSize: 0x14 }
  - { offsetInCU: 0x37CF4, offset: 0x37CF4, size: 0x8, addend: 0x0, symName: __ZN5Eigen8internal26call_dense_assignment_loopINS_5BlockINS_6MatrixIfLi3ELi1ELi0ELi3ELi1EEELi1ELi1ELb0EEENS_14CwiseNullaryOpINS0_18scalar_constant_opIfEENS3_IfLi1ELi1ELi0ELi1ELi1EEEEENS0_9assign_opIffEEEEvRT_RKT0_RKT1_, symObjAddr: 0x5F214, symBinAddr: 0x100063500, symSize: 0xD8 }
  - { offsetInCU: 0x37DA8, offset: 0x37DA8, size: 0x8, addend: 0x0, symName: __ZN5Eigen8internal17resize_if_allowedINS_5BlockINS_6MatrixIfLi3ELi1ELi0ELi3ELi1EEELi1ELi1ELb0EEENS_14CwiseNullaryOpINS0_18scalar_constant_opIfEENS3_IfLi1ELi1ELi0ELi1ELi1EEEEEffEEvRT_RKT0_RKNS0_9assign_opIT1_T2_EE, symObjAddr: 0x5F320, symBinAddr: 0x10006360C, symSize: 0xF8 }
  - { offsetInCU: 0x3898A, offset: 0x3898A, size: 0x8, addend: 0x0, symName: __ZN5EigenL6lastp1E, symObjAddr: 0xA17159, symBinAddr: 0x100078021, symSize: 0x0 }
  - { offsetInCU: 0x389A3, offset: 0x389A3, size: 0x8, addend: 0x0, symName: __ZN5EigenL3allE, symObjAddr: 0xA1715C, symBinAddr: 0x100078024, symSize: 0x0 }
  - { offsetInCU: 0x389BC, offset: 0x389BC, size: 0x8, addend: 0x0, symName: __ZN5EigenL3fixILi1EEE, symObjAddr: 0xA1715B, symBinAddr: 0x100078023, symSize: 0x0 }
  - { offsetInCU: 0x389E0, offset: 0x389E0, size: 0x8, addend: 0x0, symName: __ZN5EigenL3fixILi0EEE, symObjAddr: 0xA1715D, symBinAddr: 0x100078025, symSize: 0x0 }
  - { offsetInCU: 0x38A04, offset: 0x38A04, size: 0x8, addend: 0x0, symName: __ZN5EigenL3fixILi2EEE, symObjAddr: 0xA1715E, symBinAddr: 0x100078026, symSize: 0x0 }
  - { offsetInCU: 0x38A28, offset: 0x38A28, size: 0x8, addend: 0x0, symName: __ZN5EigenL3fixILi3EEE, symObjAddr: 0xA1715F, symBinAddr: 0x100078027, symSize: 0x0 }
  - { offsetInCU: 0x12FD44, offset: 0x12FD44, size: 0x8, addend: 0x0, symName: __ZN5EigenlsINS_6MatrixIfLi3ELi3ELi0ELi3ELi3EEEEERNSt3__113basic_ostreamIcNS3_11char_traitsIcEEEES8_RKNS_9DenseBaseIT_EE, symObjAddr: 0x858, symBinAddr: 0x100004B44, symSize: 0x208 }
  - { offsetInCU: 0x12FD87, offset: 0x12FD87, size: 0x8, addend: 0x0, symName: __ZN5EigenlsINS_6MatrixIfLi3ELi1ELi0ELi3ELi1EEEEERNSt3__113basic_ostreamIcNS3_11char_traitsIcEEEES8_RKNS_9DenseBaseIT_EE, symObjAddr: 0xB2C, symBinAddr: 0x100004E18, symSize: 0x208 }
  - { offsetInCU: 0x12FE29, offset: 0x12FE29, size: 0x8, addend: 0x0, symName: __ZN5Eigen6numext4abs2IfEENS_8internal11abs2_retvalINS2_36global_math_functions_filtering_baseIT_vE4typeEE4typeERKS5_, symObjAddr: 0x64F8, symBinAddr: 0x10000A7E4, symSize: 0x24 }
  - { offsetInCU: 0x12FE60, offset: 0x12FE60, size: 0x8, addend: 0x0, symName: __ZN5Eigen6numext4realIfEENS_8internal11real_retvalINS2_36global_math_functions_filtering_baseIT_vE4typeEE4typeERKS5_, symObjAddr: 0x7338, symBinAddr: 0x10000B624, symSize: 0x24 }
  - { offsetInCU: 0x12FECA, offset: 0x12FECA, size: 0x8, addend: 0x0, symName: __ZN5Eigen6numext4imagIfEENS_8internal11imag_retvalINS2_36global_math_functions_filtering_baseIT_vE4typeEE4typeERKS5_, symObjAddr: 0xB77C, symBinAddr: 0x10000FA68, symSize: 0x24 }
  - { offsetInCU: 0x12FF01, offset: 0x12FF01, size: 0x8, addend: 0x0, symName: __ZN5Eigen6numext4conjIfEENS_8internal11conj_retvalINS2_36global_math_functions_filtering_baseIT_vE4typeEE4typeERKS5_, symObjAddr: 0xB8B8, symBinAddr: 0x10000FBA4, symSize: 0x24 }
  - { offsetInCU: 0x12FF6B, offset: 0x12FF6B, size: 0x8, addend: 0x0, symName: __ZN5Eigen6numext8div_ceilIlEET_RKS2_S4_, symObjAddr: 0x437C0, symBinAddr: 0x100047AAC, symSize: 0x38 }
  - { offsetInCU: 0x12FFB1, offset: 0x12FFB1, size: 0x8, addend: 0x0, symName: __ZN5Eigen6numext16not_equal_strictIffEEbRKT_RKT0_, symObjAddr: 0x58B30, symBinAddr: 0x10005CE1C, symSize: 0x34 }
  - { offsetInCU: 0x130165, offset: 0x130165, size: 0x8, addend: 0x0, symName: __ZN5EigenmlIfEEKNS_13CwiseBinaryOpINS_8internal17scalar_product_opINS2_18promote_scalar_argIfT_Xsr5Eigen8internal14has_ReturnTypeINS_20ScalarBinaryOpTraitsIS5_fNS3_IS5_fEEEEEE5valueEE4typeEfEEKNS2_19plain_constant_typeINS_3MapINS_6MatrixIfLi1ELin1ELi1ELi1ELi3EEELi0ENS_6StrideILi0ELi0EEEEESA_E4typeEKSI_EERKS5_RKNS_10MatrixBaseISI_EE, symObjAddr: 0x1002C, symBinAddr: 0x100014318, symSize: 0x9C }
  - { offsetInCU: 0x1301A8, offset: 0x1301A8, size: 0x8, addend: 0x0, symName: __ZN5EigenmlIfEEKNS_13CwiseBinaryOpINS_8internal17scalar_product_opINS2_18promote_scalar_argIfT_Xsr5Eigen8internal14has_ReturnTypeINS_20ScalarBinaryOpTraitsIS5_fNS3_IS5_fEEEEEE5valueEE4typeEfEEKNS2_19plain_constant_typeINS_5BlockINSD_INS_6MatrixIfLi3ELi3ELi0ELi3ELi3EEELi3ELi1ELb1EEELin1ELi1ELb0EEESA_E4typeEKSH_EERKS5_RKNS_10MatrixBaseISH_EE, symObjAddr: 0x1012C, symBinAddr: 0x100014418, symSize: 0x9C }
  - { offsetInCU: 0x133633, offset: 0x133633, size: 0x8, addend: 0x0, symName: __ZN5EigenmlINS_13CwiseBinaryOpINS_8internal17scalar_product_opIffEEKNS_14CwiseNullaryOpINS2_18scalar_constant_opIfEEKNS_6MatrixIfLi1ELin1ELi1ELi1ELi3EEEEEKNS_9TransposeIKNS_5BlockIKNSE_IKNSE_INS8_IfLi3ELi3ELi0ELi3ELi3EEELin1ELin1ELb0EEELin1ELi1ELb1EEELin1ELi1ELb0EEEEEEEEEKNS_7ProductIT_NS_14TriangularViewIKNSE_ISH_Lin1ELin1ELb0EEELj5EEELi0EEERKNS_10MatrixBaseISQ_EERKNS_18TriangularViewImplIST_Lj5ENS_5DenseEEE, symObjAddr: 0x1FB98, symBinAddr: 0x100023E84, symSize: 0x4C }
  - { offsetInCU: 0x133679, offset: 0x133679, size: 0x8, addend: 0x0, symName: __ZN5EigenmlIfEEKNS_13CwiseBinaryOpINS_8internal17scalar_product_opINS2_18promote_scalar_argIfT_Xsr5Eigen8internal14has_ReturnTypeINS_20ScalarBinaryOpTraitsIS5_fNS3_IS5_fEEEEEE5valueEE4typeEfEEKNS2_19plain_constant_typeINS_9TransposeIKNS_5BlockIKNSE_IKNSE_INS_6MatrixIfLi3ELi3ELi0ELi3ELi3EEELin1ELin1ELb0EEELin1ELi1ELb1EEELin1ELi1ELb0EEEEESA_E4typeEKSN_EERKS5_RKNS_10MatrixBaseISN_EE, symObjAddr: 0x1FBE4, symBinAddr: 0x100023ED0, symSize: 0x9C }
  - { offsetInCU: 0x13376E, offset: 0x13376E, size: 0x8, addend: 0x0, symName: __ZN5EigenmlIfEEKNS_13CwiseBinaryOpINS_8internal17scalar_product_opINS2_18promote_scalar_argIfT_Xsr5Eigen8internal14has_ReturnTypeINS_20ScalarBinaryOpTraitsIS5_fNS3_IS5_fEEEEEE5valueEE4typeEfEEKNS2_19plain_constant_typeINS_5BlockINSD_INS_6MatrixIfLin1ELin1ELi1ELin1ELin1EEELi1ELin1ELb1EEELi1ELin1ELb0EEESA_E4typeEKSH_EERKS5_RKNS_10MatrixBaseISH_EE, symObjAddr: 0x20154, symBinAddr: 0x100024440, symSize: 0x9C }
  - { offsetInCU: 0x1337CC, offset: 0x1337CC, size: 0x8, addend: 0x0, symName: __ZN5EigenmlIfEEKNS_13CwiseBinaryOpINS_8internal17scalar_product_opINS2_18promote_scalar_argIfT_Xsr5Eigen8internal14has_ReturnTypeINS_20ScalarBinaryOpTraitsIS5_fNS3_IS5_fEEEEEE5valueEE4typeEfEEKNS2_19plain_constant_typeINS_5BlockIKNS_9TransposeIKNS1_INS3_IffEEKNS_14CwiseNullaryOpINS2_18scalar_constant_opIfEEKNS_6MatrixIfLi1ELin1ELi1ELi1ELi3EEEEEKNSE_IKNSD_IKNSD_IKNSD_INSJ_IfLi3ELi3ELi0ELi3ELi3EEELin1ELin1ELb0EEELin1ELi1ELb1EEELin1ELi1ELb0EEEEEEEEELin1ELi1ELb0EEESA_E4typeEKS11_EERKS5_RKNS_10MatrixBaseIS11_EE, symObjAddr: 0x24A40, symBinAddr: 0x100028D2C, symSize: 0x9C }
  - { offsetInCU: 0x133973, offset: 0x133973, size: 0x8, addend: 0x0, symName: __ZN5EigenmlIfEEKNS_13CwiseBinaryOpINS_8internal17scalar_product_opINS2_18promote_scalar_argIfT_Xsr5Eigen8internal14has_ReturnTypeINS_20ScalarBinaryOpTraitsIS5_fNS3_IS5_fEEEEEE5valueEE4typeEfEEKNS2_19plain_constant_typeINS_5BlockINS_6MatrixIfLi3ELi1ELi0ELi3ELi1EEELin1ELin1ELb0EEESA_E4typeEKSG_EERKS5_RKNS_10MatrixBaseISG_EE, symObjAddr: 0x31714, symBinAddr: 0x100035A00, symSize: 0x9C }
  - { offsetInCU: 0x1339B6, offset: 0x1339B6, size: 0x8, addend: 0x0, symName: __ZN5EigenmlIfEEKNS_13CwiseBinaryOpINS_8internal17scalar_product_opINS2_18promote_scalar_argIfT_Xsr5Eigen8internal14has_ReturnTypeINS_20ScalarBinaryOpTraitsIS5_fNS3_IS5_fEEEEEE5valueEE4typeEfEEKNS2_19plain_constant_typeINS_6MatrixIfLin1ELin1ELi0ELi3ELi1EEESA_E4typeEKSE_EERKS5_RKNS_10MatrixBaseISE_EE, symObjAddr: 0x4A398, symBinAddr: 0x10004E684, symSize: 0x9C }
  - { offsetInCU: 0x1339F9, offset: 0x1339F9, size: 0x8, addend: 0x0, symName: __ZN5EigenmlIfEEKNS_13CwiseBinaryOpINS_8internal17scalar_product_opINS2_18promote_scalar_argIfT_Xsr5Eigen8internal14has_ReturnTypeINS_20ScalarBinaryOpTraitsIS5_fNS3_IS5_fEEEEEE5valueEE4typeEfEEKNS2_19plain_constant_typeINS_3MapINS_6MatrixIfLi1ELin1ELi1ELi1ELi1EEELi0ENS_6StrideILi0ELi0EEEEESA_E4typeEKSI_EERKS5_RKNS_10MatrixBaseISI_EE, symObjAddr: 0x4CB48, symBinAddr: 0x100050E34, symSize: 0x9C }
  - { offsetInCU: 0x133A3C, offset: 0x133A3C, size: 0x8, addend: 0x0, symName: __ZN5EigenmlIfEEKNS_13CwiseBinaryOpINS_8internal17scalar_product_opINS2_18promote_scalar_argIfT_Xsr5Eigen8internal14has_ReturnTypeINS_20ScalarBinaryOpTraitsIS5_fNS3_IS5_fEEEEEE5valueEE4typeEfEEKNS2_19plain_constant_typeINS_5BlockIKNS_6MatrixIfLi3ELi3ELi0ELi3ELi3EEELin1ELi1ELb0EEESA_E4typeEKSH_EERKS5_RKNS_10MatrixBaseISH_EE, symObjAddr: 0x4CC48, symBinAddr: 0x100050F34, symSize: 0x9C }
  - { offsetInCU: 0x136E5D, offset: 0x136E5D, size: 0x8, addend: 0x0, symName: __ZN5EigenmlIfEEKNS_13CwiseBinaryOpINS_8internal17scalar_product_opINS2_18promote_scalar_argIfT_Xsr5Eigen8internal14has_ReturnTypeINS_20ScalarBinaryOpTraitsIS5_fNS3_IS5_fEEEEEE5valueEE4typeEfEEKNS2_19plain_constant_typeINS_5BlockIKNSD_IKNS_3MapIKNS_6MatrixIfLin1ELin1ELi0ELin1ELin1EEELi0ENS_11OuterStrideILin1EEEEELin1ELi1ELb1EEELin1ELi1ELb0EEESA_E4typeEKSO_EERKS5_RKNS_10MatrixBaseISO_EE, symObjAddr: 0x58BDC, symBinAddr: 0x10005CEC8, symSize: 0x9C }
  - { offsetInCU: 0x13ABEB, offset: 0x13ABEB, size: 0x8, addend: 0x0, symName: __ZNSt3__124__put_character_sequenceB8ue170006IcNS_11char_traitsIcEEEERNS_13basic_ostreamIT_T0_EES7_PKS4_m, symObjAddr: 0x18F0, symBinAddr: 0x100005BDC, symSize: 0x1EC }
  - { offsetInCU: 0x13CB6E, offset: 0x13CB6E, size: 0x8, addend: 0x0, symName: __ZNSt3__1lsB8ue170006INS_11char_traitsIcEEEERNS_13basic_ostreamIcT_EES6_PKc, symObjAddr: 0xA60, symBinAddr: 0x100004D4C, symSize: 0x48 }
  - { offsetInCU: 0x13CBB4, offset: 0x13CBB4, size: 0x8, addend: 0x0, symName: __ZNSt3__14endlB8ue170006IcNS_11char_traitsIcEEEERNS_13basic_ostreamIT_T0_EES7_, symObjAddr: 0xAD4, symBinAddr: 0x100004DC0, symSize: 0x58 }
  - { offsetInCU: 0x13CBF4, offset: 0x13CBF4, size: 0x8, addend: 0x0, symName: __ZNSt3__116__pad_and_outputB8ue170006IcNS_11char_traitsIcEEEENS_19ostreambuf_iteratorIT_T0_EES6_PKS4_S8_S8_RNS_8ios_baseES4_, symObjAddr: 0x1B2C, symBinAddr: 0x100005E18, symSize: 0x240 }
  - { offsetInCU: 0x13CCC3, offset: 0x13CCC3, size: 0x8, addend: 0x0, symName: __ZNSt3__112__to_addressB8ue170006IKcEEPT_S3_, symObjAddr: 0x2094, symBinAddr: 0x100006380, symSize: 0x14 }
  - { offsetInCU: 0x13CD2B, offset: 0x13CD2B, size: 0x8, addend: 0x0, symName: __ZNSt3__19use_facetB8ue170006INS_5ctypeIcEEEERKT_RKNS_6localeE, symObjAddr: 0x2314, symBinAddr: 0x100006600, symSize: 0x2C }
  - { offsetInCU: 0x13D202, offset: 0x13D202, size: 0x8, addend: 0x0, symName: __ZNSt3__118__constexpr_strlenB8ue170006EPKc, symObjAddr: 0x23AC, symBinAddr: 0x100006698, symSize: 0x24 }
  - { offsetInCU: 0x13D22E, offset: 0x13D22E, size: 0x8, addend: 0x0, symName: __ZNSt3__1lsB8ue170006IcNS_11char_traitsIcEENS_9allocatorIcEEEERNS_13basic_ostreamIT_T0_EES9_RKNS_12basic_stringIS6_S7_T1_EE, symObjAddr: 0x2AA0, symBinAddr: 0x100006D8C, symSize: 0x4C }
  - { offsetInCU: 0x13DBCE, offset: 0x13DBCE, size: 0x8, addend: 0x0, symName: __ZNSt3__13maxB8ue170006IlEERKT_S3_S3_, symObjAddr: 0x2C90, symBinAddr: 0x100006F7C, symSize: 0x2C }
  - { offsetInCU: 0x13DC1C, offset: 0x13DC1C, size: 0x8, addend: 0x0, symName: __ZNSt3__13maxB8ue170006IlNS_6__lessIvvEEEERKT_S5_S5_T0_, symObjAddr: 0x3288, symBinAddr: 0x100007574, symSize: 0x54 }
  - { offsetInCU: 0x13DD1F, offset: 0x13DD1F, size: 0x8, addend: 0x0, symName: __ZNSt3__13minB8ue170006IlEERKT_S3_S3_, symObjAddr: 0x41D0, symBinAddr: 0x1000084BC, symSize: 0x2C }
  - { offsetInCU: 0x13DD62, offset: 0x13DD62, size: 0x8, addend: 0x0, symName: __ZNSt3__13minB8ue170006IlNS_6__lessIvvEEEERKT_S5_S5_T0_, symObjAddr: 0x44CC, symBinAddr: 0x1000087B8, symSize: 0x54 }
  - { offsetInCU: 0x13DDBC, offset: 0x13DDBC, size: 0x8, addend: 0x0, symName: __ZNSt3__14swapB8ue170006IfEENS_9enable_ifIXaasr21is_move_constructibleIT_EE5valuesr18is_move_assignableIS2_EE5valueEvE4typeERS2_S5_, symObjAddr: 0x6720, symBinAddr: 0x10000AA0C, symSize: 0x3C }
  - { offsetInCU: 0x13E00E, offset: 0x13E00E, size: 0x8, addend: 0x0, symName: __ZNSt3__13maxB8ue170006IfEERKT_S3_S3_, symObjAddr: 0x8BFC, symBinAddr: 0x10000CEE8, symSize: 0x2C }
  - { offsetInCU: 0x13E051, offset: 0x13E051, size: 0x8, addend: 0x0, symName: __ZNSt3__13maxB8ue170006IfNS_6__lessIvvEEEERKT_S5_S5_T0_, symObjAddr: 0x8C28, symBinAddr: 0x10000CF14, symSize: 0x54 }
  - { offsetInCU: 0x13E0AB, offset: 0x13E0AB, size: 0x8, addend: 0x0, symName: __ZNSt3__14swapB8ue170006IiEENS_9enable_ifIXaasr21is_move_constructibleIT_EE5valuesr18is_move_assignableIS2_EE5valueEvE4typeERS2_S5_, symObjAddr: 0x1C1B4, symBinAddr: 0x1000204A0, symSize: 0x3C }
  - { offsetInCU: 0x13E0FC, offset: 0x13E0FC, size: 0x8, addend: 0x0, symName: __ZNSt3__16fill_nB8ue170006IPflfEET_S2_T0_RKT1_, symObjAddr: 0x1D518, symBinAddr: 0x100021804, symSize: 0x44 }
  - { offsetInCU: 0x13E15F, offset: 0x13E15F, size: 0x8, addend: 0x0, symName: __ZNSt3__18__fill_nB8ue170006IPflfEET_S2_T0_RKT1_, symObjAddr: 0x1D5D8, symBinAddr: 0x1000218C4, symSize: 0x64 }
  - { offsetInCU: 0x13E1C2, offset: 0x13E1C2, size: 0x8, addend: 0x0, symName: __ZNSt3__121__convert_to_integralB8ue170006El, symObjAddr: 0x1D63C, symBinAddr: 0x100021928, symSize: 0x14 }
  - { offsetInCU: 0x13E65F, offset: 0x13E65F, size: 0x8, addend: 0x0, symName: __ZN5Eigen8internal32triangular_matrix_vector_productIlLi6EfLb0EfLb0ELi1ELi0EE3runEllPKflS4_lPflRS3_, symObjAddr: 0x24488, symBinAddr: 0x100028774, symSize: 0x4C0 }
  - { offsetInCU: 0x13E67F, offset: 0x13E67F, size: 0x8, addend: 0x0, symName: __ZZN5Eigen8internal32triangular_matrix_vector_productIlLi6EfLb0EfLb0ELi1ELi0EE3runEllPKflS4_lPflRS3_E10PanelWidth, symObjAddr: 0x62368, symBinAddr: 0x10006D708, symSize: 0x0 }
  - { offsetInCU: 0x13E9AE, offset: 0x13E9AE, size: 0x8, addend: 0x0, symName: __ZN5Eigen8internal23triangular_solve_vectorIfflLi1ELi2ELb0ELi0EE3runElPKflPf, symObjAddr: 0x57494, symBinAddr: 0x10005B780, symSize: 0x430 }
  - { offsetInCU: 0x13E9CD, offset: 0x13E9CD, size: 0x8, addend: 0x0, symName: __ZZN5Eigen8internal23triangular_solve_vectorIfflLi1ELi2ELb0ELi0EE3runElPKflPfE10PanelWidth, symObjAddr: 0x62370, symBinAddr: 0x10006D710, symSize: 0x0 }
  - { offsetInCU: 0x142364, offset: 0x142364, size: 0x8, addend: 0x0, symName: __ZN5Eigen8internal18redux_vec_unrollerINS0_13scalar_sum_opIffEENS0_15redux_evaluatorINS_12CwiseUnaryOpINS0_14scalar_abs2_opIfEEKNS_5BlockINS_6MatrixIfLi3ELi3ELi0ELi3ELi3EEELi3ELi1ELb1EEEEEEELi0ELi1EE3runI18__simd64_float32_tEET_RKSE_RKS3_, symObjAddr: 0x7E20, symBinAddr: 0x10000C10C, symSize: 0x30 }
  - { offsetInCU: 0x14243F, offset: 0x14243F, size: 0x8, addend: 0x0, symName: __ZN5Eigen8internal18redux_vec_unrollerINS0_13scalar_max_opIffLi0EEENS0_15redux_evaluatorINS_6MatrixIfLi1ELi3ELi1ELi1ELi3EEEEELi0ELi1EE3runI18__simd64_float32_tEET_RKS7_RKS3_, symObjAddr: 0x897C, symBinAddr: 0x10000CC68, symSize: 0x30 }
  - { offsetInCU: 0x1439AD, offset: 0x1439AD, size: 0x8, addend: 0x0, symName: __ZN5Eigen8internal21dense_assignment_loopINS0_31generic_dense_assignment_kernelINS0_9evaluatorINS_5BlockINS4_INS4_INS_6MatrixIfLi3ELi3ELi0ELi3ELi3EEELi3ELi1ELb1EEELin1ELi1ELb0EEELin1ELi1ELb0EEEEENS3_INS_14CwiseNullaryOpINS0_18scalar_constant_opIfEENS5_IfLin1ELi1ELi0ELi3ELi1EEEEEEENS0_9assign_opIffEELi0EEELi3ELi0EE3runERSJ_, symObjAddr: 0xDB6C, symBinAddr: 0x100011E58, symSize: 0xC0 }
  - { offsetInCU: 0x143B2E, offset: 0x143B2E, size: 0x8, addend: 0x0, symName: __ZN5Eigen8internal21dense_assignment_loopINS0_31generic_dense_assignment_kernelINS0_9evaluatorINS_5BlockINS4_INS4_INS_6MatrixIfLi3ELi3ELi0ELi3ELi3EEELi3ELi1ELb1EEELin1ELi1ELb0EEELin1ELi1ELb0EEEEENS3_INS_13CwiseBinaryOpINS0_18scalar_quotient_opIffEEKNS4_IKS8_Lin1ELi1ELb0EEEKNS_14CwiseNullaryOpINS0_18scalar_constant_opIfEEKNS5_IfLin1ELi1ELi0ELi3ELi1EEEEEEEEENS0_9assign_opIffEELi0EEELi3ELi0EE3runERSS_, symObjAddr: 0xEED0, symBinAddr: 0x1000131BC, symSize: 0xC0 }
  - { offsetInCU: 0x1453A8, offset: 0x1453A8, size: 0x8, addend: 0x0, symName: __ZN5Eigen8internal21dense_assignment_loopINS0_31generic_dense_assignment_kernelINS0_9evaluatorINS_6MatrixIfLin1ELi1ELi0ELi3ELi1EEEEENS3_INS_13CwiseBinaryOpINS0_17scalar_product_opIffEEKNS_14CwiseNullaryOpINS0_18scalar_constant_opIfEEKS5_EEKNS_5BlockINSG_INS4_IfLi3ELi3ELi0ELi3ELi3EEELi3ELi1ELb1EEELin1ELi1ELb0EEEEEEENS0_9assign_opIffEELi0EEELi3ELi0EE3runERSP_, symObjAddr: 0x18378, symBinAddr: 0x10001C664, symSize: 0xC0 }
  - { offsetInCU: 0x1476D2, offset: 0x1476D2, size: 0x8, addend: 0x0, symName: __ZN5Eigen8internal21dense_assignment_loopINS0_31generic_dense_assignment_kernelINS0_9evaluatorINS_5BlockINS4_INS_6MatrixIfLin1ELin1ELi1ELin1ELin1EEELi1ELin1ELb1EEELi1ELin1ELb0EEEEENS3_INS_14CwiseNullaryOpINS0_18scalar_constant_opIfEENS5_IfLi1ELin1ELi1ELi1ELin1EEEEEEENS0_9assign_opIffEELi0EEELi3ELi0EE3runERSI_, symObjAddr: 0x23470, symBinAddr: 0x10002775C, symSize: 0xC0 }
  - { offsetInCU: 0x1482EE, offset: 0x1482EE, size: 0x8, addend: 0x0, symName: __ZN5Eigen8internal29general_matrix_vector_productIlfNS0_22const_blas_data_mapperIflLi1EEELi1ELb0EfS3_Lb0ELi1EE3runEllRKS3_S6_Pflf, symObjAddr: 0x254E0, symBinAddr: 0x1000297CC, symSize: 0x18CC }
  - { offsetInCU: 0x14A0FF, offset: 0x14A0FF, size: 0x8, addend: 0x0, symName: __ZN5Eigen8internal21dense_assignment_loopINS0_31generic_dense_assignment_kernelINS0_9evaluatorINS_5BlockINS_9TransposeINS4_INS4_INS_6MatrixIfLin1ELin1ELi1ELin1ELin1EEELi1ELin1ELb1EEELi1ELin1ELb0EEEEELin1ELi1ELb0EEEEENS3_INS_13CwiseBinaryOpINS0_17scalar_product_opIffEEKNS_14CwiseNullaryOpINS0_18scalar_constant_opIfEEKNS6_IfLin1ELi1ELi0ELi3ELi1EEEEEKNS4_IKNS5_IKNSD_ISF_KNSG_ISI_KNS6_IfLi1ELin1ELi1ELi1ELi3EEEEEKNS5_IKNS4_IKNS4_IKNS4_INS6_IfLi3ELi3ELi0ELi3ELi3EEELin1ELin1ELb0EEELin1ELi1ELb1EEELin1ELi1ELb0EEEEEEEEELin1ELi1ELb0EEEEEEENS0_13sub_assign_opIffEELi0EEELi3ELi0EE3runERS1A_, symObjAddr: 0x2B984, symBinAddr: 0x10002FC70, symSize: 0xC0 }
  - { offsetInCU: 0x14A573, offset: 0x14A573, size: 0x8, addend: 0x0, symName: __ZN5Eigen8internal21dense_assignment_loopINS0_31generic_dense_assignment_kernelINS0_9evaluatorINS_5BlockINS4_INS_6MatrixIfLin1ELin1ELi1ELin1ELin1EEELi1ELin1ELb1EEELi1ELin1ELb0EEEEENS3_INS_13CwiseBinaryOpINS0_17scalar_product_opIffEEKNS_14CwiseNullaryOpINS0_18scalar_constant_opIfEEKNS5_IfLi1ELin1ELi1ELi1ELin1EEEEEKS8_EEEENS0_13add_assign_opIffEELi0EEELi3ELi0EE3runERSP_, symObjAddr: 0x2E1FC, symBinAddr: 0x1000324E8, symSize: 0xC0 }
  - { offsetInCU: 0x14B5D0, offset: 0x14B5D0, size: 0x8, addend: 0x0, symName: __ZN5Eigen8internal13gemm_pack_lhsIflNS0_22const_blas_data_mapperIflLi1EEELi12ELi4E19__simd128_float32_tLi1ELb0ELb0EEclEPfRKS3_llll, symObjAddr: 0x32428, symBinAddr: 0x100036714, symSize: 0x9C0 }
  - { offsetInCU: 0x14BB6D, offset: 0x14BB6D, size: 0x8, addend: 0x0, symName: __ZN5Eigen8internal11gebp_kernelIfflNS0_16blas_data_mapperIflLi0ELi0ELi1EEELi12ELi4ELb0ELb0EEclERKS3_PKfS8_lllfllll, symObjAddr: 0x32E40, symBinAddr: 0x10003712C, symSize: 0x57A0 }
  - { offsetInCU: 0x14E9DE, offset: 0x14E9DE, size: 0x8, addend: 0x0, symName: __ZN5Eigen8internal21dense_assignment_loopINS0_31generic_dense_assignment_kernelINS0_9evaluatorINS_6MatrixIfLin1ELin1ELi0ELi3ELi1EEEEENS3_INS4_IfLin1ELin1ELi0ELin1ELi1EEEEENS0_9assign_opIffEELi0EEELi3ELi0EE3runERSB_, symObjAddr: 0x43DF8, symBinAddr: 0x1000480E4, symSize: 0xC0 }
  - { offsetInCU: 0x14EFF4, offset: 0x14EFF4, size: 0x8, addend: 0x0, symName: __ZN5Eigen8internal13gemm_pack_lhsIflNS0_22const_blas_data_mapperIflLi0EEELi12ELi4E19__simd128_float32_tLi0ELb0ELb0EEclEPfRKS3_llll, symObjAddr: 0x463D0, symBinAddr: 0x10004A6BC, symSize: 0x83C }
  - { offsetInCU: 0x150C9C, offset: 0x150C9C, size: 0x8, addend: 0x0, symName: __ZN5Eigen8internal21dense_assignment_loopINS0_31generic_dense_assignment_kernelINS0_9evaluatorINS_6MatrixIfLin1ELi1ELi0ELi3ELi1EEEEENS3_INS_13CwiseBinaryOpINS0_17scalar_product_opIffEEKNS_14CwiseNullaryOpINS0_18scalar_constant_opIfEEKS5_EEKNS_5BlockIKNS4_IfLi3ELi3ELi0ELi3ELi3EEELin1ELi1ELb0EEEEEEENS0_9assign_opIffEELi0EEELi3ELi0EE3runERSP_, symObjAddr: 0x543FC, symBinAddr: 0x1000586E8, symSize: 0xC0 }
  - { offsetInCU: 0x15125A, offset: 0x15125A, size: 0x8, addend: 0x0, symName: __ZN5Eigen8internal21dense_assignment_loopINS0_31generic_dense_assignment_kernelINS0_9evaluatorINS_3MapINS_6MatrixIfLin1ELi1ELi0ELin1ELi1EEELi16ENS_6StrideILi0ELi0EEEEEEENS3_INS_5BlockINS5_IfLi3ELi1ELi0ELi3ELi1EEELin1ELi1ELb0EEEEENS0_9assign_opIffEELi0EEELi3ELi0EE3runERSH_, symObjAddr: 0x58120, symBinAddr: 0x10005C40C, symSize: 0xA8 }
  - { offsetInCU: 0x151CBE, offset: 0x151CBE, size: 0x8, addend: 0x0, symName: __ZN5Eigen8internal21dense_assignment_loopINS0_31generic_dense_assignment_kernelINS0_9evaluatorINS_3MapINS_6MatrixIfLin1ELi1ELi0ELin1ELi1EEELi0ENS_6StrideILi0ELi0EEEEEEENS3_INS_13CwiseBinaryOpINS0_17scalar_product_opIffEEKNS_14CwiseNullaryOpINS0_18scalar_constant_opIfEEKS6_EEKNS_5BlockIKNSK_IKNS4_IKNS5_IfLin1ELin1ELi0ELin1ELin1EEELi0ENS_11OuterStrideILin1EEEEELin1ELi1ELb1EEELin1ELi1ELb0EEEEEEENS0_13sub_assign_opIffEELi0EEELi3ELi0EE3runERSZ_, symObjAddr: 0x5BFCC, symBinAddr: 0x1000602B8, symSize: 0xC0 }
  - { offsetInCU: 0x151D59, offset: 0x151D59, size: 0x8, addend: 0x0, symName: __ZN5Eigen8internal29general_matrix_vector_productIlfNS0_22const_blas_data_mapperIflLi0EEELi0ELb0EfS3_Lb0ELi0EE3runEllRKS3_S6_Pflf, symObjAddr: 0x58DC8, symBinAddr: 0x10005D0B4, symSize: 0x18C8 }
  - { offsetInCU: 0x152D90, offset: 0x152D90, size: 0x8, addend: 0x0, symName: __ZN5Eigen8internal21dense_assignment_loopINS0_31generic_dense_assignment_kernelINS0_9evaluatorINS_5BlockINS_6MatrixIfLi3ELi1ELi0ELi3ELi1EEELin1ELi1ELb0EEEEENS3_INS_3MapINS5_IfLin1ELi1ELi0ELin1ELi1EEELi16ENS_6StrideILi0ELi0EEEEEEENS0_9assign_opIffEELi0EEELi3ELi0EE3runERSH_, symObjAddr: 0x5D448, symBinAddr: 0x100061734, symSize: 0xC0 }
  - { offsetInCU: 0x153F49, offset: 0x153F49, size: 0x8, addend: 0x0, symName: __ZN5Eigen8internal13trmv_selectorILi6ELi1EE3runINS_9TransposeIKNS_5BlockIKNS5_INS_6MatrixIfLi3ELi3ELi0ELi3ELi3EEELin1ELin1ELb0EEELin1ELin1ELb0EEEEENS4_IKNS_13CwiseBinaryOpINS0_17scalar_product_opIffEEKNS_14CwiseNullaryOpINS0_18scalar_constant_opIfEEKNS6_IfLi1ELin1ELi1ELi1ELi3EEEEEKNS4_IKNS5_IKNS5_IS9_Lin1ELi1ELb1EEELin1ELi1ELb0EEEEEEEEENS4_INS5_INS5_INS6_IfLin1ELin1ELi1ELin1ELin1EEELi1ELin1ELb1EEELi1ELin1ELb0EEEEEEEvRKT_RKT0_RT1_RKNS16_6ScalarE, symObjAddr: 0x23E30, symBinAddr: 0x10002811C, symSize: 0x3B8 }
  - { offsetInCU: 0x1547F2, offset: 0x1547F2, size: 0x8, addend: 0x0, symName: __ZN5Eigen8internal23triangular_product_implILi6ELb1EKNS_9TransposeIKNS_5BlockINS_6MatrixIfLi3ELi3ELi0ELi3ELi3EEELin1ELin1ELb0EEEEELb0ENS3_INS4_IfLi3ELi1ELi0ELi3ELi1EEELin1ELin1ELb0EEELb0EE3runINS4_IfLin1ELin1ELi0ELi3ELi1EEEEEvRT_RS9_RKSB_RKNSF_6ScalarE, symObjAddr: 0x2FF40, symBinAddr: 0x10003422C, symSize: 0x2C0 }
  - { offsetInCU: 0x15563F, offset: 0x15563F, size: 0x8, addend: 0x0, symName: __ZN5Eigen8internal23triangular_product_implILi5ELb1EKNS_5BlockINS_6MatrixIfLi3ELi3ELi0ELi3ELi3EEELin1ELin1ELb0EEELb0ENS3_IfLin1ELin1ELi0ELi3ELi1EEELb0EE3runINS2_INS3_IfLi3ELi1ELi0ELi3ELi1EEELin1ELin1ELb0EEEEEvRT_RS6_RKS7_RKNSC_6ScalarE, symObjAddr: 0x48E84, symBinAddr: 0x10004D170, symSize: 0x2A8 }
  - { offsetInCU: 0x158A63, offset: 0x158A63, size: 0x8, addend: 0x0, symName: __ZN5Eigen8symbolic10SymbolExprINS_8internal17symbolic_last_tagEEC1Ev, symObjAddr: 0x0, symBinAddr: 0x1000042EC, symSize: 0x2C }
  - { offsetInCU: 0x158A8D, offset: 0x158A8D, size: 0x8, addend: 0x0, symName: __ZNK5Eigen8symbolic8BaseExprINS0_10SymbolExprINS_8internal17symbolic_last_tagEEEEplILi1EEENS0_7AddExprIS5_NS0_9ValueExprINS3_8FixedIntIXT_EEEEEEESB_, symObjAddr: 0x2C, symBinAddr: 0x100004318, symSize: 0x48 }
  - { offsetInCU: 0x158AC8, offset: 0x158AC8, size: 0x8, addend: 0x0, symName: __ZNK5Eigen8internal8FixedIntILi1EEclEv, symObjAddr: 0x74, symBinAddr: 0x100004360, symSize: 0x10 }
  - { offsetInCU: 0x158AEE, offset: 0x158AEE, size: 0x8, addend: 0x0, symName: __ZN5Eigen8internal5all_tC1Ev, symObjAddr: 0x84, symBinAddr: 0x100004370, symSize: 0x2C }
  - { offsetInCU: 0x158B18, offset: 0x158B18, size: 0x8, addend: 0x0, symName: _main, symObjAddr: 0xB0, symBinAddr: 0x10000439C, symSize: 0x308 }
  - { offsetInCU: 0x158B5E, offset: 0x158B5E, size: 0x8, addend: 0x0, symName: __ZN5Eigen6MatrixIfLi3ELi3ELi0ELi3ELi3EEC1Ev, symObjAddr: 0x3B8, symBinAddr: 0x1000046A4, symSize: 0x2C }
  - { offsetInCU: 0x158B88, offset: 0x158B88, size: 0x8, addend: 0x0, symName: __ZN5Eigen6MatrixIfLi3ELi1ELi0ELi3ELi1EEC1Ev, symObjAddr: 0x3E4, symBinAddr: 0x1000046D0, symSize: 0x2C }
  - { offsetInCU: 0x158BB2, offset: 0x158BB2, size: 0x8, addend: 0x0, symName: __ZN5Eigen9DenseBaseINS_6MatrixIfLi3ELi3ELi0ELi3ELi3EEEElsERKf, symObjAddr: 0x410, symBinAddr: 0x1000046FC, symSize: 0x40 }
  - { offsetInCU: 0x158BE9, offset: 0x158BE9, size: 0x8, addend: 0x0, symName: __ZN5Eigen16CommaInitializerINS_6MatrixIfLi3ELi3ELi0ELi3ELi3EEEEcmERKf, symObjAddr: 0x450, symBinAddr: 0x10000473C, symSize: 0x1B8 }
  - { offsetInCU: 0x158C1D, offset: 0x158C1D, size: 0x8, addend: 0x0, symName: __ZN5Eigen16CommaInitializerINS_6MatrixIfLi3ELi3ELi0ELi3ELi3EEEED1Ev, symObjAddr: 0x608, symBinAddr: 0x1000048F4, symSize: 0x2C }
  - { offsetInCU: 0x158C47, offset: 0x158C47, size: 0x8, addend: 0x0, symName: __ZN5Eigen9DenseBaseINS_6MatrixIfLi3ELi1ELi0ELi3ELi1EEEElsERKf, symObjAddr: 0x634, symBinAddr: 0x100004920, symSize: 0x40 }
  - { offsetInCU: 0x158C7E, offset: 0x158C7E, size: 0x8, addend: 0x0, symName: __ZN5Eigen16CommaInitializerINS_6MatrixIfLi3ELi1ELi0ELi3ELi1EEEEcmERKf, symObjAddr: 0x674, symBinAddr: 0x100004960, symSize: 0x1B8 }
  - { offsetInCU: 0x158CB2, offset: 0x158CB2, size: 0x8, addend: 0x0, symName: __ZN5Eigen16CommaInitializerINS_6MatrixIfLi3ELi1ELi0ELi3ELi1EEEED1Ev, symObjAddr: 0x82C, symBinAddr: 0x100004B18, symSize: 0x2C }
  - { offsetInCU: 0x158CDC, offset: 0x158CDC, size: 0x8, addend: 0x0, symName: __ZNSt3__113basic_ostreamIcNS_11char_traitsIcEEElsB8ue170006EPFRS3_S4_E, symObjAddr: 0xAA8, symBinAddr: 0x100004D94, symSize: 0x2C }
  - { offsetInCU: 0x158D10, offset: 0x158D10, size: 0x8, addend: 0x0, symName: __ZNK5Eigen10MatrixBaseINS_6MatrixIfLi3ELi3ELi0ELi3ELi3EEEE19colPivHouseholderQrEv, symObjAddr: 0xD34, symBinAddr: 0x100005020, symSize: 0x38 }
  - { offsetInCU: 0x158D39, offset: 0x158D39, size: 0x8, addend: 0x0, symName: __ZNK5Eigen10SolverBaseINS_19ColPivHouseholderQRINS_6MatrixIfLi3ELi3ELi0ELi3ELi3EEEEEE5solveINS2_IfLi3ELi1ELi0ELi3ELi1EEEEEKNS_5SolveIS4_T_EERKNS_10MatrixBaseIS9_EE, symObjAddr: 0xD6C, symBinAddr: 0x100005058, symSize: 0x60 }
  - { offsetInCU: 0x158D7B, offset: 0x158D7B, size: 0x8, addend: 0x0, symName: __ZN5Eigen6MatrixIfLi3ELi1ELi0ELi3ELi1EEC1INS_5SolveINS_19ColPivHouseholderQRINS0_IfLi3ELi3ELi0ELi3ELi3EEEEES1_EEEERKNS_9EigenBaseIT_EE, symObjAddr: 0xDCC, symBinAddr: 0x1000050B8, symSize: 0x34 }
  - { offsetInCU: 0x158DBD, offset: 0x158DBD, size: 0x8, addend: 0x0, symName: __ZN5Eigen19ColPivHouseholderQRINS_6MatrixIfLi3ELi3ELi0ELi3ELi3EEEED1Ev, symObjAddr: 0xE00, symBinAddr: 0x1000050EC, symSize: 0x2C }
  - { offsetInCU: 0x158DEA, offset: 0x158DEA, size: 0x8, addend: 0x0, symName: __ZN5Eigen8internal8FixedIntILi1EEC1Ev, symObjAddr: 0xE2C, symBinAddr: 0x100005118, symSize: 0x2C }
  - { offsetInCU: 0x158E14, offset: 0x158E14, size: 0x8, addend: 0x0, symName: __ZN5Eigen8internal8FixedIntILi0EEC1Ev, symObjAddr: 0xE58, symBinAddr: 0x100005144, symSize: 0x2C }
  - { offsetInCU: 0x158E3E, offset: 0x158E3E, size: 0x8, addend: 0x0, symName: __ZN5Eigen8internal8FixedIntILi2EEC1Ev, symObjAddr: 0xE84, symBinAddr: 0x100005170, symSize: 0x2C }
  - { offsetInCU: 0x158E68, offset: 0x158E68, size: 0x8, addend: 0x0, symName: __ZN5Eigen8internal8FixedIntILi3EEC1Ev, symObjAddr: 0xEB0, symBinAddr: 0x10000519C, symSize: 0x2C }
  - { offsetInCU: 0x158E92, offset: 0x158E92, size: 0x8, addend: 0x0, symName: __ZN5Eigen8internal5all_tC2Ev, symObjAddr: 0xEDC, symBinAddr: 0x1000051C8, symSize: 0x14 }
  - { offsetInCU: 0x158EBC, offset: 0x158EBC, size: 0x8, addend: 0x0, symName: __ZN5Eigen19ColPivHouseholderQRINS_6MatrixIfLi3ELi3ELi0ELi3ELi3EEEED2Ev, symObjAddr: 0xEF0, symBinAddr: 0x1000051DC, symSize: 0x2C }
  - { offsetInCU: 0x158EE9, offset: 0x158EE9, size: 0x8, addend: 0x0, symName: __ZN5Eigen10SolverBaseINS_19ColPivHouseholderQRINS_6MatrixIfLi3ELi3ELi0ELi3ELi3EEEEEED2Ev, symObjAddr: 0xF1C, symBinAddr: 0x100005208, symSize: 0x14 }
  - { offsetInCU: 0x158F13, offset: 0x158F13, size: 0x8, addend: 0x0, symName: __ZN5Eigen8symbolic10SymbolExprINS_8internal17symbolic_last_tagEEC2Ev, symObjAddr: 0xF30, symBinAddr: 0x10000521C, symSize: 0x14 }
  - { offsetInCU: 0x158F3D, offset: 0x158F3D, size: 0x8, addend: 0x0, symName: __ZN5Eigen8internal8FixedIntILi1EEC2Ev, symObjAddr: 0xF44, symBinAddr: 0x100005230, symSize: 0x14 }
  - { offsetInCU: 0x158F67, offset: 0x158F67, size: 0x8, addend: 0x0, symName: __ZNK5Eigen8symbolic8BaseExprINS0_10SymbolExprINS_8internal17symbolic_last_tagEEEE7derivedEv, symObjAddr: 0xF58, symBinAddr: 0x100005244, symSize: 0x14 }
  - { offsetInCU: 0x158F8D, offset: 0x158F8D, size: 0x8, addend: 0x0, symName: __ZN5Eigen8symbolic9ValueExprINS_8internal8FixedIntILi1EEEEC1Ev, symObjAddr: 0xF6C, symBinAddr: 0x100005258, symSize: 0x2C }
  - { offsetInCU: 0x158FB7, offset: 0x158FB7, size: 0x8, addend: 0x0, symName: __ZN5Eigen8symbolic7AddExprINS0_10SymbolExprINS_8internal17symbolic_last_tagEEENS0_9ValueExprINS3_8FixedIntILi1EEEEEEC1ERKS5_RKS9_, symObjAddr: 0xF98, symBinAddr: 0x100005284, symSize: 0x3C }
  - { offsetInCU: 0x158FFD, offset: 0x158FFD, size: 0x8, addend: 0x0, symName: __ZN5Eigen8symbolic9ValueExprINS_8internal8FixedIntILi1EEEEC2Ev, symObjAddr: 0xFD4, symBinAddr: 0x1000052C0, symSize: 0x14 }
  - { offsetInCU: 0x159027, offset: 0x159027, size: 0x8, addend: 0x0, symName: __ZN5Eigen8symbolic7AddExprINS0_10SymbolExprINS_8internal17symbolic_last_tagEEENS0_9ValueExprINS3_8FixedIntILi1EEEEEEC2ERKS5_RKS9_, symObjAddr: 0xFE8, symBinAddr: 0x1000052D4, symSize: 0x1C }
  - { offsetInCU: 0x15906D, offset: 0x15906D, size: 0x8, addend: 0x0, symName: __ZN5Eigen6MatrixIfLi3ELi3ELi0ELi3ELi3EEC2Ev, symObjAddr: 0x1004, symBinAddr: 0x1000052F0, symSize: 0x30 }
  - { offsetInCU: 0x159097, offset: 0x159097, size: 0x8, addend: 0x0, symName: __ZN5Eigen15PlainObjectBaseINS_6MatrixIfLi3ELi3ELi0ELi3ELi3EEEEC2Ev, symObjAddr: 0x1034, symBinAddr: 0x100005320, symSize: 0x34 }
  - { offsetInCU: 0x1590C1, offset: 0x1590C1, size: 0x8, addend: 0x0, symName: __ZN5Eigen15PlainObjectBaseINS_6MatrixIfLi3ELi3ELi0ELi3ELi3EEEE22_check_template_paramsEv, symObjAddr: 0x1068, symBinAddr: 0x100005354, symSize: 0x4 }
  - { offsetInCU: 0x1590D5, offset: 0x1590D5, size: 0x8, addend: 0x0, symName: __ZN5Eigen10MatrixBaseINS_6MatrixIfLi3ELi3ELi0ELi3ELi3EEEEC2Ev, symObjAddr: 0x106C, symBinAddr: 0x100005358, symSize: 0x2C }
  - { offsetInCU: 0x1590FF, offset: 0x1590FF, size: 0x8, addend: 0x0, symName: __ZN5Eigen12DenseStorageIfLi9ELi3ELi3ELi0EEC1Ev, symObjAddr: 0x1098, symBinAddr: 0x100005384, symSize: 0x2C }
  - { offsetInCU: 0x159129, offset: 0x159129, size: 0x8, addend: 0x0, symName: __ZN5Eigen9DenseBaseINS_6MatrixIfLi3ELi3ELi0ELi3ELi3EEEEC2Ev, symObjAddr: 0x10C4, symBinAddr: 0x1000053B0, symSize: 0x14 }
  - { offsetInCU: 0x159153, offset: 0x159153, size: 0x8, addend: 0x0, symName: __ZN5Eigen12DenseStorageIfLi9ELi3ELi3ELi0EEC2Ev, symObjAddr: 0x10D8, symBinAddr: 0x1000053C4, symSize: 0x2C }
  - { offsetInCU: 0x15917D, offset: 0x15917D, size: 0x8, addend: 0x0, symName: __ZN5Eigen8internal11plain_arrayIfLi9ELi0ELi0EEC1Ev, symObjAddr: 0x1104, symBinAddr: 0x1000053F0, symSize: 0x2C }
  - { offsetInCU: 0x1591A7, offset: 0x1591A7, size: 0x8, addend: 0x0, symName: __ZN5Eigen8internal11plain_arrayIfLi9ELi0ELi0EEC2Ev, symObjAddr: 0x1130, symBinAddr: 0x10000541C, symSize: 0x2C }
  - { offsetInCU: 0x1591D1, offset: 0x1591D1, size: 0x8, addend: 0x0, symName: __ZN5Eigen6MatrixIfLi3ELi1ELi0ELi3ELi1EEC2Ev, symObjAddr: 0x1160, symBinAddr: 0x10000544C, symSize: 0x30 }
  - { offsetInCU: 0x1591FB, offset: 0x1591FB, size: 0x8, addend: 0x0, symName: __ZN5Eigen15PlainObjectBaseINS_6MatrixIfLi3ELi1ELi0ELi3ELi1EEEEC2Ev, symObjAddr: 0x1190, symBinAddr: 0x10000547C, symSize: 0x34 }
  - { offsetInCU: 0x159225, offset: 0x159225, size: 0x8, addend: 0x0, symName: __ZN5Eigen15PlainObjectBaseINS_6MatrixIfLi3ELi1ELi0ELi3ELi1EEEE22_check_template_paramsEv, symObjAddr: 0x11C4, symBinAddr: 0x1000054B0, symSize: 0x4 }
  - { offsetInCU: 0x159239, offset: 0x159239, size: 0x8, addend: 0x0, symName: __ZN5Eigen10MatrixBaseINS_6MatrixIfLi3ELi1ELi0ELi3ELi1EEEEC2Ev, symObjAddr: 0x11C8, symBinAddr: 0x1000054B4, symSize: 0x2C }
  - { offsetInCU: 0x159263, offset: 0x159263, size: 0x8, addend: 0x0, symName: __ZN5Eigen12DenseStorageIfLi3ELi3ELi1ELi0EEC1Ev, symObjAddr: 0x11F4, symBinAddr: 0x1000054E0, symSize: 0x2C }
  - { offsetInCU: 0x15928D, offset: 0x15928D, size: 0x8, addend: 0x0, symName: __ZN5Eigen9DenseBaseINS_6MatrixIfLi3ELi1ELi0ELi3ELi1EEEEC2Ev, symObjAddr: 0x1220, symBinAddr: 0x10000550C, symSize: 0x14 }
  - { offsetInCU: 0x1592B7, offset: 0x1592B7, size: 0x8, addend: 0x0, symName: __ZN5Eigen12DenseStorageIfLi3ELi3ELi1ELi0EEC2Ev, symObjAddr: 0x1234, symBinAddr: 0x100005520, symSize: 0x2C }
  - { offsetInCU: 0x1592E1, offset: 0x1592E1, size: 0x8, addend: 0x0, symName: __ZN5Eigen8internal11plain_arrayIfLi3ELi0ELi0EEC1Ev, symObjAddr: 0x1260, symBinAddr: 0x10000554C, symSize: 0x2C }
  - { offsetInCU: 0x15930B, offset: 0x15930B, size: 0x8, addend: 0x0, symName: __ZN5Eigen8internal11plain_arrayIfLi3ELi0ELi0EEC2Ev, symObjAddr: 0x128C, symBinAddr: 0x100005578, symSize: 0x2C }
  - { offsetInCU: 0x159335, offset: 0x159335, size: 0x8, addend: 0x0, symName: __ZN5Eigen16CommaInitializerINS_6MatrixIfLi3ELi3ELi0ELi3ELi3EEEEC1ERS2_RKf, symObjAddr: 0x12BC, symBinAddr: 0x1000055A8, symSize: 0x3C }
  - { offsetInCU: 0x15937B, offset: 0x15937B, size: 0x8, addend: 0x0, symName: __ZN5Eigen16CommaInitializerINS_6MatrixIfLi3ELi3ELi0ELi3ELi3EEEEC2ERS2_RKf, symObjAddr: 0x12F8, symBinAddr: 0x1000055E4, symSize: 0xF8 }
  - { offsetInCU: 0x1593C1, offset: 0x1593C1, size: 0x8, addend: 0x0, symName: __ZNK5Eigen15PlainObjectBaseINS_6MatrixIfLi3ELi3ELi0ELi3ELi3EEEE4rowsEv, symObjAddr: 0x13F0, symBinAddr: 0x1000056DC, symSize: 0x20 }
  - { offsetInCU: 0x1593E7, offset: 0x1593E7, size: 0x8, addend: 0x0, symName: __ZNK5Eigen15PlainObjectBaseINS_6MatrixIfLi3ELi3ELi0ELi3ELi3EEEE4colsEv, symObjAddr: 0x1410, symBinAddr: 0x1000056FC, symSize: 0x20 }
  - { offsetInCU: 0x15940D, offset: 0x15940D, size: 0x8, addend: 0x0, symName: __ZN5Eigen15PlainObjectBaseINS_6MatrixIfLi3ELi3ELi0ELi3ELi3EEEE8coeffRefEll, symObjAddr: 0x1430, symBinAddr: 0x10000571C, symSize: 0x60 }
  - { offsetInCU: 0x15944F, offset: 0x15944F, size: 0x8, addend: 0x0, symName: __ZN5Eigen12DenseStorageIfLi9ELi3ELi3ELi0EE4rowsEv, symObjAddr: 0x1490, symBinAddr: 0x10000577C, symSize: 0x8 }
  - { offsetInCU: 0x159463, offset: 0x159463, size: 0x8, addend: 0x0, symName: __ZN5Eigen12DenseStorageIfLi9ELi3ELi3ELi0EE4colsEv, symObjAddr: 0x1498, symBinAddr: 0x100005784, symSize: 0x8 }
  - { offsetInCU: 0x159477, offset: 0x159477, size: 0x8, addend: 0x0, symName: __ZN5Eigen12DenseStorageIfLi9ELi3ELi3ELi0EE4dataEv, symObjAddr: 0x14A0, symBinAddr: 0x10000578C, symSize: 0x14 }
  - { offsetInCU: 0x15949D, offset: 0x15949D, size: 0x8, addend: 0x0, symName: __ZN5Eigen16CommaInitializerINS_6MatrixIfLi3ELi3ELi0ELi3ELi3EEEED2Ev, symObjAddr: 0x14B4, symBinAddr: 0x1000057A0, symSize: 0x34 }
  - { offsetInCU: 0x1594C7, offset: 0x1594C7, size: 0x8, addend: 0x0, symName: __ZN5Eigen16CommaInitializerINS_6MatrixIfLi3ELi3ELi0ELi3ELi3EEEE8finishedEv, symObjAddr: 0x14E8, symBinAddr: 0x1000057D4, symSize: 0xE8 }
  - { offsetInCU: 0x1594ED, offset: 0x1594ED, size: 0x8, addend: 0x0, symName: __ZN5Eigen16CommaInitializerINS_6MatrixIfLi3ELi1ELi0ELi3ELi1EEEEC1ERS2_RKf, symObjAddr: 0x15DC, symBinAddr: 0x1000058C8, symSize: 0x3C }
  - { offsetInCU: 0x159533, offset: 0x159533, size: 0x8, addend: 0x0, symName: __ZN5Eigen16CommaInitializerINS_6MatrixIfLi3ELi1ELi0ELi3ELi1EEEEC2ERS2_RKf, symObjAddr: 0x1618, symBinAddr: 0x100005904, symSize: 0xF8 }
  - { offsetInCU: 0x159579, offset: 0x159579, size: 0x8, addend: 0x0, symName: __ZNK5Eigen15PlainObjectBaseINS_6MatrixIfLi3ELi1ELi0ELi3ELi1EEEE4rowsEv, symObjAddr: 0x1710, symBinAddr: 0x1000059FC, symSize: 0x20 }
  - { offsetInCU: 0x15959F, offset: 0x15959F, size: 0x8, addend: 0x0, symName: __ZNK5Eigen15PlainObjectBaseINS_6MatrixIfLi3ELi1ELi0ELi3ELi1EEEE4colsEv, symObjAddr: 0x1730, symBinAddr: 0x100005A1C, symSize: 0x20 }
  - { offsetInCU: 0x1595C5, offset: 0x1595C5, size: 0x8, addend: 0x0, symName: __ZN5Eigen15PlainObjectBaseINS_6MatrixIfLi3ELi1ELi0ELi3ELi1EEEE8coeffRefEll, symObjAddr: 0x1750, symBinAddr: 0x100005A3C, symSize: 0x60 }
  - { offsetInCU: 0x159607, offset: 0x159607, size: 0x8, addend: 0x0, symName: __ZN5Eigen12DenseStorageIfLi3ELi3ELi1ELi0EE4rowsEv, symObjAddr: 0x17B0, symBinAddr: 0x100005A9C, symSize: 0x8 }
  - { offsetInCU: 0x15961B, offset: 0x15961B, size: 0x8, addend: 0x0, symName: __ZN5Eigen12DenseStorageIfLi3ELi3ELi1ELi0EE4colsEv, symObjAddr: 0x17B8, symBinAddr: 0x100005AA4, symSize: 0x8 }
  - { offsetInCU: 0x15962F, offset: 0x15962F, size: 0x8, addend: 0x0, symName: __ZN5Eigen12DenseStorageIfLi3ELi3ELi1ELi0EE4dataEv, symObjAddr: 0x17C0, symBinAddr: 0x100005AAC, symSize: 0x14 }
  - { offsetInCU: 0x159655, offset: 0x159655, size: 0x8, addend: 0x0, symName: __ZN5Eigen16CommaInitializerINS_6MatrixIfLi3ELi1ELi0ELi3ELi1EEEED2Ev, symObjAddr: 0x17D4, symBinAddr: 0x100005AC0, symSize: 0x34 }
  - { offsetInCU: 0x15967F, offset: 0x15967F, size: 0x8, addend: 0x0, symName: __ZN5Eigen16CommaInitializerINS_6MatrixIfLi3ELi1ELi0ELi3ELi1EEEE8finishedEv, symObjAddr: 0x1808, symBinAddr: 0x100005AF4, symSize: 0xE8 }
  - { offsetInCU: 0x1596A5, offset: 0x1596A5, size: 0x8, addend: 0x0, symName: __ZNSt3__111char_traitsIcE6lengthB8ue170006EPKc, symObjAddr: 0x1ADC, symBinAddr: 0x100005DC8, symSize: 0x34 }
  - { offsetInCU: 0x1596E6, offset: 0x1596E6, size: 0x8, addend: 0x0, symName: __ZNKSt3__113basic_ostreamIcNS_11char_traitsIcEEE6sentrycvbB8ue170006Ev, symObjAddr: 0x1B10, symBinAddr: 0x100005DFC, symSize: 0x1C }
  - { offsetInCU: 0x15970C, offset: 0x15970C, size: 0x8, addend: 0x0, symName: __ZNSt3__119ostreambuf_iteratorIcNS_11char_traitsIcEEEC1B8ue170006ERNS_13basic_ostreamIcS2_EE, symObjAddr: 0x1D6C, symBinAddr: 0x100006058, symSize: 0x34 }
  - { offsetInCU: 0x159744, offset: 0x159744, size: 0x8, addend: 0x0, symName: __ZNKSt3__18ios_base5flagsB8ue170006Ev, symObjAddr: 0x1DA0, symBinAddr: 0x10000608C, symSize: 0x18 }
  - { offsetInCU: 0x15976C, offset: 0x15976C, size: 0x8, addend: 0x0, symName: __ZNKSt3__19basic_iosIcNS_11char_traitsIcEEE4fillB8ue170006Ev, symObjAddr: 0x1DB8, symBinAddr: 0x1000060A4, symSize: 0x64 }
  - { offsetInCU: 0x159794, offset: 0x159794, size: 0x8, addend: 0x0, symName: __ZNKSt3__119ostreambuf_iteratorIcNS_11char_traitsIcEEE6failedB8ue170006Ev, symObjAddr: 0x1E1C, symBinAddr: 0x100006108, symSize: 0x24 }
  - { offsetInCU: 0x1597BA, offset: 0x1597BA, size: 0x8, addend: 0x0, symName: __ZNSt3__19basic_iosIcNS_11char_traitsIcEEE8setstateB8ue170006Ej, symObjAddr: 0x1E40, symBinAddr: 0x10000612C, symSize: 0x2C }
  - { offsetInCU: 0x1597EF, offset: 0x1597EF, size: 0x8, addend: 0x0, symName: __ZNKSt3__18ios_base5widthB8ue170006Ev, symObjAddr: 0x1E6C, symBinAddr: 0x100006158, symSize: 0x18 }
  - { offsetInCU: 0x159817, offset: 0x159817, size: 0x8, addend: 0x0, symName: __ZNSt3__115basic_streambufIcNS_11char_traitsIcEEE5sputnB8ue170006EPKcl, symObjAddr: 0x1E84, symBinAddr: 0x100006170, symSize: 0x3C }
  - { offsetInCU: 0x159859, offset: 0x159859, size: 0x8, addend: 0x0, symName: __ZNSt3__112basic_stringIcNS_11char_traitsIcEENS_9allocatorIcEEEC1B8ue170006Emc, symObjAddr: 0x1EC0, symBinAddr: 0x1000061AC, symSize: 0x3C }
  - { offsetInCU: 0x1598A1, offset: 0x1598A1, size: 0x8, addend: 0x0, symName: __ZNKSt3__112basic_stringIcNS_11char_traitsIcEENS_9allocatorIcEEE4dataB8ue170006Ev, symObjAddr: 0x1EFC, symBinAddr: 0x1000061E8, symSize: 0x28 }
  - { offsetInCU: 0x1598C7, offset: 0x1598C7, size: 0x8, addend: 0x0, symName: __ZNSt3__18ios_base5widthB8ue170006El, symObjAddr: 0x1F24, symBinAddr: 0x100006210, symSize: 0x2C }
  - { offsetInCU: 0x15990D, offset: 0x15990D, size: 0x8, addend: 0x0, symName: __ZNSt3__112basic_stringIcNS_11char_traitsIcEENS_9allocatorIcEEEC2B8ue170006Emc, symObjAddr: 0x1F50, symBinAddr: 0x10000623C, symSize: 0x4C }
  - { offsetInCU: 0x15995B, offset: 0x15995B, size: 0x8, addend: 0x0, symName: __ZNSt3__117__compressed_pairINS_12basic_stringIcNS_11char_traitsIcEENS_9allocatorIcEEE5__repES5_EC1B8ue170006INS_18__default_init_tagESA_EEOT_OT0_, symObjAddr: 0x1F9C, symBinAddr: 0x100006288, symSize: 0x3C }
  - { offsetInCU: 0x1599B3, offset: 0x1599B3, size: 0x8, addend: 0x0, symName: __ZNSt3__117__compressed_pairINS_12basic_stringIcNS_11char_traitsIcEENS_9allocatorIcEEE5__repES5_EC2B8ue170006INS_18__default_init_tagESA_EEOT_OT0_, symObjAddr: 0x1FD8, symBinAddr: 0x1000062C4, symSize: 0x3C }
  - { offsetInCU: 0x159A0B, offset: 0x159A0B, size: 0x8, addend: 0x0, symName: __ZNSt3__122__compressed_pair_elemINS_12basic_stringIcNS_11char_traitsIcEENS_9allocatorIcEEE5__repELi0ELb0EEC2B8ue170006ENS_18__default_init_tagE, symObjAddr: 0x2014, symBinAddr: 0x100006300, symSize: 0x14 }
  - { offsetInCU: 0x159A40, offset: 0x159A40, size: 0x8, addend: 0x0, symName: __ZNSt3__122__compressed_pair_elemINS_9allocatorIcEELi1ELb1EEC2B8ue170006ENS_18__default_init_tagE, symObjAddr: 0x2028, symBinAddr: 0x100006314, symSize: 0x2C }
  - { offsetInCU: 0x159A75, offset: 0x159A75, size: 0x8, addend: 0x0, symName: __ZNSt3__19allocatorIcEC2B8ue170006Ev, symObjAddr: 0x2054, symBinAddr: 0x100006340, symSize: 0x2C }
  - { offsetInCU: 0x159A9F, offset: 0x159A9F, size: 0x8, addend: 0x0, symName: __ZNSt3__116__non_trivial_ifILb1ENS_9allocatorIcEEEC2B8ue170006Ev, symObjAddr: 0x2080, symBinAddr: 0x10000636C, symSize: 0x14 }
  - { offsetInCU: 0x159AC9, offset: 0x159AC9, size: 0x8, addend: 0x0, symName: __ZNKSt3__112basic_stringIcNS_11char_traitsIcEENS_9allocatorIcEEE13__get_pointerB8ue170006Ev, symObjAddr: 0x20A8, symBinAddr: 0x100006394, symSize: 0x54 }
  - { offsetInCU: 0x159AEF, offset: 0x159AEF, size: 0x8, addend: 0x0, symName: __ZNKSt3__112basic_stringIcNS_11char_traitsIcEENS_9allocatorIcEEE9__is_longB8ue170006Ev, symObjAddr: 0x20FC, symBinAddr: 0x1000063E8, symSize: 0x38 }
  - { offsetInCU: 0x159B15, offset: 0x159B15, size: 0x8, addend: 0x0, symName: __ZNKSt3__112basic_stringIcNS_11char_traitsIcEENS_9allocatorIcEEE18__get_long_pointerB8ue170006Ev, symObjAddr: 0x2134, symBinAddr: 0x100006420, symSize: 0x28 }
  - { offsetInCU: 0x159B3B, offset: 0x159B3B, size: 0x8, addend: 0x0, symName: __ZNKSt3__112basic_stringIcNS_11char_traitsIcEENS_9allocatorIcEEE19__get_short_pointerB8ue170006Ev, symObjAddr: 0x215C, symBinAddr: 0x100006448, symSize: 0x28 }
  - { offsetInCU: 0x159B61, offset: 0x159B61, size: 0x8, addend: 0x0, symName: __ZNKSt3__117__compressed_pairINS_12basic_stringIcNS_11char_traitsIcEENS_9allocatorIcEEE5__repES5_E5firstB8ue170006Ev, symObjAddr: 0x2184, symBinAddr: 0x100006470, symSize: 0x24 }
  - { offsetInCU: 0x159B87, offset: 0x159B87, size: 0x8, addend: 0x0, symName: __ZNKSt3__122__compressed_pair_elemINS_12basic_stringIcNS_11char_traitsIcEENS_9allocatorIcEEE5__repELi0ELb0EE5__getB8ue170006Ev, symObjAddr: 0x21A8, symBinAddr: 0x100006494, symSize: 0x14 }
  - { offsetInCU: 0x159BAD, offset: 0x159BAD, size: 0x8, addend: 0x0, symName: __ZNSt3__114pointer_traitsIPKcE10pointer_toB8ue170006ERS1_, symObjAddr: 0x21BC, symBinAddr: 0x1000064A8, symSize: 0x14 }
  - { offsetInCU: 0x159BD0, offset: 0x159BD0, size: 0x8, addend: 0x0, symName: __ZNSt3__119ostreambuf_iteratorIcNS_11char_traitsIcEEEC2B8ue170006ERNS_13basic_ostreamIcS2_EE, symObjAddr: 0x21D0, symBinAddr: 0x1000064BC, symSize: 0x54 }
  - { offsetInCU: 0x159C08, offset: 0x159C08, size: 0x8, addend: 0x0, symName: __ZNKSt3__19basic_iosIcNS_11char_traitsIcEEE5rdbufB8ue170006Ev, symObjAddr: 0x2224, symBinAddr: 0x100006510, symSize: 0x24 }
  - { offsetInCU: 0x159C30, offset: 0x159C30, size: 0x8, addend: 0x0, symName: __ZNKSt3__18ios_base5rdbufB8ue170006Ev, symObjAddr: 0x2248, symBinAddr: 0x100006534, symSize: 0x18 }
  - { offsetInCU: 0x159C56, offset: 0x159C56, size: 0x8, addend: 0x0, symName: __ZNSt3__111char_traitsIcE11eq_int_typeB8ue170006Eii, symObjAddr: 0x2260, symBinAddr: 0x10000654C, symSize: 0x28 }
  - { offsetInCU: 0x159C89, offset: 0x159C89, size: 0x8, addend: 0x0, symName: __ZNSt3__111char_traitsIcE3eofB8ue170006Ev, symObjAddr: 0x2288, symBinAddr: 0x100006574, symSize: 0x8 }
  - { offsetInCU: 0x159C9D, offset: 0x159C9D, size: 0x8, addend: 0x0, symName: __ZNKSt3__19basic_iosIcNS_11char_traitsIcEEE5widenB8ue170006Ec, symObjAddr: 0x2290, symBinAddr: 0x10000657C, symSize: 0x84 }
  - { offsetInCU: 0x159D0B, offset: 0x159D0B, size: 0x8, addend: 0x0, symName: __ZNKSt3__15ctypeIcE5widenB8ue170006Ec, symObjAddr: 0x2340, symBinAddr: 0x10000662C, symSize: 0x38 }
  - { offsetInCU: 0x159D40, offset: 0x159D40, size: 0x8, addend: 0x0, symName: __ZNSt3__18ios_base8setstateB8ue170006Ej, symObjAddr: 0x2378, symBinAddr: 0x100006664, symSize: 0x34 }
  - { offsetInCU: 0x159D77, offset: 0x159D77, size: 0x8, addend: 0x0, symName: __ZNK5Eigen9DenseBaseINS_6MatrixIfLi3ELi3ELi0ELi3ELi3EEEE4evalEv, symObjAddr: 0x2950, symBinAddr: 0x100006C3C, symSize: 0x24 }
  - { offsetInCU: 0x159DA2, offset: 0x159DA2, size: 0x8, addend: 0x0, symName: __ZNSt3__112basic_stringIcNS_11char_traitsIcEENS_9allocatorIcEEEC1B8ue170006ILi0EEEPKc, symObjAddr: 0x2974, symBinAddr: 0x100006C60, symSize: 0x34 }
  - { offsetInCU: 0x159DE1, offset: 0x159DE1, size: 0x8, addend: 0x0, symName: __ZN5Eigen8IOFormatC1EiiRKNSt3__112basic_stringIcNS1_11char_traitsIcEENS1_9allocatorIcEEEES9_S9_S9_S9_S9_c, symObjAddr: 0x29A8, symBinAddr: 0x100006C94, symSize: 0x88 }
  - { offsetInCU: 0x159E89, offset: 0x159E89, size: 0x8, addend: 0x0, symName: __ZN5Eigen8IOFormatD1Ev, symObjAddr: 0x2A30, symBinAddr: 0x100006D1C, symSize: 0x2C }
  - { offsetInCU: 0x159EB5, offset: 0x159EB5, size: 0x8, addend: 0x0, symName: __ZNK5Eigen9EigenBaseINS_6MatrixIfLi3ELi3ELi0ELi3ELi3EEEE4sizeEv, symObjAddr: 0x2A5C, symBinAddr: 0x100006D48, symSize: 0x44 }
  - { offsetInCU: 0x159EDB, offset: 0x159EDB, size: 0x8, addend: 0x0, symName: __ZN5Eigen8internal25significant_decimals_implIfE3runEv, symObjAddr: 0x2AEC, symBinAddr: 0x100006DD8, symSize: 0x14 }
  - { offsetInCU: 0x159EEF, offset: 0x159EEF, size: 0x8, addend: 0x0, symName: __ZNSt3__18ios_base9precisionB8ue170006El, symObjAddr: 0x2B00, symBinAddr: 0x100006DEC, symSize: 0x2C }
  - { offsetInCU: 0x15A003, offset: 0x15A003, size: 0x8, addend: 0x0, symName: __ZNSt3__118basic_stringstreamIcNS_11char_traitsIcEENS_9allocatorIcEEEC1B8ue170006Ev, symObjAddr: 0x2B2C, symBinAddr: 0x100006E18, symSize: 0x104 }
  - { offsetInCU: 0x15A02D, offset: 0x15A02D, size: 0x8, addend: 0x0, symName: __ZNK5Eigen15PlainObjectBaseINS_6MatrixIfLi3ELi3ELi0ELi3ELi3EEEE5coeffEll, symObjAddr: 0x2C30, symBinAddr: 0x100006F1C, symSize: 0x60 }
  - { offsetInCU: 0x15A06F, offset: 0x15A06F, size: 0x8, addend: 0x0, symName: __ZNKSt3__118basic_stringstreamIcNS_11char_traitsIcEENS_9allocatorIcEEE3strB8ue170006Ev, symObjAddr: 0x2CBC, symBinAddr: 0x100006FA8, symSize: 0x30 }
  - { offsetInCU: 0x15A095, offset: 0x15A095, size: 0x8, addend: 0x0, symName: __ZNKSt3__112basic_stringIcNS_11char_traitsIcEENS_9allocatorIcEEE6lengthB8ue170006Ev, symObjAddr: 0x2CEC, symBinAddr: 0x100006FD8, symSize: 0x24 }
  - { offsetInCU: 0x15A0C0, offset: 0x15A0C0, size: 0x8, addend: 0x0, symName: __ZNSt3__118basic_stringstreamIcNS_11char_traitsIcEENS_9allocatorIcEEED1Ev, symObjAddr: 0x2D10, symBinAddr: 0x100006FFC, symSize: 0x40 }
  - { offsetInCU: 0x15A0ED, offset: 0x15A0ED, size: 0x8, addend: 0x0, symName: __ZNSt3__19basic_iosIcNS_11char_traitsIcEEE4fillB8ue170006Ec, symObjAddr: 0x2D50, symBinAddr: 0x10000703C, symSize: 0x74 }
  - { offsetInCU: 0x15A133, offset: 0x15A133, size: 0x8, addend: 0x0, symName: __ZNK5Eigen9EigenBaseINS_6MatrixIfLi3ELi3ELi0ELi3ELi3EEEE4rowsEv, symObjAddr: 0x2DC4, symBinAddr: 0x1000070B0, symSize: 0x38 }
  - { offsetInCU: 0x15A159, offset: 0x15A159, size: 0x8, addend: 0x0, symName: __ZNK5Eigen9EigenBaseINS_6MatrixIfLi3ELi3ELi0ELi3ELi3EEEE4colsEv, symObjAddr: 0x2DFC, symBinAddr: 0x1000070E8, symSize: 0x28 }
  - { offsetInCU: 0x15A17F, offset: 0x15A17F, size: 0x8, addend: 0x0, symName: __ZNK5Eigen9EigenBaseINS_6MatrixIfLi3ELi3ELi0ELi3ELi3EEEE7derivedEv, symObjAddr: 0x2E24, symBinAddr: 0x100007110, symSize: 0x14 }
  - { offsetInCU: 0x15A1A5, offset: 0x15A1A5, size: 0x8, addend: 0x0, symName: __ZNKSt3__112basic_stringIcNS_11char_traitsIcEENS_9allocatorIcEEE4sizeB8ue170006Ev, symObjAddr: 0x2E38, symBinAddr: 0x100007124, symSize: 0x54 }
  - { offsetInCU: 0x15A1CB, offset: 0x15A1CB, size: 0x8, addend: 0x0, symName: __ZNKSt3__112basic_stringIcNS_11char_traitsIcEENS_9allocatorIcEEE15__get_long_sizeB8ue170006Ev, symObjAddr: 0x2E8C, symBinAddr: 0x100007178, symSize: 0x28 }
  - { offsetInCU: 0x15A1F1, offset: 0x15A1F1, size: 0x8, addend: 0x0, symName: __ZNKSt3__112basic_stringIcNS_11char_traitsIcEENS_9allocatorIcEEE16__get_short_sizeB8ue170006Ev, symObjAddr: 0x2EB4, symBinAddr: 0x1000071A0, symSize: 0x34 }
  - { offsetInCU: 0x15A217, offset: 0x15A217, size: 0x8, addend: 0x0, symName: __ZN5Eigen16GenericNumTraitsIfE8digits10Ev, symObjAddr: 0x2EE8, symBinAddr: 0x1000071D4, symSize: 0x14 }
  - { offsetInCU: 0x15A22B, offset: 0x15A22B, size: 0x8, addend: 0x0, symName: __ZN5Eigen8internal21default_digits10_implIfLb1ELb0EE3runEv, symObjAddr: 0x2EFC, symBinAddr: 0x1000071E8, symSize: 0x8 }
  - { offsetInCU: 0x15A23F, offset: 0x15A23F, size: 0x8, addend: 0x0, symName: __ZNSt3__19basic_iosIcNS_11char_traitsIcEEEC2B8ue170006Ev, symObjAddr: 0x2F04, symBinAddr: 0x1000071F0, symSize: 0x44 }
  - { offsetInCU: 0x15A269, offset: 0x15A269, size: 0x8, addend: 0x0, symName: __ZNSt3__114basic_iostreamIcNS_11char_traitsIcEEEC2B8ue170006EPNS_15basic_streambufIcS2_EE, symObjAddr: 0x2F48, symBinAddr: 0x100007234, symSize: 0xAC }
  - { offsetInCU: 0x15A2AF, offset: 0x15A2AF, size: 0x8, addend: 0x0, symName: __ZNSt3__115basic_stringbufIcNS_11char_traitsIcEENS_9allocatorIcEEEC1B8ue170006Ej, symObjAddr: 0x2FF4, symBinAddr: 0x1000072E0, symSize: 0x34 }
  - { offsetInCU: 0x15A2E8, offset: 0x15A2E8, size: 0x8, addend: 0x0, symName: __ZNSt3__18ios_baseC2B8ue170006Ev, symObjAddr: 0x3028, symBinAddr: 0x100007314, symSize: 0x24 }
  - { offsetInCU: 0x15A312, offset: 0x15A312, size: 0x8, addend: 0x0, symName: __ZNSt3__113basic_istreamIcNS_11char_traitsIcEEEC2B8ue170006EPNS_15basic_streambufIcS2_EE, symObjAddr: 0x304C, symBinAddr: 0x100007338, symSize: 0x64 }
  - { offsetInCU: 0x15A357, offset: 0x15A357, size: 0x8, addend: 0x0, symName: __ZNSt3__113basic_ostreamIcNS_11char_traitsIcEEEC2B8ue170006Ev, symObjAddr: 0x30B0, symBinAddr: 0x10000739C, symSize: 0x34 }
  - { offsetInCU: 0x15A38E, offset: 0x15A38E, size: 0x8, addend: 0x0, symName: __ZNSt3__19basic_iosIcNS_11char_traitsIcEEE4initB8ue170006EPNS_15basic_streambufIcS2_EE, symObjAddr: 0x30E4, symBinAddr: 0x1000073D0, symSize: 0x44 }
  - { offsetInCU: 0x15A3C5, offset: 0x15A3C5, size: 0x8, addend: 0x0, symName: __ZNSt3__115basic_stringbufIcNS_11char_traitsIcEENS_9allocatorIcEEEC2B8ue170006Ej, symObjAddr: 0x3128, symBinAddr: 0x100007414, symSize: 0x60 }
  - { offsetInCU: 0x15A3FE, offset: 0x15A3FE, size: 0x8, addend: 0x0, symName: __ZNSt3__112basic_stringIcNS_11char_traitsIcEENS_9allocatorIcEEEC1B8ue170006Ev, symObjAddr: 0x3188, symBinAddr: 0x100007474, symSize: 0x2C }
  - { offsetInCU: 0x15A428, offset: 0x15A428, size: 0x8, addend: 0x0, symName: __ZNSt3__112basic_stringIcNS_11char_traitsIcEENS_9allocatorIcEEEC2B8ue170006Ev, symObjAddr: 0x31B4, symBinAddr: 0x1000074A0, symSize: 0x48 }
  - { offsetInCU: 0x15A452, offset: 0x15A452, size: 0x8, addend: 0x0, symName: __ZNSt3__112basic_stringIcNS_11char_traitsIcEENS_9allocatorIcEEE14__default_initB8ue170006Ev, symObjAddr: 0x31FC, symBinAddr: 0x1000074E8, symSize: 0x40 }
  - { offsetInCU: 0x15A478, offset: 0x15A478, size: 0x8, addend: 0x0, symName: __ZNSt3__117__compressed_pairINS_12basic_stringIcNS_11char_traitsIcEENS_9allocatorIcEEE5__repES5_E5firstB8ue170006Ev, symObjAddr: 0x323C, symBinAddr: 0x100007528, symSize: 0x24 }
  - { offsetInCU: 0x15A49E, offset: 0x15A49E, size: 0x8, addend: 0x0, symName: __ZNSt3__122__compressed_pair_elemINS_12basic_stringIcNS_11char_traitsIcEENS_9allocatorIcEEE5__repELi0ELb0EE5__getB8ue170006Ev, symObjAddr: 0x3260, symBinAddr: 0x10000754C, symSize: 0x14 }
  - { offsetInCU: 0x15A4C4, offset: 0x15A4C4, size: 0x8, addend: 0x0, symName: __ZNK5Eigen12DenseStorageIfLi9ELi3ELi3ELi0EE4dataEv, symObjAddr: 0x3274, symBinAddr: 0x100007560, symSize: 0x14 }
  - { offsetInCU: 0x15A4F4, offset: 0x15A4F4, size: 0x8, addend: 0x0, symName: __ZNKSt3__16__lessIvvEclB8ue170006IllEEbRKT_RKT0_, symObjAddr: 0x32DC, symBinAddr: 0x1000075C8, symSize: 0x34 }
  - { offsetInCU: 0x15A548, offset: 0x15A548, size: 0x8, addend: 0x0, symName: __ZNSt3__118basic_stringstreamIcNS_11char_traitsIcEENS_9allocatorIcEEED2Ev, symObjAddr: 0x3310, symBinAddr: 0x1000075FC, symSize: 0x6C }
  - { offsetInCU: 0x15A582, offset: 0x15A582, size: 0x8, addend: 0x0, symName: __ZThn16_NSt3__118basic_stringstreamIcNS_11char_traitsIcEENS_9allocatorIcEEED1Ev, symObjAddr: 0x337C, symBinAddr: 0x100007668, symSize: 0x1C }
  - { offsetInCU: 0x15A599, offset: 0x15A599, size: 0x8, addend: 0x0, symName: __ZTv0_n24_NSt3__118basic_stringstreamIcNS_11char_traitsIcEENS_9allocatorIcEEED1Ev, symObjAddr: 0x3398, symBinAddr: 0x100007684, symSize: 0x28 }
  - { offsetInCU: 0x15A5B5, offset: 0x15A5B5, size: 0x8, addend: 0x0, symName: __ZNSt3__115basic_stringbufIcNS_11char_traitsIcEENS_9allocatorIcEEED1Ev, symObjAddr: 0x33C0, symBinAddr: 0x1000076AC, symSize: 0x2C }
  - { offsetInCU: 0x15A5E2, offset: 0x15A5E2, size: 0x8, addend: 0x0, symName: __ZNSt3__115basic_stringbufIcNS_11char_traitsIcEENS_9allocatorIcEEED2Ev, symObjAddr: 0x33EC, symBinAddr: 0x1000076D8, symSize: 0x48 }
  - { offsetInCU: 0x15A60F, offset: 0x15A60F, size: 0x8, addend: 0x0, symName: __ZNSt3__112basic_stringIcNS_11char_traitsIcEENS_9allocatorIcEEEC2B8ue170006ILi0EEEPKc, symObjAddr: 0x3434, symBinAddr: 0x100007720, symSize: 0x58 }
  - { offsetInCU: 0x15A64E, offset: 0x15A64E, size: 0x8, addend: 0x0, symName: __ZN5Eigen8IOFormatC2EiiRKNSt3__112basic_stringIcNS1_11char_traitsIcEENS1_9allocatorIcEEEES9_S9_S9_S9_S9_c, symObjAddr: 0x348C, symBinAddr: 0x100007778, symSize: 0x284 }
  - { offsetInCU: 0x15A70D, offset: 0x15A70D, size: 0x8, addend: 0x0, symName: __ZNSt3__112basic_stringIcNS_11char_traitsIcEENS_9allocatorIcEEEixB8ue170006Em, symObjAddr: 0x3710, symBinAddr: 0x1000079FC, symSize: 0x30 }
  - { offsetInCU: 0x15A742, offset: 0x15A742, size: 0x8, addend: 0x0, symName: __ZNSt3__112basic_stringIcNS_11char_traitsIcEENS_9allocatorIcEEEpLB8ue170006Ec, symObjAddr: 0x3740, symBinAddr: 0x100007A2C, symSize: 0x34 }
  - { offsetInCU: 0x15A777, offset: 0x15A777, size: 0x8, addend: 0x0, symName: __ZNSt3__112basic_stringIcNS_11char_traitsIcEENS_9allocatorIcEEE13__get_pointerB8ue170006Ev, symObjAddr: 0x3774, symBinAddr: 0x100007A60, symSize: 0x54 }
  - { offsetInCU: 0x15A79D, offset: 0x15A79D, size: 0x8, addend: 0x0, symName: __ZNSt3__112basic_stringIcNS_11char_traitsIcEENS_9allocatorIcEEE18__get_long_pointerB8ue170006Ev, symObjAddr: 0x37C8, symBinAddr: 0x100007AB4, symSize: 0x28 }
  - { offsetInCU: 0x15A7C3, offset: 0x15A7C3, size: 0x8, addend: 0x0, symName: __ZNSt3__112basic_stringIcNS_11char_traitsIcEENS_9allocatorIcEEE19__get_short_pointerB8ue170006Ev, symObjAddr: 0x37F0, symBinAddr: 0x100007ADC, symSize: 0x28 }
  - { offsetInCU: 0x15A7E9, offset: 0x15A7E9, size: 0x8, addend: 0x0, symName: __ZNSt3__114pointer_traitsIPcE10pointer_toB8ue170006ERc, symObjAddr: 0x3818, symBinAddr: 0x100007B04, symSize: 0x14 }
  - { offsetInCU: 0x15A80C, offset: 0x15A80C, size: 0x8, addend: 0x0, symName: __ZN5Eigen8IOFormatD2Ev, symObjAddr: 0x382C, symBinAddr: 0x100007B18, symSize: 0x74 }
  - { offsetInCU: 0x15A838, offset: 0x15A838, size: 0x8, addend: 0x0, symName: __ZNK5Eigen9DenseBaseINS_6MatrixIfLi3ELi1ELi0ELi3ELi1EEEE4evalEv, symObjAddr: 0x3E20, symBinAddr: 0x10000810C, symSize: 0x24 }
  - { offsetInCU: 0x15A85E, offset: 0x15A85E, size: 0x8, addend: 0x0, symName: __ZNK5Eigen9EigenBaseINS_6MatrixIfLi3ELi1ELi0ELi3ELi1EEEE4sizeEv, symObjAddr: 0x3E44, symBinAddr: 0x100008130, symSize: 0x44 }
  - { offsetInCU: 0x15A884, offset: 0x15A884, size: 0x8, addend: 0x0, symName: __ZNK5Eigen15PlainObjectBaseINS_6MatrixIfLi3ELi1ELi0ELi3ELi1EEEE5coeffEll, symObjAddr: 0x3E88, symBinAddr: 0x100008174, symSize: 0x60 }
  - { offsetInCU: 0x15A8C6, offset: 0x15A8C6, size: 0x8, addend: 0x0, symName: __ZNK5Eigen9EigenBaseINS_6MatrixIfLi3ELi1ELi0ELi3ELi1EEEE4rowsEv, symObjAddr: 0x3EE8, symBinAddr: 0x1000081D4, symSize: 0x38 }
  - { offsetInCU: 0x15A8EC, offset: 0x15A8EC, size: 0x8, addend: 0x0, symName: __ZNK5Eigen9EigenBaseINS_6MatrixIfLi3ELi1ELi0ELi3ELi1EEEE4colsEv, symObjAddr: 0x3F20, symBinAddr: 0x10000820C, symSize: 0x28 }
  - { offsetInCU: 0x15A912, offset: 0x15A912, size: 0x8, addend: 0x0, symName: __ZNK5Eigen9EigenBaseINS_6MatrixIfLi3ELi1ELi0ELi3ELi1EEEE7derivedEv, symObjAddr: 0x3F48, symBinAddr: 0x100008234, symSize: 0x14 }
  - { offsetInCU: 0x15A938, offset: 0x15A938, size: 0x8, addend: 0x0, symName: __ZNK5Eigen12DenseStorageIfLi3ELi3ELi1ELi0EE4dataEv, symObjAddr: 0x3F5C, symBinAddr: 0x100008248, symSize: 0x14 }
  - { offsetInCU: 0x15A963, offset: 0x15A963, size: 0x8, addend: 0x0, symName: __ZN5Eigen19ColPivHouseholderQRINS_6MatrixIfLi3ELi3ELi0ELi3ELi3EEEEC1IS2_EERKNS_9EigenBaseIT_EE, symObjAddr: 0x3F70, symBinAddr: 0x10000825C, symSize: 0x34 }
  - { offsetInCU: 0x15A9A4, offset: 0x15A9A4, size: 0x8, addend: 0x0, symName: __ZN5Eigen19ColPivHouseholderQRINS_6MatrixIfLi3ELi3ELi0ELi3ELi3EEEEC2IS2_EERKNS_9EigenBaseIT_EE, symObjAddr: 0x3FA4, symBinAddr: 0x100008290, symSize: 0x1DC }
  - { offsetInCU: 0x15A9E5, offset: 0x15A9E5, size: 0x8, addend: 0x0, symName: __ZN5Eigen10SolverBaseINS_19ColPivHouseholderQRINS_6MatrixIfLi3ELi3ELi0ELi3ELi3EEEEEEC2Ev, symObjAddr: 0x4180, symBinAddr: 0x10000846C, symSize: 0x14 }
  - { offsetInCU: 0x15AA0F, offset: 0x15AA0F, size: 0x8, addend: 0x0, symName: __ZN5Eigen6MatrixIfLi3ELi3ELi0ELi3ELi3EEC1IllEERKT_RKT0_, symObjAddr: 0x4194, symBinAddr: 0x100008480, symSize: 0x3C }
  - { offsetInCU: 0x15AA69, offset: 0x15AA69, size: 0x8, addend: 0x0, symName: __ZN5Eigen6MatrixIfLi3ELi1ELi0ELi3ELi1EEC1IlEERKT_, symObjAddr: 0x41FC, symBinAddr: 0x1000084E8, symSize: 0x34 }
  - { offsetInCU: 0x15AAAB, offset: 0x15AAAB, size: 0x8, addend: 0x0, symName: __ZN5Eigen17PermutationMatrixILi3ELi3EiEC1El, symObjAddr: 0x4230, symBinAddr: 0x10000851C, symSize: 0x34 }
  - { offsetInCU: 0x15AAE4, offset: 0x15AAE4, size: 0x8, addend: 0x0, symName: __ZN5Eigen6MatrixIlLi1ELi3ELi1ELi1ELi3EEC1IlEERKT_, symObjAddr: 0x4264, symBinAddr: 0x100008550, symSize: 0x34 }
  - { offsetInCU: 0x15AB26, offset: 0x15AB26, size: 0x8, addend: 0x0, symName: __ZN5Eigen6MatrixIfLi1ELi3ELi1ELi1ELi3EEC1IlEERKT_, symObjAddr: 0x4298, symBinAddr: 0x100008584, symSize: 0x34 }
  - { offsetInCU: 0x15AB68, offset: 0x15AB68, size: 0x8, addend: 0x0, symName: __ZN5Eigen19ColPivHouseholderQRINS_6MatrixIfLi3ELi3ELi0ELi3ELi3EEEE7computeIS2_EERS3_RKNS_9EigenBaseIT_EE, symObjAddr: 0x42CC, symBinAddr: 0x1000085B8, symSize: 0x48 }
  - { offsetInCU: 0x15ABA7, offset: 0x15ABA7, size: 0x8, addend: 0x0, symName: __ZN5Eigen6MatrixIfLi3ELi3ELi0ELi3ELi3EEC2IllEERKT_RKT0_, symObjAddr: 0x4314, symBinAddr: 0x100008600, symSize: 0x54 }
  - { offsetInCU: 0x15AC06, offset: 0x15AC06, size: 0x8, addend: 0x0, symName: __ZN5Eigen15PlainObjectBaseINS_6MatrixIfLi3ELi3ELi0ELi3ELi3EEEE6_init2IllEEvllPNS_8internal9enable_ifILb1ET_E4typeE, symObjAddr: 0x4368, symBinAddr: 0x100008654, symSize: 0x44 }
  - { offsetInCU: 0x15AC85, offset: 0x15AC85, size: 0x8, addend: 0x0, symName: __ZN5Eigen15PlainObjectBaseINS_6MatrixIfLi3ELi3ELi0ELi3ELi3EEEE6resizeEll, symObjAddr: 0x43AC, symBinAddr: 0x100008698, symSize: 0x104 }
  - { offsetInCU: 0x15ACC9, offset: 0x15ACC9, size: 0x8, addend: 0x0, symName: __ZN5Eigen12DenseStorageIfLi9ELi3ELi3ELi0EE6resizeElll, symObjAddr: 0x44B0, symBinAddr: 0x10000879C, symSize: 0x1C }
  - { offsetInCU: 0x15AD10, offset: 0x15AD10, size: 0x8, addend: 0x0, symName: __ZN5Eigen6MatrixIfLi3ELi1ELi0ELi3ELi1EEC2IlEERKT_, symObjAddr: 0x4520, symBinAddr: 0x10000880C, symSize: 0x48 }
  - { offsetInCU: 0x15AD52, offset: 0x15AD52, size: 0x8, addend: 0x0, symName: __ZN5Eigen15PlainObjectBaseINS_6MatrixIfLi3ELi1ELi0ELi3ELi1EEEE6_init1IlEEvlPNS_8internal9enable_ifIXaaooneLNS_9DenseBaseIS2_EUt_E3ELi1Entsr8internal14is_convertibleIT_fEE5valueoontLNS5_7is_sameINS_9MatrixXprENS_8ArrayXprEEUt_E0EeqLS9_3EL_ZNS_L7DynamicEEESA_E4typeE, symObjAddr: 0x4568, symBinAddr: 0x100008854, symSize: 0x48 }
  - { offsetInCU: 0x15ADAA, offset: 0x15ADAA, size: 0x8, addend: 0x0, symName: __ZN5Eigen15PlainObjectBaseINS_6MatrixIfLi3ELi1ELi0ELi3ELi1EEEE6resizeEl, symObjAddr: 0x45C0, symBinAddr: 0x1000088AC, symSize: 0xA0 }
  - { offsetInCU: 0x15ADDF, offset: 0x15ADDF, size: 0x8, addend: 0x0, symName: __ZN5Eigen12DenseStorageIfLi3ELi3ELi1ELi0EE6resizeElll, symObjAddr: 0x4660, symBinAddr: 0x10000894C, symSize: 0x1C }
  - { offsetInCU: 0x15AE26, offset: 0x15AE26, size: 0x8, addend: 0x0, symName: __ZN5Eigen17PermutationMatrixILi3ELi3EiEC2El, symObjAddr: 0x467C, symBinAddr: 0x100008968, symSize: 0x38 }
  - { offsetInCU: 0x15AE5F, offset: 0x15AE5F, size: 0x8, addend: 0x0, symName: __ZN5Eigen6MatrixIiLi3ELi1ELi0ELi3ELi1EEC1IlEERKT_, symObjAddr: 0x46B4, symBinAddr: 0x1000089A0, symSize: 0x34 }
  - { offsetInCU: 0x15AEA1, offset: 0x15AEA1, size: 0x8, addend: 0x0, symName: __ZN5Eigen6MatrixIiLi3ELi1ELi0ELi3ELi1EEC2IlEERKT_, symObjAddr: 0x46E8, symBinAddr: 0x1000089D4, symSize: 0x48 }
  - { offsetInCU: 0x15AEE3, offset: 0x15AEE3, size: 0x8, addend: 0x0, symName: __ZN5Eigen15PlainObjectBaseINS_6MatrixIiLi3ELi1ELi0ELi3ELi1EEEEC2Ev, symObjAddr: 0x4730, symBinAddr: 0x100008A1C, symSize: 0x34 }
  - { offsetInCU: 0x15AF0D, offset: 0x15AF0D, size: 0x8, addend: 0x0, symName: __ZN5Eigen15PlainObjectBaseINS_6MatrixIiLi3ELi1ELi0ELi3ELi1EEEE22_check_template_paramsEv, symObjAddr: 0x4764, symBinAddr: 0x100008A50, symSize: 0x4 }
  - { offsetInCU: 0x15AF21, offset: 0x15AF21, size: 0x8, addend: 0x0, symName: __ZN5Eigen15PlainObjectBaseINS_6MatrixIiLi3ELi1ELi0ELi3ELi1EEEE6_init1IlEEvlPNS_8internal9enable_ifIXaaooneLNS_9DenseBaseIS2_EUt_E3ELi1Entsr8internal14is_convertibleIT_iEE5valueoontLNS5_7is_sameINS_9MatrixXprENS_8ArrayXprEEUt_E0EeqLS9_3EL_ZNS_L7DynamicEEESA_E4typeE, symObjAddr: 0x4768, symBinAddr: 0x100008A54, symSize: 0x48 }
  - { offsetInCU: 0x15AF79, offset: 0x15AF79, size: 0x8, addend: 0x0, symName: __ZN5Eigen10MatrixBaseINS_6MatrixIiLi3ELi1ELi0ELi3ELi1EEEEC2Ev, symObjAddr: 0x47B0, symBinAddr: 0x100008A9C, symSize: 0x2C }
  - { offsetInCU: 0x15AFA3, offset: 0x15AFA3, size: 0x8, addend: 0x0, symName: __ZN5Eigen12DenseStorageIiLi3ELi3ELi1ELi0EEC1Ev, symObjAddr: 0x47DC, symBinAddr: 0x100008AC8, symSize: 0x2C }
  - { offsetInCU: 0x15AFCD, offset: 0x15AFCD, size: 0x8, addend: 0x0, symName: __ZN5Eigen9DenseBaseINS_6MatrixIiLi3ELi1ELi0ELi3ELi1EEEEC2Ev, symObjAddr: 0x4808, symBinAddr: 0x100008AF4, symSize: 0x14 }
  - { offsetInCU: 0x15AFF7, offset: 0x15AFF7, size: 0x8, addend: 0x0, symName: __ZN5Eigen12DenseStorageIiLi3ELi3ELi1ELi0EEC2Ev, symObjAddr: 0x481C, symBinAddr: 0x100008B08, symSize: 0x2C }
  - { offsetInCU: 0x15B021, offset: 0x15B021, size: 0x8, addend: 0x0, symName: __ZN5Eigen8internal11plain_arrayIiLi3ELi0ELi0EEC1Ev, symObjAddr: 0x4848, symBinAddr: 0x100008B34, symSize: 0x2C }
  - { offsetInCU: 0x15B04B, offset: 0x15B04B, size: 0x8, addend: 0x0, symName: __ZN5Eigen8internal11plain_arrayIiLi3ELi0ELi0EEC2Ev, symObjAddr: 0x4874, symBinAddr: 0x100008B60, symSize: 0x2C }
  - { offsetInCU: 0x15B075, offset: 0x15B075, size: 0x8, addend: 0x0, symName: __ZN5Eigen15PlainObjectBaseINS_6MatrixIiLi3ELi1ELi0ELi3ELi1EEEE6resizeEl, symObjAddr: 0x48A4, symBinAddr: 0x100008B90, symSize: 0xA0 }
  - { offsetInCU: 0x15B0AA, offset: 0x15B0AA, size: 0x8, addend: 0x0, symName: __ZN5Eigen12DenseStorageIiLi3ELi3ELi1ELi0EE6resizeElll, symObjAddr: 0x4944, symBinAddr: 0x100008C30, symSize: 0x1C }
  - { offsetInCU: 0x15B0F1, offset: 0x15B0F1, size: 0x8, addend: 0x0, symName: __ZN5Eigen6MatrixIlLi1ELi3ELi1ELi1ELi3EEC2IlEERKT_, symObjAddr: 0x4960, symBinAddr: 0x100008C4C, symSize: 0x48 }
  - { offsetInCU: 0x15B133, offset: 0x15B133, size: 0x8, addend: 0x0, symName: __ZN5Eigen15PlainObjectBaseINS_6MatrixIlLi1ELi3ELi1ELi1ELi3EEEEC2Ev, symObjAddr: 0x49A8, symBinAddr: 0x100008C94, symSize: 0x34 }
  - { offsetInCU: 0x15B15D, offset: 0x15B15D, size: 0x8, addend: 0x0, symName: __ZN5Eigen15PlainObjectBaseINS_6MatrixIlLi1ELi3ELi1ELi1ELi3EEEE22_check_template_paramsEv, symObjAddr: 0x49DC, symBinAddr: 0x100008CC8, symSize: 0x4 }
  - { offsetInCU: 0x15B171, offset: 0x15B171, size: 0x8, addend: 0x0, symName: __ZN5Eigen15PlainObjectBaseINS_6MatrixIlLi1ELi3ELi1ELi1ELi3EEEE6_init1IlEEvlPNS_8internal9enable_ifIXaaooneLNS_9DenseBaseIS2_EUt_E3ELi1Entsr8internal14is_convertibleIT_lEE5valueoontLNS5_7is_sameINS_9MatrixXprENS_8ArrayXprEEUt_E0EeqLS9_3EL_ZNS_L7DynamicEEESA_E4typeE, symObjAddr: 0x49E0, symBinAddr: 0x100008CCC, symSize: 0x48 }
  - { offsetInCU: 0x15B1C9, offset: 0x15B1C9, size: 0x8, addend: 0x0, symName: __ZN5Eigen10MatrixBaseINS_6MatrixIlLi1ELi3ELi1ELi1ELi3EEEEC2Ev, symObjAddr: 0x4A28, symBinAddr: 0x100008D14, symSize: 0x2C }
  - { offsetInCU: 0x15B1F3, offset: 0x15B1F3, size: 0x8, addend: 0x0, symName: __ZN5Eigen12DenseStorageIlLi3ELi1ELi3ELi1EEC1Ev, symObjAddr: 0x4A54, symBinAddr: 0x100008D40, symSize: 0x2C }
  - { offsetInCU: 0x15B21D, offset: 0x15B21D, size: 0x8, addend: 0x0, symName: __ZN5Eigen9DenseBaseINS_6MatrixIlLi1ELi3ELi1ELi1ELi3EEEEC2Ev, symObjAddr: 0x4A80, symBinAddr: 0x100008D6C, symSize: 0x14 }
  - { offsetInCU: 0x15B247, offset: 0x15B247, size: 0x8, addend: 0x0, symName: __ZN5Eigen12DenseStorageIlLi3ELi1ELi3ELi1EEC2Ev, symObjAddr: 0x4A94, symBinAddr: 0x100008D80, symSize: 0x2C }
  - { offsetInCU: 0x15B271, offset: 0x15B271, size: 0x8, addend: 0x0, symName: __ZN5Eigen8internal11plain_arrayIlLi3ELi1ELi0EEC1Ev, symObjAddr: 0x4AC0, symBinAddr: 0x100008DAC, symSize: 0x2C }
  - { offsetInCU: 0x15B29B, offset: 0x15B29B, size: 0x8, addend: 0x0, symName: __ZN5Eigen8internal11plain_arrayIlLi3ELi1ELi0EEC2Ev, symObjAddr: 0x4AEC, symBinAddr: 0x100008DD8, symSize: 0x2C }
  - { offsetInCU: 0x15B2C5, offset: 0x15B2C5, size: 0x8, addend: 0x0, symName: __ZN5Eigen15PlainObjectBaseINS_6MatrixIlLi1ELi3ELi1ELi1ELi3EEEE6resizeEl, symObjAddr: 0x4B1C, symBinAddr: 0x100008E08, symSize: 0xA0 }
  - { offsetInCU: 0x15B2FA, offset: 0x15B2FA, size: 0x8, addend: 0x0, symName: __ZN5Eigen12DenseStorageIlLi3ELi1ELi3ELi1EE6resizeElll, symObjAddr: 0x4BBC, symBinAddr: 0x100008EA8, symSize: 0x1C }
  - { offsetInCU: 0x15B341, offset: 0x15B341, size: 0x8, addend: 0x0, symName: __ZN5Eigen6MatrixIfLi1ELi3ELi1ELi1ELi3EEC2IlEERKT_, symObjAddr: 0x4BD8, symBinAddr: 0x100008EC4, symSize: 0x48 }
  - { offsetInCU: 0x15B383, offset: 0x15B383, size: 0x8, addend: 0x0, symName: __ZN5Eigen15PlainObjectBaseINS_6MatrixIfLi1ELi3ELi1ELi1ELi3EEEEC2Ev, symObjAddr: 0x4C20, symBinAddr: 0x100008F0C, symSize: 0x34 }
  - { offsetInCU: 0x15B3AD, offset: 0x15B3AD, size: 0x8, addend: 0x0, symName: __ZN5Eigen15PlainObjectBaseINS_6MatrixIfLi1ELi3ELi1ELi1ELi3EEEE22_check_template_paramsEv, symObjAddr: 0x4C54, symBinAddr: 0x100008F40, symSize: 0x4 }
  - { offsetInCU: 0x15B3C1, offset: 0x15B3C1, size: 0x8, addend: 0x0, symName: __ZN5Eigen15PlainObjectBaseINS_6MatrixIfLi1ELi3ELi1ELi1ELi3EEEE6_init1IlEEvlPNS_8internal9enable_ifIXaaooneLNS_9DenseBaseIS2_EUt_E3ELi1Entsr8internal14is_convertibleIT_fEE5valueoontLNS5_7is_sameINS_9MatrixXprENS_8ArrayXprEEUt_E0EeqLS9_3EL_ZNS_L7DynamicEEESA_E4typeE, symObjAddr: 0x4C58, symBinAddr: 0x100008F44, symSize: 0x48 }
  - { offsetInCU: 0x15B419, offset: 0x15B419, size: 0x8, addend: 0x0, symName: __ZN5Eigen10MatrixBaseINS_6MatrixIfLi1ELi3ELi1ELi1ELi3EEEEC2Ev, symObjAddr: 0x4CA0, symBinAddr: 0x100008F8C, symSize: 0x2C }
  - { offsetInCU: 0x15B443, offset: 0x15B443, size: 0x8, addend: 0x0, symName: __ZN5Eigen12DenseStorageIfLi3ELi1ELi3ELi1EEC1Ev, symObjAddr: 0x4CCC, symBinAddr: 0x100008FB8, symSize: 0x2C }
  - { offsetInCU: 0x15B46D, offset: 0x15B46D, size: 0x8, addend: 0x0, symName: __ZN5Eigen9DenseBaseINS_6MatrixIfLi1ELi3ELi1ELi1ELi3EEEEC2Ev, symObjAddr: 0x4CF8, symBinAddr: 0x100008FE4, symSize: 0x14 }
  - { offsetInCU: 0x15B497, offset: 0x15B497, size: 0x8, addend: 0x0, symName: __ZN5Eigen12DenseStorageIfLi3ELi1ELi3ELi1EEC2Ev, symObjAddr: 0x4D0C, symBinAddr: 0x100008FF8, symSize: 0x2C }
  - { offsetInCU: 0x15B4C1, offset: 0x15B4C1, size: 0x8, addend: 0x0, symName: __ZN5Eigen8internal11plain_arrayIfLi3ELi1ELi0EEC1Ev, symObjAddr: 0x4D38, symBinAddr: 0x100009024, symSize: 0x2C }
  - { offsetInCU: 0x15B4EB, offset: 0x15B4EB, size: 0x8, addend: 0x0, symName: __ZN5Eigen8internal11plain_arrayIfLi3ELi1ELi0EEC2Ev, symObjAddr: 0x4D64, symBinAddr: 0x100009050, symSize: 0x2C }
  - { offsetInCU: 0x15B515, offset: 0x15B515, size: 0x8, addend: 0x0, symName: __ZN5Eigen15PlainObjectBaseINS_6MatrixIfLi1ELi3ELi1ELi1ELi3EEEE6resizeEl, symObjAddr: 0x4D90, symBinAddr: 0x10000907C, symSize: 0xA0 }
  - { offsetInCU: 0x15B54A, offset: 0x15B54A, size: 0x8, addend: 0x0, symName: __ZN5Eigen12DenseStorageIfLi3ELi1ELi3ELi1EE6resizeElll, symObjAddr: 0x4E30, symBinAddr: 0x10000911C, symSize: 0x1C }
  - { offsetInCU: 0x15B591, offset: 0x15B591, size: 0x8, addend: 0x0, symName: __ZN5Eigen6MatrixIfLi3ELi3ELi0ELi3ELi3EEaSERKS1_, symObjAddr: 0x4E4C, symBinAddr: 0x100009138, symSize: 0x2C }
  - { offsetInCU: 0x15B5F4, offset: 0x15B5F4, size: 0x8, addend: 0x0, symName: __ZN5Eigen19ColPivHouseholderQRINS_6MatrixIfLi3ELi3ELi0ELi3ELi3EEEE14computeInPlaceEv, symObjAddr: 0x4E78, symBinAddr: 0x100009164, symSize: 0x8F8 }
  - { offsetInCU: 0x15B801, offset: 0x15B801, size: 0x8, addend: 0x0, symName: __ZN5Eigen15PlainObjectBaseINS_6MatrixIfLi3ELi3ELi0ELi3ELi3EEEE4_setIS2_EERS2_RKNS_9DenseBaseIT_EE, symObjAddr: 0x5770, symBinAddr: 0x100009A5C, symSize: 0x4C }
  - { offsetInCU: 0x15B83F, offset: 0x15B83F, size: 0x8, addend: 0x0, symName: __ZN5Eigen9EigenBaseINS_6MatrixIfLi3ELi3ELi0ELi3ELi3EEEE7derivedEv, symObjAddr: 0x580C, symBinAddr: 0x100009AF8, symSize: 0x14 }
  - { offsetInCU: 0x15B865, offset: 0x15B865, size: 0x8, addend: 0x0, symName: __ZN5Eigen8internal9assign_opIffEC1Ev, symObjAddr: 0x5858, symBinAddr: 0x100009B44, symSize: 0x2C }
  - { offsetInCU: 0x15B88F, offset: 0x15B88F, size: 0x8, addend: 0x0, symName: __ZN5Eigen8internal10AssignmentINS_6MatrixIfLi3ELi3ELi0ELi3ELi3EEES3_NS0_9assign_opIffEENS0_11Dense2DenseEvE3runERS3_RKS3_RKS5_, symObjAddr: 0x58C0, symBinAddr: 0x100009BAC, symSize: 0x40 }
  - { offsetInCU: 0x15B8D1, offset: 0x15B8D1, size: 0x8, addend: 0x0, symName: __ZN5Eigen8internal27checkTransposeAliasing_implINS_6MatrixIfLi3ELi3ELi0ELi3ELi3EEES3_Lb0EE3runERKS3_S6_, symObjAddr: 0x5A40, symBinAddr: 0x100009D2C, symSize: 0x14 }
  - { offsetInCU: 0x15B8FC, offset: 0x15B8FC, size: 0x8, addend: 0x0, symName: __ZN5Eigen8internal9evaluatorINS_6MatrixIfLi3ELi3ELi0ELi3ELi3EEEEC1ERKS3_, symObjAddr: 0x5A54, symBinAddr: 0x100009D40, symSize: 0x34 }
  - { offsetInCU: 0x15B935, offset: 0x15B935, size: 0x8, addend: 0x0, symName: __ZNK5Eigen9EigenBaseINS_6MatrixIfLi3ELi3ELi0ELi3ELi3EEEE18const_cast_derivedEv, symObjAddr: 0x5B80, symBinAddr: 0x100009E6C, symSize: 0x14 }
  - { offsetInCU: 0x15B95B, offset: 0x15B95B, size: 0x8, addend: 0x0, symName: __ZN5Eigen8internal31generic_dense_assignment_kernelINS0_9evaluatorINS_6MatrixIfLi3ELi3ELi0ELi3ELi3EEEEES5_NS0_9assign_opIffEELi0EEC1ERS5_RKS5_RKS7_RS4_, symObjAddr: 0x5B94, symBinAddr: 0x100009E80, symSize: 0x4C }
  - { offsetInCU: 0x15B9C1, offset: 0x15B9C1, size: 0x8, addend: 0x0, symName: __ZN5Eigen8internal21dense_assignment_loopINS0_31generic_dense_assignment_kernelINS0_9evaluatorINS_6MatrixIfLi3ELi3ELi0ELi3ELi3EEEEES6_NS0_9assign_opIffEELi0EEELi3ELi2EE3runERS9_, symObjAddr: 0x5BE0, symBinAddr: 0x100009ECC, symSize: 0x2C }
  - { offsetInCU: 0x15B9E5, offset: 0x15B9E5, size: 0x8, addend: 0x0, symName: __ZN5Eigen8internal9evaluatorINS_6MatrixIfLi3ELi3ELi0ELi3ELi3EEEED1Ev, symObjAddr: 0x5C0C, symBinAddr: 0x100009EF8, symSize: 0x2C }
  - { offsetInCU: 0x15BA12, offset: 0x15BA12, size: 0x8, addend: 0x0, symName: __ZN5Eigen8internal9evaluatorINS_6MatrixIfLi3ELi3ELi0ELi3ELi3EEEEC2ERKS3_, symObjAddr: 0x5C38, symBinAddr: 0x100009F24, symSize: 0x34 }
  - { offsetInCU: 0x15BA4B, offset: 0x15BA4B, size: 0x8, addend: 0x0, symName: __ZN5Eigen8internal9evaluatorINS_15PlainObjectBaseINS_6MatrixIfLi3ELi3ELi0ELi3ELi3EEEEEEC2ERKS5_, symObjAddr: 0x5C6C, symBinAddr: 0x100009F58, symSize: 0x80 }
  - { offsetInCU: 0x15BA83, offset: 0x15BA83, size: 0x8, addend: 0x0, symName: __ZN5Eigen8internal14evaluator_baseINS_6MatrixIfLi3ELi3ELi0ELi3ELi3EEEEC2Ev, symObjAddr: 0x5CEC, symBinAddr: 0x100009FD8, symSize: 0x14 }
  - { offsetInCU: 0x15BAAD, offset: 0x15BAAD, size: 0x8, addend: 0x0, symName: __ZNK5Eigen15PlainObjectBaseINS_6MatrixIfLi3ELi3ELi0ELi3ELi3EEEE4dataEv, symObjAddr: 0x5D00, symBinAddr: 0x100009FEC, symSize: 0x24 }
  - { offsetInCU: 0x15BAD3, offset: 0x15BAD3, size: 0x8, addend: 0x0, symName: __ZNK5Eigen15DenseCoeffsBaseINS_6MatrixIfLi3ELi3ELi0ELi3ELi3EEELi3EE11outerStrideEv, symObjAddr: 0x5D24, symBinAddr: 0x10000A010, symSize: 0x28 }
  - { offsetInCU: 0x15BAF9, offset: 0x15BAF9, size: 0x8, addend: 0x0, symName: __ZN5Eigen8internal30plainobjectbase_evaluator_dataIfLi3EEC1EPKfl, symObjAddr: 0x5D4C, symBinAddr: 0x10000A038, symSize: 0x3C }
  - { offsetInCU: 0x15BB3F, offset: 0x15BB3F, size: 0x8, addend: 0x0, symName: __ZN5Eigen8internal14evaluator_baseINS_6MatrixIfLi3ELi3ELi0ELi3ELi3EEEED2Ev, symObjAddr: 0x5D88, symBinAddr: 0x10000A074, symSize: 0x14 }
  - { offsetInCU: 0x15BB69, offset: 0x15BB69, size: 0x8, addend: 0x0, symName: __ZNK5Eigen6MatrixIfLi3ELi3ELi0ELi3ELi3EE11outerStrideEv, symObjAddr: 0x5D9C, symBinAddr: 0x10000A088, symSize: 0x34 }
  - { offsetInCU: 0x15BB8F, offset: 0x15BB8F, size: 0x8, addend: 0x0, symName: __ZNK5Eigen9DenseBaseINS_6MatrixIfLi3ELi3ELi0ELi3ELi3EEEE9innerSizeEv, symObjAddr: 0x5DD0, symBinAddr: 0x10000A0BC, symSize: 0x24 }
  - { offsetInCU: 0x15BBB5, offset: 0x15BBB5, size: 0x8, addend: 0x0, symName: __ZN5Eigen8internal30plainobjectbase_evaluator_dataIfLi3EEC2EPKfl, symObjAddr: 0x5DF4, symBinAddr: 0x10000A0E0, symSize: 0x40 }
  - { offsetInCU: 0x15BBFB, offset: 0x15BBFB, size: 0x8, addend: 0x0, symName: __ZN5Eigen8internal31generic_dense_assignment_kernelINS0_9evaluatorINS_6MatrixIfLi3ELi3ELi0ELi3ELi3EEEEES5_NS0_9assign_opIffEELi0EEC2ERS5_RKS5_RKS7_RS4_, symObjAddr: 0x5E44, symBinAddr: 0x10000A130, symSize: 0x44 }
  - { offsetInCU: 0x15BC61, offset: 0x15BC61, size: 0x8, addend: 0x0, symName: __ZN5Eigen8internal47copy_using_evaluator_innervec_CompleteUnrollingINS0_31generic_dense_assignment_kernelINS0_9evaluatorINS_6MatrixIfLi3ELi3ELi0ELi3ELi3EEEEES6_NS0_9assign_opIffEELi0EEELi0ELi8EE3runERS9_, symObjAddr: 0x5E88, symBinAddr: 0x10000A174, symSize: 0x34 }
  - { offsetInCU: 0x15BC85, offset: 0x15BC85, size: 0x8, addend: 0x0, symName: __ZN5Eigen8internal55copy_using_evaluator_DefaultTraversal_CompleteUnrollingINS0_31generic_dense_assignment_kernelINS0_9evaluatorINS_6MatrixIfLi3ELi3ELi0ELi3ELi3EEEEES6_NS0_9assign_opIffEELi0EEELi8ELi9EE3runERS9_, symObjAddr: 0x5EBC, symBinAddr: 0x10000A1A8, symSize: 0x34 }
  - { offsetInCU: 0x15BCA8, offset: 0x15BCA8, size: 0x8, addend: 0x0, symName: __ZN5Eigen8internal31generic_dense_assignment_kernelINS0_9evaluatorINS_6MatrixIfLi3ELi3ELi0ELi3ELi3EEEEES5_NS0_9assign_opIffEELi0EE24assignPacketByOuterInnerILi0ELi0E18__simd64_float32_tEEvll, symObjAddr: 0x5EF0, symBinAddr: 0x10000A1DC, symSize: 0x60 }
  - { offsetInCU: 0x15BD27, offset: 0x15BD27, size: 0x8, addend: 0x0, symName: __ZN5Eigen8internal47copy_using_evaluator_innervec_CompleteUnrollingINS0_31generic_dense_assignment_kernelINS0_9evaluatorINS_6MatrixIfLi3ELi3ELi0ELi3ELi3EEEEES6_NS0_9assign_opIffEELi0EEELi2ELi8EE3runERS9_, symObjAddr: 0x5F50, symBinAddr: 0x10000A23C, symSize: 0x34 }
  - { offsetInCU: 0x15BD4B, offset: 0x15BD4B, size: 0x8, addend: 0x0, symName: __ZN5Eigen8internal31generic_dense_assignment_kernelINS0_9evaluatorINS_6MatrixIfLi3ELi3ELi0ELi3ELi3EEEEES5_NS0_9assign_opIffEELi0EE20rowIndexByOuterInnerEll, symObjAddr: 0x5F84, symBinAddr: 0x10000A270, symSize: 0x18 }
  - { offsetInCU: 0x15BD7E, offset: 0x15BD7E, size: 0x8, addend: 0x0, symName: __ZN5Eigen8internal31generic_dense_assignment_kernelINS0_9evaluatorINS_6MatrixIfLi3ELi3ELi0ELi3ELi3EEEEES5_NS0_9assign_opIffEELi0EE20colIndexByOuterInnerEll, symObjAddr: 0x5F9C, symBinAddr: 0x10000A288, symSize: 0x18 }
  - { offsetInCU: 0x15BDB1, offset: 0x15BDB1, size: 0x8, addend: 0x0, symName: __ZN5Eigen8internal31generic_dense_assignment_kernelINS0_9evaluatorINS_6MatrixIfLi3ELi3ELi0ELi3ELi3EEEEES5_NS0_9assign_opIffEELi0EE12assignPacketILi0ELi0E18__simd64_float32_tEEvll, symObjAddr: 0x5FB4, symBinAddr: 0x10000A2A0, symSize: 0x70 }
  - { offsetInCU: 0x15BE1C, offset: 0x15BE1C, size: 0x8, addend: 0x0, symName: __ZNK5Eigen8internal9assign_opIffE12assignPacketILi0E18__simd64_float32_tEEvPfRKT0_, symObjAddr: 0x6024, symBinAddr: 0x10000A310, symSize: 0x40 }
  - { offsetInCU: 0x15BE96, offset: 0x15BE96, size: 0x8, addend: 0x0, symName: __ZN5Eigen8internal9evaluatorINS_15PlainObjectBaseINS_6MatrixIfLi3ELi3ELi0ELi3ELi3EEEEEE8coeffRefEll, symObjAddr: 0x6064, symBinAddr: 0x10000A350, symSize: 0x5C }
  - { offsetInCU: 0x15BEE2, offset: 0x15BEE2, size: 0x8, addend: 0x0, symName: __ZNK5Eigen8internal9evaluatorINS_15PlainObjectBaseINS_6MatrixIfLi3ELi3ELi0ELi3ELi3EEEEEE6packetILi0E18__simd64_float32_tEET0_ll, symObjAddr: 0x60C0, symBinAddr: 0x10000A3AC, symSize: 0x60 }
  - { offsetInCU: 0x15BF54, offset: 0x15BF54, size: 0x8, addend: 0x0, symName: __ZNK5Eigen8internal30plainobjectbase_evaluator_dataIfLi3EE11outerStrideEv, symObjAddr: 0x614C, symBinAddr: 0x10000A438, symSize: 0x14 }
  - { offsetInCU: 0x15BF7A, offset: 0x15BF7A, size: 0x8, addend: 0x0, symName: __ZN5Eigen8internal47copy_using_evaluator_innervec_CompleteUnrollingINS0_31generic_dense_assignment_kernelINS0_9evaluatorINS_6MatrixIfLi3ELi3ELi0ELi3ELi3EEEEES6_NS0_9assign_opIffEELi0EEELi4ELi8EE3runERS9_, symObjAddr: 0x6188, symBinAddr: 0x10000A474, symSize: 0x34 }
  - { offsetInCU: 0x15BF9E, offset: 0x15BF9E, size: 0x8, addend: 0x0, symName: __ZN5Eigen8internal47copy_using_evaluator_innervec_CompleteUnrollingINS0_31generic_dense_assignment_kernelINS0_9evaluatorINS_6MatrixIfLi3ELi3ELi0ELi3ELi3EEEEES6_NS0_9assign_opIffEELi0EEELi6ELi8EE3runERS9_, symObjAddr: 0x61BC, symBinAddr: 0x10000A4A8, symSize: 0x34 }
  - { offsetInCU: 0x15BFC2, offset: 0x15BFC2, size: 0x8, addend: 0x0, symName: __ZN5Eigen8internal47copy_using_evaluator_innervec_CompleteUnrollingINS0_31generic_dense_assignment_kernelINS0_9evaluatorINS_6MatrixIfLi3ELi3ELi0ELi3ELi3EEEEES6_NS0_9assign_opIffEELi0EEELi8ELi8EE3runERS9_, symObjAddr: 0x61F0, symBinAddr: 0x10000A4DC, symSize: 0x10 }
  - { offsetInCU: 0x15BFE2, offset: 0x15BFE2, size: 0x8, addend: 0x0, symName: __ZN5Eigen8internal31generic_dense_assignment_kernelINS0_9evaluatorINS_6MatrixIfLi3ELi3ELi0ELi3ELi3EEEEES5_NS0_9assign_opIffEELi0EE23assignCoeffByOuterInnerEll, symObjAddr: 0x6200, symBinAddr: 0x10000A4EC, symSize: 0x60 }
  - { offsetInCU: 0x15C044, offset: 0x15C044, size: 0x8, addend: 0x0, symName: __ZN5Eigen8internal55copy_using_evaluator_DefaultTraversal_CompleteUnrollingINS0_31generic_dense_assignment_kernelINS0_9evaluatorINS_6MatrixIfLi3ELi3ELi0ELi3ELi3EEEEES6_NS0_9assign_opIffEELi0EEELi9ELi9EE3runERS9_, symObjAddr: 0x6260, symBinAddr: 0x10000A54C, symSize: 0x10 }
  - { offsetInCU: 0x15C064, offset: 0x15C064, size: 0x8, addend: 0x0, symName: __ZN5Eigen8internal31generic_dense_assignment_kernelINS0_9evaluatorINS_6MatrixIfLi3ELi3ELi0ELi3ELi3EEEEES5_NS0_9assign_opIffEELi0EE11assignCoeffEll, symObjAddr: 0x6270, symBinAddr: 0x10000A55C, symSize: 0x6C }
  - { offsetInCU: 0x15C0A8, offset: 0x15C0A8, size: 0x8, addend: 0x0, symName: __ZNK5Eigen8internal9assign_opIffE11assignCoeffERfRKf, symObjAddr: 0x62DC, symBinAddr: 0x10000A5C8, symSize: 0x28 }
  - { offsetInCU: 0x15C0EA, offset: 0x15C0EA, size: 0x8, addend: 0x0, symName: __ZNK5Eigen8internal9evaluatorINS_15PlainObjectBaseINS_6MatrixIfLi3ELi3ELi0ELi3ELi3EEEEEE5coeffEll, symObjAddr: 0x6304, symBinAddr: 0x10000A5F0, symSize: 0x5C }
  - { offsetInCU: 0x15C12C, offset: 0x15C12C, size: 0x8, addend: 0x0, symName: __ZN5Eigen8internal9evaluatorINS_6MatrixIfLi3ELi3ELi0ELi3ELi3EEEED2Ev, symObjAddr: 0x6360, symBinAddr: 0x10000A64C, symSize: 0x2C }
  - { offsetInCU: 0x15C159, offset: 0x15C159, size: 0x8, addend: 0x0, symName: __ZN5Eigen8internal9evaluatorINS_15PlainObjectBaseINS_6MatrixIfLi3ELi3ELi0ELi3ELi3EEEEEED2Ev, symObjAddr: 0x638C, symBinAddr: 0x10000A678, symSize: 0x2C }
  - { offsetInCU: 0x15C185, offset: 0x15C185, size: 0x8, addend: 0x0, symName: __ZN5Eigen8internal9assign_opIffEC2Ev, symObjAddr: 0x63B8, symBinAddr: 0x10000A6A4, symSize: 0x14 }
  - { offsetInCU: 0x15C1AF, offset: 0x15C1AF, size: 0x8, addend: 0x0, symName: __ZN5Eigen19ColPivHouseholderQRINS_6MatrixIfLi3ELi3ELi0ELi3ELi3EEEE25check_template_parametersEv, symObjAddr: 0x63CC, symBinAddr: 0x10000A6B8, symSize: 0x4 }
  - { offsetInCU: 0x15C1C3, offset: 0x15C1C3, size: 0x8, addend: 0x0, symName: __ZN5Eigen16GenericNumTraitsIiE7highestEv, symObjAddr: 0x63D0, symBinAddr: 0x10000A6BC, symSize: 0x14 }
  - { offsetInCU: 0x15C1D7, offset: 0x15C1D7, size: 0x8, addend: 0x0, symName: __ZNK5Eigen10MatrixBaseINS_6MatrixIfLi3ELi3ELi0ELi3ELi3EEEE12diagonalSizeEv, symObjAddr: 0x63E4, symBinAddr: 0x10000A6D0, symSize: 0x64 }
  - { offsetInCU: 0x15C222, offset: 0x15C222, size: 0x8, addend: 0x0, symName: __ZN5Eigen9DenseBaseINS_6MatrixIfLi3ELi3ELi0ELi3ELi3EEEE3colEl, symObjAddr: 0x6448, symBinAddr: 0x10000A734, symSize: 0x3C }
  - { offsetInCU: 0x15C257, offset: 0x15C257, size: 0x8, addend: 0x0, symName: __ZNK5Eigen10MatrixBaseINS_5BlockINS_6MatrixIfLi3ELi3ELi0ELi3ELi3EEELi3ELi1ELb1EEEE4normEv, symObjAddr: 0x6484, symBinAddr: 0x10000A770, symSize: 0x44 }
  - { offsetInCU: 0x15C2C2, offset: 0x15C2C2, size: 0x8, addend: 0x0, symName: __ZN5Eigen15PlainObjectBaseINS_6MatrixIfLi1ELi3ELi1ELi1ELi3EEEE8coeffRefEl, symObjAddr: 0x64C8, symBinAddr: 0x10000A7B4, symSize: 0x30 }
  - { offsetInCU: 0x15C2F6, offset: 0x15C2F6, size: 0x8, addend: 0x0, symName: __ZNK5Eigen9DenseBaseINS_6MatrixIfLi1ELi3ELi1ELi1ELi3EEEE8maxCoeffEv, symObjAddr: 0x651C, symBinAddr: 0x10000A808, symSize: 0x24 }
  - { offsetInCU: 0x15C31C, offset: 0x15C31C, size: 0x8, addend: 0x0, symName: __ZN5Eigen16GenericNumTraitsIfE7epsilonEv, symObjAddr: 0x6540, symBinAddr: 0x10000A82C, symSize: 0x14 }
  - { offsetInCU: 0x15C335, offset: 0x15C335, size: 0x8, addend: 0x0, symName: __ZN5Eigen9DenseBaseINS_6MatrixIfLi1ELi3ELi1ELi1ELi3EEEE4tailIlEENS3_22FixedSegmentReturnTypeIXsr8internal15get_fixed_valueIT_EE5valueEE4TypeES6_, symObjAddr: 0x6554, symBinAddr: 0x10000A840, symSize: 0x84 }
  - { offsetInCU: 0x15C373, offset: 0x15C373, size: 0x8, addend: 0x0, symName: __ZNK5Eigen9DenseBaseINS_5BlockINS_6MatrixIfLi1ELi3ELi1ELi1ELi3EEELi1ELin1ELb0EEEE8maxCoeffIlEEfPT_, symObjAddr: 0x65D8, symBinAddr: 0x10000A8C4, symSize: 0x2C }
  - { offsetInCU: 0x15C3B1, offset: 0x15C3B1, size: 0x8, addend: 0x0, symName: __ZN5Eigen15PlainObjectBaseINS_6MatrixIlLi1ELi3ELi1ELi1ELi3EEEE8coeffRefEl, symObjAddr: 0x6604, symBinAddr: 0x10000A8F0, symSize: 0x30 }
  - { offsetInCU: 0x15C3E5, offset: 0x15C3E5, size: 0x8, addend: 0x0, symName: __ZN5Eigen9DenseBaseINS_5BlockINS_6MatrixIfLi3ELi3ELi0ELi3ELi3EEELi3ELi1ELb1EEEE4swapIS4_EEvRKNS0_IT_EE, symObjAddr: 0x6634, symBinAddr: 0x10000A920, symSize: 0xEC }
  - { offsetInCU: 0x15C428, offset: 0x15C428, size: 0x8, addend: 0x0, symName: __ZN5Eigen9DenseBaseINS_5BlockINS_6MatrixIfLi3ELi3ELi0ELi3ELi3EEELi3ELi1ELb1EEEE4tailIlEENS5_22FixedSegmentReturnTypeIXsr8internal15get_fixed_valueIT_EE5valueEE4TypeES8_, symObjAddr: 0x675C, symBinAddr: 0x10000AA48, symSize: 0x84 }
  - { offsetInCU: 0x15C466, offset: 0x15C466, size: 0x8, addend: 0x0, symName: __ZN5Eigen10MatrixBaseINS_5BlockINS1_INS_6MatrixIfLi3ELi3ELi0ELi3ELi3EEELi3ELi1ELb1EEELin1ELi1ELb0EEEE22makeHouseholderInPlaceERfS7_, symObjAddr: 0x67E0, symBinAddr: 0x10000AACC, symSize: 0x6C }
  - { offsetInCU: 0x15C4BA, offset: 0x15C4BA, size: 0x8, addend: 0x0, symName: __ZN5Eigen15PlainObjectBaseINS_6MatrixIfLi3ELi1ELi0ELi3ELi1EEEE8coeffRefEl, symObjAddr: 0x684C, symBinAddr: 0x10000AB38, symSize: 0x30 }
  - { offsetInCU: 0x15C4ED, offset: 0x15C4ED, size: 0x8, addend: 0x0, symName: __Z3absB8ue170006f, symObjAddr: 0x687C, symBinAddr: 0x10000AB68, symSize: 0x18 }
  - { offsetInCU: 0x15C51A, offset: 0x15C51A, size: 0x8, addend: 0x0, symName: __ZN5Eigen9DenseBaseINS_6MatrixIfLi3ELi3ELi0ELi3ELi3EEEE17bottomRightCornerIllEENS3_13FixedBlockXprIXsr8internal15get_fixed_valueIT_EE5valueEXsr8internal15get_fixed_valueIT0_EE5valueEE4TypeES6_S7_, symObjAddr: 0x6894, symBinAddr: 0x10000AB80, symSize: 0xD0 }
  - { offsetInCU: 0x15C57F, offset: 0x15C57F, size: 0x8, addend: 0x0, symName: __ZN5Eigen10MatrixBaseINS_5BlockINS_6MatrixIfLi3ELi3ELi0ELi3ELi3EEELin1ELin1ELb0EEEE25applyHouseholderOnTheLeftINS_11VectorBlockINS1_IS3_Li3ELi1ELb1EEELin1EEEEEvRKT_RKfPf, symObjAddr: 0x6964, symBinAddr: 0x10000AC50, symSize: 0x22C }
  - { offsetInCU: 0x15C60D, offset: 0x15C60D, size: 0x8, addend: 0x0, symName: __ZNK5Eigen10MatrixBaseINS_5BlockINS1_INS_6MatrixIfLi3ELi3ELi0ELi3ELi3EEELi3ELi1ELb1EEELin1ELi1ELb0EEEE4normEv, symObjAddr: 0x6B90, symBinAddr: 0x10000AE7C, symSize: 0x44 }
  - { offsetInCU: 0x15C678, offset: 0x15C678, size: 0x8, addend: 0x0, symName: __ZN5Eigen15PermutationBaseINS_17PermutationMatrixILi3ELi3EiEEE11setIdentityEl, symObjAddr: 0x6BD4, symBinAddr: 0x10000AEC0, symSize: 0x38 }
  - { offsetInCU: 0x15C6AC, offset: 0x15C6AC, size: 0x8, addend: 0x0, symName: __ZN5Eigen15PermutationBaseINS_17PermutationMatrixILi3ELi3EiEEE28applyTranspositionOnTheRightEll, symObjAddr: 0x6C0C, symBinAddr: 0x10000AEF8, symSize: 0x120 }
  - { offsetInCU: 0x15C6EE, offset: 0x15C6EE, size: 0x8, addend: 0x0, symName: __ZNK5Eigen15PlainObjectBaseINS_6MatrixIlLi1ELi3ELi1ELi1ELi3EEEE5coeffEl, symObjAddr: 0x6D2C, symBinAddr: 0x10000B018, symSize: 0x30 }
  - { offsetInCU: 0x15C722, offset: 0x15C722, size: 0x8, addend: 0x0, symName: __ZNSt3__114numeric_limitsIiE3maxB8ue170006Ev, symObjAddr: 0x6D5C, symBinAddr: 0x10000B048, symSize: 0x14 }
  - { offsetInCU: 0x15C736, offset: 0x15C736, size: 0x8, addend: 0x0, symName: __ZNSt3__123__libcpp_numeric_limitsIiLb1EE3maxB8ue170006Ev, symObjAddr: 0x6D70, symBinAddr: 0x10000B05C, symSize: 0x8 }
  - { offsetInCU: 0x15C74A, offset: 0x15C74A, size: 0x8, addend: 0x0, symName: __ZN5Eigen5BlockINS_6MatrixIfLi3ELi3ELi0ELi3ELi3EEELi3ELi1ELb1EEC1ERS2_l, symObjAddr: 0x6D78, symBinAddr: 0x10000B064, symSize: 0x3C }
  - { offsetInCU: 0x15C790, offset: 0x15C790, size: 0x8, addend: 0x0, symName: __ZN5Eigen5BlockINS_6MatrixIfLi3ELi3ELi0ELi3ELi3EEELi3ELi1ELb1EEC2ERS2_l, symObjAddr: 0x6DB4, symBinAddr: 0x10000B0A0, symSize: 0xAC }
  - { offsetInCU: 0x15C7D6, offset: 0x15C7D6, size: 0x8, addend: 0x0, symName: __ZN5Eigen9BlockImplINS_6MatrixIfLi3ELi3ELi0ELi3ELi3EEELi3ELi1ELb1ENS_5DenseEEC2ERS2_l, symObjAddr: 0x6E60, symBinAddr: 0x10000B14C, symSize: 0x3C }
  - { offsetInCU: 0x15C81C, offset: 0x15C81C, size: 0x8, addend: 0x0, symName: __ZN5Eigen8internal15BlockImpl_denseINS_6MatrixIfLi3ELi3ELi0ELi3ELi3EEELi3ELi1ELb1ELb1EEC2ERS3_l, symObjAddr: 0x6E9C, symBinAddr: 0x10000B188, symSize: 0xAC }
  - { offsetInCU: 0x15C864, offset: 0x15C864, size: 0x8, addend: 0x0, symName: __ZN5Eigen15PlainObjectBaseINS_6MatrixIfLi3ELi3ELi0ELi3ELi3EEEE4dataEv, symObjAddr: 0x6F48, symBinAddr: 0x10000B234, symSize: 0x24 }
  - { offsetInCU: 0x15C88A, offset: 0x15C88A, size: 0x8, addend: 0x0, symName: __ZN5Eigen7MapBaseINS_5BlockINS_6MatrixIfLi3ELi3ELi0ELi3ELi3EEELi3ELi1ELb1EEELi1EEC2EPfll, symObjAddr: 0x6F6C, symBinAddr: 0x10000B258, symSize: 0x44 }
  - { offsetInCU: 0x15C8E1, offset: 0x15C8E1, size: 0x8, addend: 0x0, symName: __ZN5Eigen8internal19variable_if_dynamicIlLin1EEC1El, symObjAddr: 0x6FB0, symBinAddr: 0x10000B29C, symSize: 0x34 }
  - { offsetInCU: 0x15C919, offset: 0x15C919, size: 0x8, addend: 0x0, symName: __ZN5Eigen8internal15BlockImpl_denseINS_6MatrixIfLi3ELi3ELi0ELi3ELi3EEELi3ELi1ELb1ELb1EE4initEv, symObjAddr: 0x6FE4, symBinAddr: 0x10000B2D0, symSize: 0x34 }
  - { offsetInCU: 0x15C93F, offset: 0x15C93F, size: 0x8, addend: 0x0, symName: __ZN5Eigen7MapBaseINS_5BlockINS_6MatrixIfLi3ELi3ELi0ELi3ELi3EEELi3ELi1ELb1EEELi0EEC2EPfll, symObjAddr: 0x7018, symBinAddr: 0x10000B304, symSize: 0x13C }
  - { offsetInCU: 0x15C993, offset: 0x15C993, size: 0x8, addend: 0x0, symName: __ZN5Eigen10MatrixBaseINS_5BlockINS_6MatrixIfLi3ELi3ELi0ELi3ELi3EEELi3ELi1ELb1EEEEC2Ev, symObjAddr: 0x7154, symBinAddr: 0x10000B440, symSize: 0x2C }
  - { offsetInCU: 0x15C9BD, offset: 0x15C9BD, size: 0x8, addend: 0x0, symName: __ZN5Eigen8internal19variable_if_dynamicIlLi3EEC1El, symObjAddr: 0x7180, symBinAddr: 0x10000B46C, symSize: 0x34 }
  - { offsetInCU: 0x15C9F5, offset: 0x15C9F5, size: 0x8, addend: 0x0, symName: __ZN5Eigen8internal19variable_if_dynamicIlLi1EEC1El, symObjAddr: 0x71B4, symBinAddr: 0x10000B4A0, symSize: 0x34 }
  - { offsetInCU: 0x15CA2D, offset: 0x15CA2D, size: 0x8, addend: 0x0, symName: __ZNK5Eigen7MapBaseINS_5BlockINS_6MatrixIfLi3ELi3ELi0ELi3ELi3EEELi3ELi1ELb1EEELi0EE11checkSanityIS4_EEvNS_8internal9enable_ifIXeqsr8internal6traitsIT_EE9AlignmentLi0EEPvE4typeE, symObjAddr: 0x71E8, symBinAddr: 0x10000B4D4, symSize: 0x14 }
  - { offsetInCU: 0x15CA67, offset: 0x15CA67, size: 0x8, addend: 0x0, symName: __ZN5Eigen9DenseBaseINS_5BlockINS_6MatrixIfLi3ELi3ELi0ELi3ELi3EEELi3ELi1ELb1EEEEC2Ev, symObjAddr: 0x71FC, symBinAddr: 0x10000B4E8, symSize: 0x14 }
  - { offsetInCU: 0x15CA91, offset: 0x15CA91, size: 0x8, addend: 0x0, symName: __ZN5Eigen8internal19variable_if_dynamicIlLi3EEC2El, symObjAddr: 0x7210, symBinAddr: 0x10000B4FC, symSize: 0x64 }
  - { offsetInCU: 0x15CAC9, offset: 0x15CAC9, size: 0x8, addend: 0x0, symName: __ZN5Eigen8internal19variable_if_dynamicIlLi1EEC2El, symObjAddr: 0x7274, symBinAddr: 0x10000B560, symSize: 0x64 }
  - { offsetInCU: 0x15CB01, offset: 0x15CB01, size: 0x8, addend: 0x0, symName: __ZN5Eigen8internal19variable_if_dynamicIlLin1EEC2El, symObjAddr: 0x72D8, symBinAddr: 0x10000B5C4, symSize: 0x20 }
  - { offsetInCU: 0x15CB39, offset: 0x15CB39, size: 0x8, addend: 0x0, symName: __ZNK5Eigen10MatrixBaseINS_5BlockINS_6MatrixIfLi3ELi3ELi0ELi3ELi3EEELi3ELi1ELb1EEEE11squaredNormEv, symObjAddr: 0x72F8, symBinAddr: 0x10000B5E4, symSize: 0x40 }
  - { offsetInCU: 0x15CB61, offset: 0x15CB61, size: 0x8, addend: 0x0, symName: __ZNK5Eigen10MatrixBaseINS_5BlockINS_6MatrixIfLi3ELi3ELi0ELi3ELi3EEELi3ELi1ELb1EEEE9cwiseAbs2Ev, symObjAddr: 0x735C, symBinAddr: 0x10000B648, symSize: 0x4C }
  - { offsetInCU: 0x15CB87, offset: 0x15CB87, size: 0x8, addend: 0x0, symName: __ZNK5Eigen9DenseBaseINS_12CwiseUnaryOpINS_8internal14scalar_abs2_opIfEEKNS_5BlockINS_6MatrixIfLi3ELi3ELi0ELi3ELi3EEELi3ELi1ELb1EEEEEE3sumEv, symObjAddr: 0x73A8, symBinAddr: 0x10000B694, symSize: 0x40 }
  - { offsetInCU: 0x15CBB0, offset: 0x15CBB0, size: 0x8, addend: 0x0, symName: __ZN5Eigen8internal17real_default_implIfLb0EE3runERKf, symObjAddr: 0x73E8, symBinAddr: 0x10000B6D4, symSize: 0x18 }
  - { offsetInCU: 0x15CBD3, offset: 0x15CBD3, size: 0x8, addend: 0x0, symName: __ZNK5Eigen9EigenBaseINS_5BlockINS_6MatrixIfLi3ELi3ELi0ELi3ELi3EEELi3ELi1ELb1EEEE7derivedEv, symObjAddr: 0x7400, symBinAddr: 0x10000B6EC, symSize: 0x14 }
  - { offsetInCU: 0x15CBF9, offset: 0x15CBF9, size: 0x8, addend: 0x0, symName: __ZN5Eigen8internal14scalar_abs2_opIfEC1Ev, symObjAddr: 0x7414, symBinAddr: 0x10000B700, symSize: 0x2C }
  - { offsetInCU: 0x15CC23, offset: 0x15CC23, size: 0x8, addend: 0x0, symName: __ZN5Eigen12CwiseUnaryOpINS_8internal14scalar_abs2_opIfEEKNS_5BlockINS_6MatrixIfLi3ELi3ELi0ELi3ELi3EEELi3ELi1ELb1EEEEC1ERS8_RKS3_, symObjAddr: 0x7440, symBinAddr: 0x10000B72C, symSize: 0x3C }
  - { offsetInCU: 0x15CC69, offset: 0x15CC69, size: 0x8, addend: 0x0, symName: __ZN5Eigen8internal14scalar_abs2_opIfEC2Ev, symObjAddr: 0x747C, symBinAddr: 0x10000B768, symSize: 0x14 }
  - { offsetInCU: 0x15CC93, offset: 0x15CC93, size: 0x8, addend: 0x0, symName: __ZN5Eigen12CwiseUnaryOpINS_8internal14scalar_abs2_opIfEEKNS_5BlockINS_6MatrixIfLi3ELi3ELi0ELi3ELi3EEELi3ELi1ELb1EEEEC2ERS8_RKS3_, symObjAddr: 0x7490, symBinAddr: 0x10000B77C, symSize: 0x54 }
  - { offsetInCU: 0x15CCDE, offset: 0x15CCDE, size: 0x8, addend: 0x0, symName: __ZN5Eigen16CwiseUnaryOpImplINS_8internal14scalar_abs2_opIfEEKNS_5BlockINS_6MatrixIfLi3ELi3ELi0ELi3ELi3EEELi3ELi1ELb1EEENS_5DenseEEC2Ev, symObjAddr: 0x74E4, symBinAddr: 0x10000B7D0, symSize: 0x2C }
  - { offsetInCU: 0x15CD0A, offset: 0x15CD0A, size: 0x8, addend: 0x0, symName: __ZN5Eigen8internal14scalar_abs2_opIfEC1ERKS2_, symObjAddr: 0x7510, symBinAddr: 0x10000B7FC, symSize: 0x34 }
  - { offsetInCU: 0x15CD3F, offset: 0x15CD3F, size: 0x8, addend: 0x0, symName: __ZN5Eigen10MatrixBaseINS_12CwiseUnaryOpINS_8internal14scalar_abs2_opIfEEKNS_5BlockINS_6MatrixIfLi3ELi3ELi0ELi3ELi3EEELi3ELi1ELb1EEEEEEC2Ev, symObjAddr: 0x7544, symBinAddr: 0x10000B830, symSize: 0x2C }
  - { offsetInCU: 0x15CD69, offset: 0x15CD69, size: 0x8, addend: 0x0, symName: __ZN5Eigen9DenseBaseINS_12CwiseUnaryOpINS_8internal14scalar_abs2_opIfEEKNS_5BlockINS_6MatrixIfLi3ELi3ELi0ELi3ELi3EEELi3ELi1ELb1EEEEEEC2Ev, symObjAddr: 0x7570, symBinAddr: 0x10000B85C, symSize: 0x14 }
  - { offsetInCU: 0x15CD93, offset: 0x15CD93, size: 0x8, addend: 0x0, symName: __ZN5Eigen8internal14scalar_abs2_opIfEC2ERKS2_, symObjAddr: 0x7584, symBinAddr: 0x10000B870, symSize: 0x18 }
  - { offsetInCU: 0x15CDC8, offset: 0x15CDC8, size: 0x8, addend: 0x0, symName: __ZNK5Eigen9EigenBaseINS_12CwiseUnaryOpINS_8internal14scalar_abs2_opIfEEKNS_5BlockINS_6MatrixIfLi3ELi3ELi0ELi3ELi3EEELi3ELi1ELb1EEEEEE7derivedEv, symObjAddr: 0x759C, symBinAddr: 0x10000B888, symSize: 0x14 }
  - { offsetInCU: 0x15CDEE, offset: 0x15CDEE, size: 0x8, addend: 0x0, symName: __ZNK5Eigen9DenseBaseINS_12CwiseUnaryOpINS_8internal14scalar_abs2_opIfEEKNS_5BlockINS_6MatrixIfLi3ELi3ELi0ELi3ELi3EEELi3ELi1ELb1EEEEEE5reduxINS2_13scalar_sum_opIffEEEEfRKT_, symObjAddr: 0x75B0, symBinAddr: 0x10000B89C, symSize: 0x10C }
  - { offsetInCU: 0x15CE4A, offset: 0x15CE4A, size: 0x8, addend: 0x0, symName: __ZN5Eigen8internal13scalar_sum_opIffEC1Ev, symObjAddr: 0x76BC, symBinAddr: 0x10000B9A8, symSize: 0x2C }
  - { offsetInCU: 0x15CE74, offset: 0x15CE74, size: 0x8, addend: 0x0, symName: __ZNK5Eigen9EigenBaseINS_12CwiseUnaryOpINS_8internal14scalar_abs2_opIfEEKNS_5BlockINS_6MatrixIfLi3ELi3ELi0ELi3ELi3EEELi3ELi1ELb1EEEEEE4rowsEv, symObjAddr: 0x76E8, symBinAddr: 0x10000B9D4, symSize: 0x28 }
  - { offsetInCU: 0x15CE9A, offset: 0x15CE9A, size: 0x8, addend: 0x0, symName: __ZNK5Eigen9EigenBaseINS_12CwiseUnaryOpINS_8internal14scalar_abs2_opIfEEKNS_5BlockINS_6MatrixIfLi3ELi3ELi0ELi3ELi3EEELi3ELi1ELb1EEEEEE4colsEv, symObjAddr: 0x7710, symBinAddr: 0x10000B9FC, symSize: 0x28 }
  - { offsetInCU: 0x15CEC0, offset: 0x15CEC0, size: 0x8, addend: 0x0, symName: __ZN5Eigen8internal15redux_evaluatorINS_12CwiseUnaryOpINS0_14scalar_abs2_opIfEEKNS_5BlockINS_6MatrixIfLi3ELi3ELi0ELi3ELi3EEELi3ELi1ELb1EEEEEEC1ERKSA_, symObjAddr: 0x7738, symBinAddr: 0x10000BA24, symSize: 0x34 }
  - { offsetInCU: 0x15CEF9, offset: 0x15CEF9, size: 0x8, addend: 0x0, symName: __ZN5Eigen8internal10redux_implINS0_13scalar_sum_opIffEENS0_15redux_evaluatorINS_12CwiseUnaryOpINS0_14scalar_abs2_opIfEEKNS_5BlockINS_6MatrixIfLi3ELi3ELi0ELi3ELi3EEELi3ELi1ELb1EEEEEEELi3ELi2EE3runISD_EEfRKSE_RKS3_RKT_, symObjAddr: 0x776C, symBinAddr: 0x10000BA58, symSize: 0x100 }
  - { offsetInCU: 0x15CF61, offset: 0x15CF61, size: 0x8, addend: 0x0, symName: __ZN5Eigen8internal15redux_evaluatorINS_12CwiseUnaryOpINS0_14scalar_abs2_opIfEEKNS_5BlockINS_6MatrixIfLi3ELi3ELi0ELi3ELi3EEELi3ELi1ELb1EEEEEED1Ev, symObjAddr: 0x786C, symBinAddr: 0x10000BB58, symSize: 0x2C }
  - { offsetInCU: 0x15CF8E, offset: 0x15CF8E, size: 0x8, addend: 0x0, symName: __ZNK5Eigen12CwiseUnaryOpINS_8internal14scalar_abs2_opIfEEKNS_5BlockINS_6MatrixIfLi3ELi3ELi0ELi3ELi3EEELi3ELi1ELb1EEEE4rowsEv, symObjAddr: 0x7898, symBinAddr: 0x10000BB84, symSize: 0x24 }
  - { offsetInCU: 0x15CFB4, offset: 0x15CFB4, size: 0x8, addend: 0x0, symName: __ZNK5Eigen7MapBaseINS_5BlockINS_6MatrixIfLi3ELi3ELi0ELi3ELi3EEELi3ELi1ELb1EEELi0EE4rowsEv, symObjAddr: 0x78BC, symBinAddr: 0x10000BBA8, symSize: 0x30 }
  - { offsetInCU: 0x15CFDA, offset: 0x15CFDA, size: 0x8, addend: 0x0, symName: __ZN5Eigen8internal19variable_if_dynamicIlLi3EE5valueEv, symObjAddr: 0x78EC, symBinAddr: 0x10000BBD8, symSize: 0x8 }
  - { offsetInCU: 0x15CFEE, offset: 0x15CFEE, size: 0x8, addend: 0x0, symName: __ZNK5Eigen12CwiseUnaryOpINS_8internal14scalar_abs2_opIfEEKNS_5BlockINS_6MatrixIfLi3ELi3ELi0ELi3ELi3EEELi3ELi1ELb1EEEE4colsEv, symObjAddr: 0x78F4, symBinAddr: 0x10000BBE0, symSize: 0x24 }
  - { offsetInCU: 0x15D014, offset: 0x15D014, size: 0x8, addend: 0x0, symName: __ZNK5Eigen7MapBaseINS_5BlockINS_6MatrixIfLi3ELi3ELi0ELi3ELi3EEELi3ELi1ELb1EEELi0EE4colsEv, symObjAddr: 0x7918, symBinAddr: 0x10000BC04, symSize: 0x30 }
  - { offsetInCU: 0x15D03A, offset: 0x15D03A, size: 0x8, addend: 0x0, symName: __ZN5Eigen8internal19variable_if_dynamicIlLi1EE5valueEv, symObjAddr: 0x7948, symBinAddr: 0x10000BC34, symSize: 0x8 }
  - { offsetInCU: 0x15D04E, offset: 0x15D04E, size: 0x8, addend: 0x0, symName: __ZN5Eigen8internal15redux_evaluatorINS_12CwiseUnaryOpINS0_14scalar_abs2_opIfEEKNS_5BlockINS_6MatrixIfLi3ELi3ELi0ELi3ELi3EEELi3ELi1ELb1EEEEEEC2ERKSA_, symObjAddr: 0x7950, symBinAddr: 0x10000BC3C, symSize: 0x34 }
  - { offsetInCU: 0x15D087, offset: 0x15D087, size: 0x8, addend: 0x0, symName: __ZN5Eigen8internal9evaluatorINS_12CwiseUnaryOpINS0_14scalar_abs2_opIfEEKNS_5BlockINS_6MatrixIfLi3ELi3ELi0ELi3ELi3EEELi3ELi1ELb1EEEEEEC2ERKSA_, symObjAddr: 0x7984, symBinAddr: 0x10000BC70, symSize: 0x34 }
  - { offsetInCU: 0x15D0BF, offset: 0x15D0BF, size: 0x8, addend: 0x0, symName: __ZN5Eigen8internal15unary_evaluatorINS_12CwiseUnaryOpINS0_14scalar_abs2_opIfEEKNS_5BlockINS_6MatrixIfLi3ELi3ELi0ELi3ELi3EEELi3ELi1ELb1EEEEENS0_10IndexBasedEfEC2ERKSA_, symObjAddr: 0x79B8, symBinAddr: 0x10000BCA4, symSize: 0x64 }
  - { offsetInCU: 0x15D0F8, offset: 0x15D0F8, size: 0x8, addend: 0x0, symName: __ZN5Eigen8internal14evaluator_baseINS_12CwiseUnaryOpINS0_14scalar_abs2_opIfEEKNS_5BlockINS_6MatrixIfLi3ELi3ELi0ELi3ELi3EEELi3ELi1ELb1EEEEEEC2Ev, symObjAddr: 0x7A1C, symBinAddr: 0x10000BD08, symSize: 0x14 }
  - { offsetInCU: 0x15D122, offset: 0x15D122, size: 0x8, addend: 0x0, symName: __ZN5Eigen8internal15unary_evaluatorINS_12CwiseUnaryOpINS0_14scalar_abs2_opIfEEKNS_5BlockINS_6MatrixIfLi3ELi3ELi0ELi3ELi3EEELi3ELi1ELb1EEEEENS0_10IndexBasedEfE4DataC1ERKSA_, symObjAddr: 0x7A30, symBinAddr: 0x10000BD1C, symSize: 0x34 }
  - { offsetInCU: 0x15D15B, offset: 0x15D15B, size: 0x8, addend: 0x0, symName: __ZN5Eigen8internal14evaluator_baseINS_12CwiseUnaryOpINS0_14scalar_abs2_opIfEEKNS_5BlockINS_6MatrixIfLi3ELi3ELi0ELi3ELi3EEELi3ELi1ELb1EEEEEED2Ev, symObjAddr: 0x7A64, symBinAddr: 0x10000BD50, symSize: 0x14 }
  - { offsetInCU: 0x15D185, offset: 0x15D185, size: 0x8, addend: 0x0, symName: __ZN5Eigen8internal15unary_evaluatorINS_12CwiseUnaryOpINS0_14scalar_abs2_opIfEEKNS_5BlockINS_6MatrixIfLi3ELi3ELi0ELi3ELi3EEELi3ELi1ELb1EEEEENS0_10IndexBasedEfE4DataC2ERKSA_, symObjAddr: 0x7A78, symBinAddr: 0x10000BD64, symSize: 0x58 }
  - { offsetInCU: 0x15D1BE, offset: 0x15D1BE, size: 0x8, addend: 0x0, symName: __ZNK5Eigen12CwiseUnaryOpINS_8internal14scalar_abs2_opIfEEKNS_5BlockINS_6MatrixIfLi3ELi3ELi0ELi3ELi3EEELi3ELi1ELb1EEEE7functorEv, symObjAddr: 0x7AD0, symBinAddr: 0x10000BDBC, symSize: 0x18 }
  - { offsetInCU: 0x15D1E4, offset: 0x15D1E4, size: 0x8, addend: 0x0, symName: __ZNK5Eigen12CwiseUnaryOpINS_8internal14scalar_abs2_opIfEEKNS_5BlockINS_6MatrixIfLi3ELi3ELi0ELi3ELi3EEELi3ELi1ELb1EEEE16nestedExpressionEv, symObjAddr: 0x7AE8, symBinAddr: 0x10000BDD4, symSize: 0x14 }
  - { offsetInCU: 0x15D20A, offset: 0x15D20A, size: 0x8, addend: 0x0, symName: __ZN5Eigen8internal9evaluatorIKNS_5BlockINS_6MatrixIfLi3ELi3ELi0ELi3ELi3EEELi3ELi1ELb1EEEEC1ERS6_, symObjAddr: 0x7AFC, symBinAddr: 0x10000BDE8, symSize: 0x34 }
  - { offsetInCU: 0x15D242, offset: 0x15D242, size: 0x8, addend: 0x0, symName: __ZN5Eigen8internal9evaluatorIKNS_5BlockINS_6MatrixIfLi3ELi3ELi0ELi3ELi3EEELi3ELi1ELb1EEEEC2ERS6_, symObjAddr: 0x7B30, symBinAddr: 0x10000BE1C, symSize: 0x34 }
  - { offsetInCU: 0x15D27A, offset: 0x15D27A, size: 0x8, addend: 0x0, symName: __ZN5Eigen8internal9evaluatorINS_5BlockINS_6MatrixIfLi3ELi3ELi0ELi3ELi3EEELi3ELi1ELb1EEEEC2ERKS5_, symObjAddr: 0x7B64, symBinAddr: 0x10000BE50, symSize: 0x34 }
  - { offsetInCU: 0x15D2B3, offset: 0x15D2B3, size: 0x8, addend: 0x0, symName: __ZN5Eigen8internal15block_evaluatorINS_6MatrixIfLi3ELi3ELi0ELi3ELi3EEELi3ELi1ELb1ELb1EEC2ERKNS_5BlockIS3_Li3ELi1ELb1EEE, symObjAddr: 0x7B98, symBinAddr: 0x10000BE84, symSize: 0xDC }
  - { offsetInCU: 0x15D2EC, offset: 0x15D2EC, size: 0x8, addend: 0x0, symName: __ZN5Eigen8internal17mapbase_evaluatorINS_5BlockINS_6MatrixIfLi3ELi3ELi0ELi3ELi3EEELi3ELi1ELb1EEENS3_IfLi3ELi1ELi0ELi3ELi1EEEEC2ERKS5_, symObjAddr: 0x7C74, symBinAddr: 0x10000BF60, symSize: 0xB4 }
  - { offsetInCU: 0x15D325, offset: 0x15D325, size: 0x8, addend: 0x0, symName: __ZNK5Eigen7MapBaseINS_5BlockINS_6MatrixIfLi3ELi3ELi0ELi3ELi3EEELi3ELi1ELb1EEELi1EE4dataEv, symObjAddr: 0x7D28, symBinAddr: 0x10000C014, symSize: 0x18 }
  - { offsetInCU: 0x15D34B, offset: 0x15D34B, size: 0x8, addend: 0x0, symName: __ZN5Eigen8internal17mapbase_evaluatorINS_5BlockINS_6MatrixIfLi3ELi3ELi0ELi3ELi3EEELi3ELi1ELb1EEENS3_IfLi3ELi1ELi0ELi3ELi1EEEED2Ev, symObjAddr: 0x7D40, symBinAddr: 0x10000C02C, symSize: 0x2C }
  - { offsetInCU: 0x15D378, offset: 0x15D378, size: 0x8, addend: 0x0, symName: __ZN5Eigen8internal14evaluator_baseINS_5BlockINS_6MatrixIfLi3ELi3ELi0ELi3ELi3EEELi3ELi1ELb1EEEEC2Ev, symObjAddr: 0x7D6C, symBinAddr: 0x10000C058, symSize: 0x14 }
  - { offsetInCU: 0x15D3A2, offset: 0x15D3A2, size: 0x8, addend: 0x0, symName: __ZNK5Eigen8internal15BlockImpl_denseINS_6MatrixIfLi3ELi3ELi0ELi3ELi3EEELi3ELi1ELb1ELb1EE11innerStrideEv, symObjAddr: 0x7D80, symBinAddr: 0x10000C06C, symSize: 0x28 }
  - { offsetInCU: 0x15D3C8, offset: 0x15D3C8, size: 0x8, addend: 0x0, symName: __ZNK5Eigen8internal15BlockImpl_denseINS_6MatrixIfLi3ELi3ELi0ELi3ELi3EEELi3ELi1ELb1ELb1EE11outerStrideEv, symObjAddr: 0x7DA8, symBinAddr: 0x10000C094, symSize: 0x28 }
  - { offsetInCU: 0x15D3EE, offset: 0x15D3EE, size: 0x8, addend: 0x0, symName: __ZN5Eigen8internal14evaluator_baseINS_5BlockINS_6MatrixIfLi3ELi3ELi0ELi3ELi3EEELi3ELi1ELb1EEEED2Ev, symObjAddr: 0x7DD0, symBinAddr: 0x10000C0BC, symSize: 0x14 }
  - { offsetInCU: 0x15D418, offset: 0x15D418, size: 0x8, addend: 0x0, symName: __ZNK5Eigen6MatrixIfLi3ELi3ELi0ELi3ELi3EE11innerStrideEv, symObjAddr: 0x7DE4, symBinAddr: 0x10000C0D0, symSize: 0x14 }
  - { offsetInCU: 0x15D43E, offset: 0x15D43E, size: 0x8, addend: 0x0, symName: __ZNK5Eigen8internal13scalar_sum_opIffE6preduxI18__simd64_float32_tEEfRKT_, symObjAddr: 0x7DF8, symBinAddr: 0x10000C0E4, symSize: 0x28 }
  - { offsetInCU: 0x15D47B, offset: 0x15D47B, size: 0x8, addend: 0x0, symName: __ZNK5Eigen8internal13scalar_sum_opIffEclERKfS4_, symObjAddr: 0x7E50, symBinAddr: 0x10000C13C, symSize: 0x2C }
  - { offsetInCU: 0x15D4BD, offset: 0x15D4BD, size: 0x8, addend: 0x0, symName: __ZN5Eigen8internal20redux_novec_unrollerINS0_13scalar_sum_opIffEENS0_15redux_evaluatorINS_12CwiseUnaryOpINS0_14scalar_abs2_opIfEEKNS_5BlockINS_6MatrixIfLi3ELi3ELi0ELi3ELi3EEELi3ELi1ELb1EEEEEEELi2ELi1EE3runERKSE_RKS3_, symObjAddr: 0x7E7C, symBinAddr: 0x10000C168, symSize: 0x30 }
  - { offsetInCU: 0x15D4EB, offset: 0x15D4EB, size: 0x8, addend: 0x0, symName: __ZNK5Eigen8internal15redux_evaluatorINS_12CwiseUnaryOpINS0_14scalar_abs2_opIfEEKNS_5BlockINS_6MatrixIfLi3ELi3ELi0ELi3ELi3EEELi3ELi1ELb1EEEEEE18packetByOuterInnerILi0E18__simd64_float32_tEET0_ll, symObjAddr: 0x7F04, symBinAddr: 0x10000C1F0, symSize: 0x34 }
  - { offsetInCU: 0x15D542, offset: 0x15D542, size: 0x8, addend: 0x0, symName: __ZNK5Eigen8internal15unary_evaluatorINS_12CwiseUnaryOpINS0_14scalar_abs2_opIfEEKNS_5BlockINS_6MatrixIfLi3ELi3ELi0ELi3ELi3EEELi3ELi1ELb1EEEEENS0_10IndexBasedEfE6packetILi0E18__simd64_float32_tEET0_ll, symObjAddr: 0x7F38, symBinAddr: 0x10000C224, symSize: 0x58 }
  - { offsetInCU: 0x15D599, offset: 0x15D599, size: 0x8, addend: 0x0, symName: __ZNK5Eigen8internal15unary_evaluatorINS_12CwiseUnaryOpINS0_14scalar_abs2_opIfEEKNS_5BlockINS_6MatrixIfLi3ELi3ELi0ELi3ELi3EEELi3ELi1ELb1EEEEENS0_10IndexBasedEfE4Data4funcEv, symObjAddr: 0x7F90, symBinAddr: 0x10000C27C, symSize: 0x14 }
  - { offsetInCU: 0x15D5BF, offset: 0x15D5BF, size: 0x8, addend: 0x0, symName: __ZNK5Eigen8internal14scalar_abs2_opIfE8packetOpI18__simd64_float32_tEEKT_RS6_, symObjAddr: 0x7FA4, symBinAddr: 0x10000C290, symSize: 0x2C }
  - { offsetInCU: 0x15D5FC, offset: 0x15D5FC, size: 0x8, addend: 0x0, symName: __ZNK5Eigen8internal17mapbase_evaluatorINS_5BlockINS_6MatrixIfLi3ELi3ELi0ELi3ELi3EEELi3ELi1ELb1EEENS3_IfLi3ELi1ELi0ELi3ELi1EEEE6packetILi0E18__simd64_float32_tEET0_ll, symObjAddr: 0x7FD0, symBinAddr: 0x10000C2BC, symSize: 0x8C }
  - { offsetInCU: 0x15D680, offset: 0x15D680, size: 0x8, addend: 0x0, symName: __ZNK5Eigen8internal17mapbase_evaluatorINS_5BlockINS_6MatrixIfLi3ELi3ELi0ELi3ELi3EEELi3ELi1ELb1EEENS3_IfLi3ELi1ELi0ELi3ELi1EEEE9rowStrideEv, symObjAddr: 0x809C, symBinAddr: 0x10000C388, symSize: 0x20 }
  - { offsetInCU: 0x15D6A6, offset: 0x15D6A6, size: 0x8, addend: 0x0, symName: __ZNK5Eigen8internal17mapbase_evaluatorINS_5BlockINS_6MatrixIfLi3ELi3ELi0ELi3ELi3EEELi3ELi1ELb1EEENS3_IfLi3ELi1ELi0ELi3ELi1EEEE9colStrideEv, symObjAddr: 0x80BC, symBinAddr: 0x10000C3A8, symSize: 0x20 }
  - { offsetInCU: 0x15D6CC, offset: 0x15D6CC, size: 0x8, addend: 0x0, symName: __ZNK5Eigen8internal15redux_evaluatorINS_12CwiseUnaryOpINS0_14scalar_abs2_opIfEEKNS_5BlockINS_6MatrixIfLi3ELi3ELi0ELi3ELi3EEELi3ELi1ELb1EEEEEE17coeffByOuterInnerEll, symObjAddr: 0x80DC, symBinAddr: 0x10000C3C8, symSize: 0x34 }
  - { offsetInCU: 0x15D710, offset: 0x15D710, size: 0x8, addend: 0x0, symName: __ZNK5Eigen8internal15unary_evaluatorINS_12CwiseUnaryOpINS0_14scalar_abs2_opIfEEKNS_5BlockINS_6MatrixIfLi3ELi3ELi0ELi3ELi3EEELi3ELi1ELb1EEEEENS0_10IndexBasedEfE5coeffEll, symObjAddr: 0x8110, symBinAddr: 0x10000C3FC, symSize: 0x54 }
  - { offsetInCU: 0x15D754, offset: 0x15D754, size: 0x8, addend: 0x0, symName: __ZNK5Eigen8internal14scalar_abs2_opIfEclERKf, symObjAddr: 0x8164, symBinAddr: 0x10000C450, symSize: 0x28 }
  - { offsetInCU: 0x15D788, offset: 0x15D788, size: 0x8, addend: 0x0, symName: __ZNK5Eigen8internal17mapbase_evaluatorINS_5BlockINS_6MatrixIfLi3ELi3ELi0ELi3ELi3EEELi3ELi1ELb1EEENS3_IfLi3ELi1ELi0ELi3ELi1EEEE5coeffEll, symObjAddr: 0x818C, symBinAddr: 0x10000C478, symSize: 0x78 }
  - { offsetInCU: 0x15D7CC, offset: 0x15D7CC, size: 0x8, addend: 0x0, symName: __ZN5Eigen8internal15redux_evaluatorINS_12CwiseUnaryOpINS0_14scalar_abs2_opIfEEKNS_5BlockINS_6MatrixIfLi3ELi3ELi0ELi3ELi3EEELi3ELi1ELb1EEEEEED2Ev, symObjAddr: 0x8204, symBinAddr: 0x10000C4F0, symSize: 0x2C }
  - { offsetInCU: 0x15D7F9, offset: 0x15D7F9, size: 0x8, addend: 0x0, symName: __ZN5Eigen8internal9evaluatorINS_12CwiseUnaryOpINS0_14scalar_abs2_opIfEEKNS_5BlockINS_6MatrixIfLi3ELi3ELi0ELi3ELi3EEELi3ELi1ELb1EEEEEED2Ev, symObjAddr: 0x8230, symBinAddr: 0x10000C51C, symSize: 0x2C }
  - { offsetInCU: 0x15D825, offset: 0x15D825, size: 0x8, addend: 0x0, symName: __ZN5Eigen8internal15unary_evaluatorINS_12CwiseUnaryOpINS0_14scalar_abs2_opIfEEKNS_5BlockINS_6MatrixIfLi3ELi3ELi0ELi3ELi3EEELi3ELi1ELb1EEEEENS0_10IndexBasedEfED2Ev, symObjAddr: 0x825C, symBinAddr: 0x10000C548, symSize: 0x34 }
  - { offsetInCU: 0x15D851, offset: 0x15D851, size: 0x8, addend: 0x0, symName: __ZN5Eigen8internal15unary_evaluatorINS_12CwiseUnaryOpINS0_14scalar_abs2_opIfEEKNS_5BlockINS_6MatrixIfLi3ELi3ELi0ELi3ELi3EEELi3ELi1ELb1EEEEENS0_10IndexBasedEfE4DataD1Ev, symObjAddr: 0x8290, symBinAddr: 0x10000C57C, symSize: 0x2C }
  - { offsetInCU: 0x15D87E, offset: 0x15D87E, size: 0x8, addend: 0x0, symName: __ZN5Eigen8internal15unary_evaluatorINS_12CwiseUnaryOpINS0_14scalar_abs2_opIfEEKNS_5BlockINS_6MatrixIfLi3ELi3ELi0ELi3ELi3EEELi3ELi1ELb1EEEEENS0_10IndexBasedEfE4DataD2Ev, symObjAddr: 0x82BC, symBinAddr: 0x10000C5A8, symSize: 0x30 }
  - { offsetInCU: 0x15D8AB, offset: 0x15D8AB, size: 0x8, addend: 0x0, symName: __ZN5Eigen8internal9evaluatorIKNS_5BlockINS_6MatrixIfLi3ELi3ELi0ELi3ELi3EEELi3ELi1ELb1EEEED1Ev, symObjAddr: 0x82EC, symBinAddr: 0x10000C5D8, symSize: 0x2C }
  - { offsetInCU: 0x15D8D7, offset: 0x15D8D7, size: 0x8, addend: 0x0, symName: __ZN5Eigen8internal9evaluatorIKNS_5BlockINS_6MatrixIfLi3ELi3ELi0ELi3ELi3EEELi3ELi1ELb1EEEED2Ev, symObjAddr: 0x8318, symBinAddr: 0x10000C604, symSize: 0x2C }
  - { offsetInCU: 0x15D903, offset: 0x15D903, size: 0x8, addend: 0x0, symName: __ZN5Eigen8internal9evaluatorINS_5BlockINS_6MatrixIfLi3ELi3ELi0ELi3ELi3EEELi3ELi1ELb1EEEED2Ev, symObjAddr: 0x8344, symBinAddr: 0x10000C630, symSize: 0x2C }
  - { offsetInCU: 0x15D930, offset: 0x15D930, size: 0x8, addend: 0x0, symName: __ZN5Eigen8internal15block_evaluatorINS_6MatrixIfLi3ELi3ELi0ELi3ELi3EEELi3ELi1ELb1ELb1EED2Ev, symObjAddr: 0x8370, symBinAddr: 0x10000C65C, symSize: 0x2C }
  - { offsetInCU: 0x15D95D, offset: 0x15D95D, size: 0x8, addend: 0x0, symName: __ZN5Eigen8internal13scalar_sum_opIffEC2Ev, symObjAddr: 0x839C, symBinAddr: 0x10000C688, symSize: 0x14 }
  - { offsetInCU: 0x15D987, offset: 0x15D987, size: 0x8, addend: 0x0, symName: __ZN5Eigen12DenseStorageIfLi3ELi1ELi3ELi1EE4dataEv, symObjAddr: 0x83B0, symBinAddr: 0x10000C69C, symSize: 0x14 }
  - { offsetInCU: 0x15D9AD, offset: 0x15D9AD, size: 0x8, addend: 0x0, symName: __ZN5Eigen8internal9abs2_implIfE3runERKf, symObjAddr: 0x83C4, symBinAddr: 0x10000C6B0, symSize: 0x24 }
  - { offsetInCU: 0x15D9D1, offset: 0x15D9D1, size: 0x8, addend: 0x0, symName: __ZN5Eigen8internal17abs2_impl_defaultIfLb0EE3runERKf, symObjAddr: 0x83E8, symBinAddr: 0x10000C6D4, symSize: 0x24 }
  - { offsetInCU: 0x15D9F5, offset: 0x15D9F5, size: 0x8, addend: 0x0, symName: __ZNK5Eigen9DenseBaseINS_6MatrixIfLi1ELi3ELi1ELi1ELi3EEEE8maxCoeffILi0EEEfv, symObjAddr: 0x840C, symBinAddr: 0x10000C6F8, symSize: 0x40 }
  - { offsetInCU: 0x15DA28, offset: 0x15DA28, size: 0x8, addend: 0x0, symName: __ZNK5Eigen9EigenBaseINS_6MatrixIfLi1ELi3ELi1ELi1ELi3EEEE7derivedEv, symObjAddr: 0x844C, symBinAddr: 0x10000C738, symSize: 0x14 }
  - { offsetInCU: 0x15DA4E, offset: 0x15DA4E, size: 0x8, addend: 0x0, symName: __ZNK5Eigen9DenseBaseINS_6MatrixIfLi1ELi3ELi1ELi1ELi3EEEE5reduxINS_8internal13scalar_max_opIffLi0EEEEEfRKT_, symObjAddr: 0x8460, symBinAddr: 0x10000C74C, symSize: 0x10C }
  - { offsetInCU: 0x15DAAA, offset: 0x15DAAA, size: 0x8, addend: 0x0, symName: __ZN5Eigen8internal13scalar_max_opIffLi0EEC1Ev, symObjAddr: 0x856C, symBinAddr: 0x10000C858, symSize: 0x2C }
  - { offsetInCU: 0x15DAD4, offset: 0x15DAD4, size: 0x8, addend: 0x0, symName: __ZNK5Eigen9EigenBaseINS_6MatrixIfLi1ELi3ELi1ELi1ELi3EEEE4rowsEv, symObjAddr: 0x8598, symBinAddr: 0x10000C884, symSize: 0x28 }
  - { offsetInCU: 0x15DAFA, offset: 0x15DAFA, size: 0x8, addend: 0x0, symName: __ZNK5Eigen9EigenBaseINS_6MatrixIfLi1ELi3ELi1ELi1ELi3EEEE4colsEv, symObjAddr: 0x85C0, symBinAddr: 0x10000C8AC, symSize: 0x28 }
  - { offsetInCU: 0x15DB20, offset: 0x15DB20, size: 0x8, addend: 0x0, symName: __ZN5Eigen8internal15redux_evaluatorINS_6MatrixIfLi1ELi3ELi1ELi1ELi3EEEEC1ERKS3_, symObjAddr: 0x85E8, symBinAddr: 0x10000C8D4, symSize: 0x34 }
  - { offsetInCU: 0x15DB59, offset: 0x15DB59, size: 0x8, addend: 0x0, symName: __ZN5Eigen8internal10redux_implINS0_13scalar_max_opIffLi0EEENS0_15redux_evaluatorINS_6MatrixIfLi1ELi3ELi1ELi1ELi3EEEEELi3ELi2EE3runIS6_EEfRKS7_RKS3_RKT_, symObjAddr: 0x861C, symBinAddr: 0x10000C908, symSize: 0x100 }
  - { offsetInCU: 0x15DBC1, offset: 0x15DBC1, size: 0x8, addend: 0x0, symName: __ZN5Eigen8internal15redux_evaluatorINS_6MatrixIfLi1ELi3ELi1ELi1ELi3EEEED1Ev, symObjAddr: 0x871C, symBinAddr: 0x10000CA08, symSize: 0x2C }
  - { offsetInCU: 0x15DBEE, offset: 0x15DBEE, size: 0x8, addend: 0x0, symName: __ZNK5Eigen15PlainObjectBaseINS_6MatrixIfLi1ELi3ELi1ELi1ELi3EEEE4rowsEv, symObjAddr: 0x8748, symBinAddr: 0x10000CA34, symSize: 0x20 }
  - { offsetInCU: 0x15DC14, offset: 0x15DC14, size: 0x8, addend: 0x0, symName: __ZN5Eigen12DenseStorageIfLi3ELi1ELi3ELi1EE4rowsEv, symObjAddr: 0x8768, symBinAddr: 0x10000CA54, symSize: 0x8 }
  - { offsetInCU: 0x15DC28, offset: 0x15DC28, size: 0x8, addend: 0x0, symName: __ZNK5Eigen15PlainObjectBaseINS_6MatrixIfLi1ELi3ELi1ELi1ELi3EEEE4colsEv, symObjAddr: 0x8770, symBinAddr: 0x10000CA5C, symSize: 0x20 }
  - { offsetInCU: 0x15DC4E, offset: 0x15DC4E, size: 0x8, addend: 0x0, symName: __ZN5Eigen12DenseStorageIfLi3ELi1ELi3ELi1EE4colsEv, symObjAddr: 0x8790, symBinAddr: 0x10000CA7C, symSize: 0x8 }
  - { offsetInCU: 0x15DC62, offset: 0x15DC62, size: 0x8, addend: 0x0, symName: __ZN5Eigen8internal15redux_evaluatorINS_6MatrixIfLi1ELi3ELi1ELi1ELi3EEEEC2ERKS3_, symObjAddr: 0x8798, symBinAddr: 0x10000CA84, symSize: 0x34 }
  - { offsetInCU: 0x15DC9B, offset: 0x15DC9B, size: 0x8, addend: 0x0, symName: __ZN5Eigen8internal9evaluatorINS_6MatrixIfLi1ELi3ELi1ELi1ELi3EEEEC2ERKS3_, symObjAddr: 0x87CC, symBinAddr: 0x10000CAB8, symSize: 0x34 }
  - { offsetInCU: 0x15DCD4, offset: 0x15DCD4, size: 0x8, addend: 0x0, symName: __ZN5Eigen8internal9evaluatorINS_15PlainObjectBaseINS_6MatrixIfLi1ELi3ELi1ELi1ELi3EEEEEEC2ERKS5_, symObjAddr: 0x8800, symBinAddr: 0x10000CAEC, symSize: 0x78 }
  - { offsetInCU: 0x15DD0C, offset: 0x15DD0C, size: 0x8, addend: 0x0, symName: __ZN5Eigen8internal14evaluator_baseINS_6MatrixIfLi1ELi3ELi1ELi1ELi3EEEEC2Ev, symObjAddr: 0x8878, symBinAddr: 0x10000CB64, symSize: 0x14 }
  - { offsetInCU: 0x15DD36, offset: 0x15DD36, size: 0x8, addend: 0x0, symName: __ZNK5Eigen15PlainObjectBaseINS_6MatrixIfLi1ELi3ELi1ELi1ELi3EEEE4dataEv, symObjAddr: 0x888C, symBinAddr: 0x10000CB78, symSize: 0x24 }
  - { offsetInCU: 0x15DD5C, offset: 0x15DD5C, size: 0x8, addend: 0x0, symName: __ZN5Eigen8internal30plainobjectbase_evaluator_dataIfLi0EEC1EPKfl, symObjAddr: 0x88B0, symBinAddr: 0x10000CB9C, symSize: 0x3C }
  - { offsetInCU: 0x15DDA2, offset: 0x15DDA2, size: 0x8, addend: 0x0, symName: __ZN5Eigen8internal14evaluator_baseINS_6MatrixIfLi1ELi3ELi1ELi1ELi3EEEED2Ev, symObjAddr: 0x88EC, symBinAddr: 0x10000CBD8, symSize: 0x14 }
  - { offsetInCU: 0x15DDCC, offset: 0x15DDCC, size: 0x8, addend: 0x0, symName: __ZNK5Eigen12DenseStorageIfLi3ELi1ELi3ELi1EE4dataEv, symObjAddr: 0x8900, symBinAddr: 0x10000CBEC, symSize: 0x14 }
  - { offsetInCU: 0x15DDF2, offset: 0x15DDF2, size: 0x8, addend: 0x0, symName: __ZN5Eigen8internal30plainobjectbase_evaluator_dataIfLi0EEC2EPKfl, symObjAddr: 0x8914, symBinAddr: 0x10000CC00, symSize: 0x40 }
  - { offsetInCU: 0x15DE38, offset: 0x15DE38, size: 0x8, addend: 0x0, symName: __ZNK5Eigen8internal13scalar_max_opIffLi0EE6preduxI18__simd64_float32_tEEfRKT_, symObjAddr: 0x8954, symBinAddr: 0x10000CC40, symSize: 0x28 }
  - { offsetInCU: 0x15DE75, offset: 0x15DE75, size: 0x8, addend: 0x0, symName: __ZNK5Eigen8internal13scalar_max_opIffLi0EEclERKfS4_, symObjAddr: 0x89AC, symBinAddr: 0x10000CC98, symSize: 0x30 }
  - { offsetInCU: 0x15DEB7, offset: 0x15DEB7, size: 0x8, addend: 0x0, symName: __ZN5Eigen8internal20redux_novec_unrollerINS0_13scalar_max_opIffLi0EEENS0_15redux_evaluatorINS_6MatrixIfLi1ELi3ELi1ELi1ELi3EEEEELi2ELi1EE3runERKS7_RKS3_, symObjAddr: 0x89DC, symBinAddr: 0x10000CCC8, symSize: 0x34 }
  - { offsetInCU: 0x15DEFB, offset: 0x15DEFB, size: 0x8, addend: 0x0, symName: __ZN5Eigen8internal12pminmax_implILi0EE3runIfPFfRKfS5_EEET_RKS8_SA_T0_, symObjAddr: 0x8B88, symBinAddr: 0x10000CE74, symSize: 0x34 }
  - { offsetInCU: 0x15DF4F, offset: 0x15DF4F, size: 0x8, addend: 0x0, symName: __ZNKSt3__16__lessIvvEclB8ue170006IffEEbRKT_RKT0_, symObjAddr: 0x8C7C, symBinAddr: 0x10000CF68, symSize: 0x34 }
  - { offsetInCU: 0x15DFA3, offset: 0x15DFA3, size: 0x8, addend: 0x0, symName: __ZNK5Eigen8internal15redux_evaluatorINS_6MatrixIfLi1ELi3ELi1ELi1ELi3EEEE18packetByOuterInnerILi0E18__simd64_float32_tEET0_ll, symObjAddr: 0x8CB0, symBinAddr: 0x10000CF9C, symSize: 0x34 }
  - { offsetInCU: 0x15DFFA, offset: 0x15DFFA, size: 0x8, addend: 0x0, symName: __ZNK5Eigen8internal9evaluatorINS_15PlainObjectBaseINS_6MatrixIfLi1ELi3ELi1ELi1ELi3EEEEEE6packetILi0E18__simd64_float32_tEET0_ll, symObjAddr: 0x8CE4, symBinAddr: 0x10000CFD0, symSize: 0x60 }
  - { offsetInCU: 0x15E06C, offset: 0x15E06C, size: 0x8, addend: 0x0, symName: __ZNK5Eigen8internal30plainobjectbase_evaluator_dataIfLi0EE11outerStrideEv, symObjAddr: 0x8D44, symBinAddr: 0x10000D030, symSize: 0x14 }
  - { offsetInCU: 0x15E092, offset: 0x15E092, size: 0x8, addend: 0x0, symName: __ZNK5Eigen8internal15redux_evaluatorINS_6MatrixIfLi1ELi3ELi1ELi1ELi3EEEE17coeffByOuterInnerEll, symObjAddr: 0x8D58, symBinAddr: 0x10000D044, symSize: 0x34 }
  - { offsetInCU: 0x15E0D6, offset: 0x15E0D6, size: 0x8, addend: 0x0, symName: __ZNK5Eigen8internal9evaluatorINS_15PlainObjectBaseINS_6MatrixIfLi1ELi3ELi1ELi1ELi3EEEEEE5coeffEll, symObjAddr: 0x8D8C, symBinAddr: 0x10000D078, symSize: 0x54 }
  - { offsetInCU: 0x15E118, offset: 0x15E118, size: 0x8, addend: 0x0, symName: __ZN5Eigen8internal15redux_evaluatorINS_6MatrixIfLi1ELi3ELi1ELi1ELi3EEEED2Ev, symObjAddr: 0x8DE0, symBinAddr: 0x10000D0CC, symSize: 0x2C }
  - { offsetInCU: 0x15E145, offset: 0x15E145, size: 0x8, addend: 0x0, symName: __ZN5Eigen8internal9evaluatorINS_6MatrixIfLi1ELi3ELi1ELi1ELi3EEEED2Ev, symObjAddr: 0x8E0C, symBinAddr: 0x10000D0F8, symSize: 0x2C }
  - { offsetInCU: 0x15E172, offset: 0x15E172, size: 0x8, addend: 0x0, symName: __ZN5Eigen8internal9evaluatorINS_15PlainObjectBaseINS_6MatrixIfLi1ELi3ELi1ELi1ELi3EEEEEED2Ev, symObjAddr: 0x8E38, symBinAddr: 0x10000D124, symSize: 0x2C }
  - { offsetInCU: 0x15E19E, offset: 0x15E19E, size: 0x8, addend: 0x0, symName: __ZN5Eigen8internal13scalar_max_opIffLi0EEC2Ev, symObjAddr: 0x8E64, symBinAddr: 0x10000D150, symSize: 0x14 }
  - { offsetInCU: 0x15E1C8, offset: 0x15E1C8, size: 0x8, addend: 0x0, symName: __ZNSt3__114numeric_limitsIfE7epsilonB8ue170006Ev, symObjAddr: 0x8E78, symBinAddr: 0x10000D164, symSize: 0x14 }
  - { offsetInCU: 0x15E1DC, offset: 0x15E1DC, size: 0x8, addend: 0x0, symName: __ZNSt3__123__libcpp_numeric_limitsIfLb1EE7epsilonB8ue170006Ev, symObjAddr: 0x8E8C, symBinAddr: 0x10000D178, symSize: 0x8 }
  - { offsetInCU: 0x15E1EF, offset: 0x15E1EF, size: 0x8, addend: 0x0, symName: __Z4sqrtB8ue170006f, symObjAddr: 0x8E94, symBinAddr: 0x10000D180, symSize: 0x18 }
  - { offsetInCU: 0x15E21E, offset: 0x15E21E, size: 0x8, addend: 0x0, symName: __ZN5Eigen9EigenBaseINS_6MatrixIfLi1ELi3ELi1ELi1ELi3EEEE7derivedEv, symObjAddr: 0x8EAC, symBinAddr: 0x10000D198, symSize: 0x14 }
  - { offsetInCU: 0x15E244, offset: 0x15E244, size: 0x8, addend: 0x0, symName: __ZNK5Eigen9EigenBaseINS_6MatrixIfLi1ELi3ELi1ELi1ELi3EEEE4sizeEv, symObjAddr: 0x8EC0, symBinAddr: 0x10000D1AC, symSize: 0x44 }
  - { offsetInCU: 0x15E26A, offset: 0x15E26A, size: 0x8, addend: 0x0, symName: __ZN5Eigen11VectorBlockINS_6MatrixIfLi1ELi3ELi1ELi1ELi3EEELin1EEC1ERS2_ll, symObjAddr: 0x8F1C, symBinAddr: 0x10000D208, symSize: 0x44 }
  - { offsetInCU: 0x15E2BE, offset: 0x15E2BE, size: 0x8, addend: 0x0, symName: __ZN5Eigen11VectorBlockINS_6MatrixIfLi1ELi3ELi1ELi1ELi3EEELin1EEC2ERS2_ll, symObjAddr: 0x8F60, symBinAddr: 0x10000D24C, symSize: 0x4C }
  - { offsetInCU: 0x15E312, offset: 0x15E312, size: 0x8, addend: 0x0, symName: __ZN5Eigen5BlockINS_6MatrixIfLi1ELi3ELi1ELi1ELi3EEELi1ELin1ELb0EEC2ERS2_llll, symObjAddr: 0x8FAC, symBinAddr: 0x10000D298, symSize: 0x1B0 }
  - { offsetInCU: 0x15E382, offset: 0x15E382, size: 0x8, addend: 0x0, symName: __ZN5Eigen9BlockImplINS_6MatrixIfLi1ELi3ELi1ELi1ELi3EEELi1ELin1ELb0ENS_5DenseEEC2ERS2_llll, symObjAddr: 0x915C, symBinAddr: 0x10000D448, symSize: 0x54 }
  - { offsetInCU: 0x15E3F2, offset: 0x15E3F2, size: 0x8, addend: 0x0, symName: __ZN5Eigen8internal15BlockImpl_denseINS_6MatrixIfLi1ELi3ELi1ELi1ELi3EEELi1ELin1ELb0ELb1EEC2ERS3_llll, symObjAddr: 0x91B0, symBinAddr: 0x10000D49C, symSize: 0xC4 }
  - { offsetInCU: 0x15E467, offset: 0x15E467, size: 0x8, addend: 0x0, symName: __ZN5Eigen15PlainObjectBaseINS_6MatrixIfLi1ELi3ELi1ELi1ELi3EEEE4dataEv, symObjAddr: 0x9274, symBinAddr: 0x10000D560, symSize: 0x24 }
  - { offsetInCU: 0x15E48D, offset: 0x15E48D, size: 0x8, addend: 0x0, symName: __ZNK5Eigen6MatrixIfLi1ELi3ELi1ELi1ELi3EE11innerStrideEv, symObjAddr: 0x9298, symBinAddr: 0x10000D584, symSize: 0x14 }
  - { offsetInCU: 0x15E4B3, offset: 0x15E4B3, size: 0x8, addend: 0x0, symName: __ZNK5Eigen6MatrixIfLi1ELi3ELi1ELi1ELi3EE11outerStrideEv, symObjAddr: 0x92AC, symBinAddr: 0x10000D598, symSize: 0x34 }
  - { offsetInCU: 0x15E4D9, offset: 0x15E4D9, size: 0x8, addend: 0x0, symName: __ZN5Eigen7MapBaseINS_5BlockINS_6MatrixIfLi1ELi3ELi1ELi1ELi3EEELi1ELin1ELb0EEELi1EEC2EPfll, symObjAddr: 0x92E0, symBinAddr: 0x10000D5CC, symSize: 0x44 }
  - { offsetInCU: 0x15E530, offset: 0x15E530, size: 0x8, addend: 0x0, symName: __ZN5Eigen8internal19variable_if_dynamicIlLi0EEC1El, symObjAddr: 0x9324, symBinAddr: 0x10000D610, symSize: 0x34 }
  - { offsetInCU: 0x15E568, offset: 0x15E568, size: 0x8, addend: 0x0, symName: __ZN5Eigen8internal15BlockImpl_denseINS_6MatrixIfLi1ELi3ELi1ELi1ELi3EEELi1ELin1ELb0ELb1EE4initEv, symObjAddr: 0x9358, symBinAddr: 0x10000D644, symSize: 0x34 }
  - { offsetInCU: 0x15E58E, offset: 0x15E58E, size: 0x8, addend: 0x0, symName: __ZNK5Eigen9DenseBaseINS_6MatrixIfLi1ELi3ELi1ELi1ELi3EEEE9innerSizeEv, symObjAddr: 0x938C, symBinAddr: 0x10000D678, symSize: 0x24 }
  - { offsetInCU: 0x15E5B4, offset: 0x15E5B4, size: 0x8, addend: 0x0, symName: __ZN5Eigen7MapBaseINS_5BlockINS_6MatrixIfLi1ELi3ELi1ELi1ELi3EEELi1ELin1ELb0EEELi0EEC2EPfll, symObjAddr: 0x93B0, symBinAddr: 0x10000D69C, symSize: 0x130 }
  - { offsetInCU: 0x15E608, offset: 0x15E608, size: 0x8, addend: 0x0, symName: __ZN5Eigen10MatrixBaseINS_5BlockINS_6MatrixIfLi1ELi3ELi1ELi1ELi3EEELi1ELin1ELb0EEEEC2Ev, symObjAddr: 0x94E0, symBinAddr: 0x10000D7CC, symSize: 0x2C }
  - { offsetInCU: 0x15E632, offset: 0x15E632, size: 0x8, addend: 0x0, symName: __ZNK5Eigen7MapBaseINS_5BlockINS_6MatrixIfLi1ELi3ELi1ELi1ELi3EEELi1ELin1ELb0EEELi0EE11checkSanityIS4_EEvNS_8internal9enable_ifIXeqsr8internal6traitsIT_EE9AlignmentLi0EEPvE4typeE, symObjAddr: 0x950C, symBinAddr: 0x10000D7F8, symSize: 0x14 }
  - { offsetInCU: 0x15E66C, offset: 0x15E66C, size: 0x8, addend: 0x0, symName: __ZN5Eigen9DenseBaseINS_5BlockINS_6MatrixIfLi1ELi3ELi1ELi1ELi3EEELi1ELin1ELb0EEEEC2Ev, symObjAddr: 0x9520, symBinAddr: 0x10000D80C, symSize: 0x14 }
  - { offsetInCU: 0x15E696, offset: 0x15E696, size: 0x8, addend: 0x0, symName: __ZN5Eigen8internal19variable_if_dynamicIlLi0EEC2El, symObjAddr: 0x9534, symBinAddr: 0x10000D820, symSize: 0x64 }
  - { offsetInCU: 0x15E6CE, offset: 0x15E6CE, size: 0x8, addend: 0x0, symName: __ZNK5Eigen9DenseBaseINS_5BlockINS_6MatrixIfLi1ELi3ELi1ELi1ELi3EEELi1ELin1ELb0EEEE8maxCoeffILi0ElEEfPT0_, symObjAddr: 0x9598, symBinAddr: 0x10000D884, symSize: 0xC8 }
  - { offsetInCU: 0x15E728, offset: 0x15E728, size: 0x8, addend: 0x0, symName: __ZNK5Eigen9EigenBaseINS_5BlockINS_6MatrixIfLi1ELi3ELi1ELi1ELi3EEELi1ELin1ELb0EEEE4rowsEv, symObjAddr: 0x9660, symBinAddr: 0x10000D94C, symSize: 0x38 }
  - { offsetInCU: 0x15E74E, offset: 0x15E74E, size: 0x8, addend: 0x0, symName: __ZNK5Eigen9EigenBaseINS_5BlockINS_6MatrixIfLi1ELi3ELi1ELi1ELi3EEELi1ELin1ELb0EEEE4colsEv, symObjAddr: 0x9698, symBinAddr: 0x10000D984, symSize: 0x28 }
  - { offsetInCU: 0x15E792, offset: 0x15E792, size: 0x8, addend: 0x0, symName: __ZN5Eigen8internal17max_coeff_visitorINS_5BlockINS_6MatrixIfLi1ELi3ELi1ELi1ELi3EEELi1ELin1ELb0EEELi0EEC1Ev, symObjAddr: 0x96C0, symBinAddr: 0x10000D9AC, symSize: 0x2C }
  - { offsetInCU: 0x15E7C3, offset: 0x15E7C3, size: 0x8, addend: 0x0, symName: __ZNK5Eigen9DenseBaseINS_5BlockINS_6MatrixIfLi1ELi3ELi1ELi1ELi3EEELi1ELin1ELb0EEEE5visitINS_8internal17max_coeff_visitorIS4_Li0EEEEEvRT_, symObjAddr: 0x96EC, symBinAddr: 0x10000D9D8, symSize: 0x94 }
  - { offsetInCU: 0x15E81C, offset: 0x15E81C, size: 0x8, addend: 0x0, symName: __ZNK5Eigen9EigenBaseINS_5BlockINS_6MatrixIfLi1ELi3ELi1ELi1ELi3EEELi1ELin1ELb0EEEE7derivedEv, symObjAddr: 0x9780, symBinAddr: 0x10000DA6C, symSize: 0x14 }
  - { offsetInCU: 0x15E842, offset: 0x15E842, size: 0x8, addend: 0x0, symName: __ZNK5Eigen7MapBaseINS_5BlockINS_6MatrixIfLi1ELi3ELi1ELi1ELi3EEELi1ELin1ELb0EEELi0EE4rowsEv, symObjAddr: 0x9794, symBinAddr: 0x10000DA80, symSize: 0x20 }
  - { offsetInCU: 0x15E868, offset: 0x15E868, size: 0x8, addend: 0x0, symName: __ZNK5Eigen7MapBaseINS_5BlockINS_6MatrixIfLi1ELi3ELi1ELi1ELi3EEELi1ELin1ELb0EEELi0EE4colsEv, symObjAddr: 0x97B4, symBinAddr: 0x10000DAA0, symSize: 0x38 }
  - { offsetInCU: 0x15E88E, offset: 0x15E88E, size: 0x8, addend: 0x0, symName: __ZNK5Eigen8internal19variable_if_dynamicIlLin1EE5valueEv, symObjAddr: 0x97EC, symBinAddr: 0x10000DAD8, symSize: 0x18 }
  - { offsetInCU: 0x15E8B4, offset: 0x15E8B4, size: 0x8, addend: 0x0, symName: __ZN5Eigen8internal17max_coeff_visitorINS_5BlockINS_6MatrixIfLi1ELi3ELi1ELi1ELi3EEELi1ELin1ELb0EEELi0EEC2Ev, symObjAddr: 0x9804, symBinAddr: 0x10000DAF0, symSize: 0x2C }
  - { offsetInCU: 0x15E8E0, offset: 0x15E8E0, size: 0x8, addend: 0x0, symName: __ZN5Eigen8internal13coeff_visitorINS_5BlockINS_6MatrixIfLi1ELi3ELi1ELi1ELi3EEELi1ELin1ELb0EEEEC2Ev, symObjAddr: 0x9830, symBinAddr: 0x10000DB1C, symSize: 0x28 }
  - { offsetInCU: 0x15E90A, offset: 0x15E90A, size: 0x8, addend: 0x0, symName: __ZNK5Eigen9EigenBaseINS_5BlockINS_6MatrixIfLi1ELi3ELi1ELi1ELi3EEELi1ELin1ELb0EEEE4sizeEv, symObjAddr: 0x9858, symBinAddr: 0x10000DB44, symSize: 0x44 }
  - { offsetInCU: 0x15E95D, offset: 0x15E95D, size: 0x8, addend: 0x0, symName: __ZN5Eigen8internal17visitor_evaluatorINS_5BlockINS_6MatrixIfLi1ELi3ELi1ELi1ELi3EEELi1ELin1ELb0EEEEC1ERKS5_, symObjAddr: 0x989C, symBinAddr: 0x10000DB88, symSize: 0x34 }
  - { offsetInCU: 0x15E99A, offset: 0x15E99A, size: 0x8, addend: 0x0, symName: __ZN5Eigen8internal12visitor_implINS0_17max_coeff_visitorINS_5BlockINS_6MatrixIfLi1ELi3ELi1ELi1ELi3EEELi1ELin1ELb0EEELi0EEENS0_17visitor_evaluatorIS6_EELin1EE3runERKS9_RS7_, symObjAddr: 0x98D0, symBinAddr: 0x10000DBBC, symSize: 0x174 }
  - { offsetInCU: 0x15EA1F, offset: 0x15EA1F, size: 0x8, addend: 0x0, symName: __ZN5Eigen8internal17visitor_evaluatorINS_5BlockINS_6MatrixIfLi1ELi3ELi1ELi1ELi3EEELi1ELin1ELb0EEEED1Ev, symObjAddr: 0x9A44, symBinAddr: 0x10000DD30, symSize: 0x2C }
  - { offsetInCU: 0x15EA4B, offset: 0x15EA4B, size: 0x8, addend: 0x0, symName: __ZN5Eigen8internal17visitor_evaluatorINS_5BlockINS_6MatrixIfLi1ELi3ELi1ELi1ELi3EEELi1ELin1ELb0EEEEC2ERKS5_, symObjAddr: 0x9A70, symBinAddr: 0x10000DD5C, symSize: 0x3C }
  - { offsetInCU: 0x15EA83, offset: 0x15EA83, size: 0x8, addend: 0x0, symName: __ZN5Eigen8internal9evaluatorINS_5BlockINS_6MatrixIfLi1ELi3ELi1ELi1ELi3EEELi1ELin1ELb0EEEEC1ERKS5_, symObjAddr: 0x9AAC, symBinAddr: 0x10000DD98, symSize: 0x34 }
  - { offsetInCU: 0x15EABC, offset: 0x15EABC, size: 0x8, addend: 0x0, symName: __ZN5Eigen8internal9evaluatorINS_5BlockINS_6MatrixIfLi1ELi3ELi1ELi1ELi3EEELi1ELin1ELb0EEEEC2ERKS5_, symObjAddr: 0x9AE0, symBinAddr: 0x10000DDCC, symSize: 0x34 }
  - { offsetInCU: 0x15EAF5, offset: 0x15EAF5, size: 0x8, addend: 0x0, symName: __ZN5Eigen8internal15block_evaluatorINS_6MatrixIfLi1ELi3ELi1ELi1ELi3EEELi1ELin1ELb0ELb1EEC2ERKNS_5BlockIS3_Li1ELin1ELb0EEE, symObjAddr: 0x9B14, symBinAddr: 0x10000DE00, symSize: 0xDC }
  - { offsetInCU: 0x15EB2E, offset: 0x15EB2E, size: 0x8, addend: 0x0, symName: __ZN5Eigen8internal17mapbase_evaluatorINS_5BlockINS_6MatrixIfLi1ELi3ELi1ELi1ELi3EEELi1ELin1ELb0EEENS3_IfLi1ELin1ELi1ELi1ELi3EEEEC2ERKS5_, symObjAddr: 0x9BF0, symBinAddr: 0x10000DEDC, symSize: 0xB4 }
  - { offsetInCU: 0x15EB67, offset: 0x15EB67, size: 0x8, addend: 0x0, symName: __ZNK5Eigen7MapBaseINS_5BlockINS_6MatrixIfLi1ELi3ELi1ELi1ELi3EEELi1ELin1ELb0EEELi1EE4dataEv, symObjAddr: 0x9CA4, symBinAddr: 0x10000DF90, symSize: 0x18 }
  - { offsetInCU: 0x15EB8D, offset: 0x15EB8D, size: 0x8, addend: 0x0, symName: __ZN5Eigen8internal17mapbase_evaluatorINS_5BlockINS_6MatrixIfLi1ELi3ELi1ELi1ELi3EEELi1ELin1ELb0EEENS3_IfLi1ELin1ELi1ELi1ELi3EEEED2Ev, symObjAddr: 0x9CBC, symBinAddr: 0x10000DFA8, symSize: 0x2C }
  - { offsetInCU: 0x15EBBA, offset: 0x15EBBA, size: 0x8, addend: 0x0, symName: __ZN5Eigen8internal14evaluator_baseINS_5BlockINS_6MatrixIfLi1ELi3ELi1ELi1ELi3EEELi1ELin1ELb0EEEEC2Ev, symObjAddr: 0x9CE8, symBinAddr: 0x10000DFD4, symSize: 0x14 }
  - { offsetInCU: 0x15EBE4, offset: 0x15EBE4, size: 0x8, addend: 0x0, symName: __ZNK5Eigen8internal15BlockImpl_denseINS_6MatrixIfLi1ELi3ELi1ELi1ELi3EEELi1ELin1ELb0ELb1EE11innerStrideEv, symObjAddr: 0x9CFC, symBinAddr: 0x10000DFE8, symSize: 0x28 }
  - { offsetInCU: 0x15EC0A, offset: 0x15EC0A, size: 0x8, addend: 0x0, symName: __ZNK5Eigen8internal15BlockImpl_denseINS_6MatrixIfLi1ELi3ELi1ELi1ELi3EEELi1ELin1ELb0ELb1EE11outerStrideEv, symObjAddr: 0x9D24, symBinAddr: 0x10000E010, symSize: 0x28 }
  - { offsetInCU: 0x15EC30, offset: 0x15EC30, size: 0x8, addend: 0x0, symName: __ZN5Eigen8internal14evaluator_baseINS_5BlockINS_6MatrixIfLi1ELi3ELi1ELi1ELi3EEELi1ELin1ELb0EEEED2Ev, symObjAddr: 0x9D4C, symBinAddr: 0x10000E038, symSize: 0x14 }
  - { offsetInCU: 0x15EC5A, offset: 0x15EC5A, size: 0x8, addend: 0x0, symName: __ZN5Eigen8internal13coeff_visitorINS_5BlockINS_6MatrixIfLi1ELi3ELi1ELi1ELi3EEELi1ELin1ELb0EEEE4initERKfll, symObjAddr: 0x9D60, symBinAddr: 0x10000E04C, symSize: 0x3C }
  - { offsetInCU: 0x15ECAA, offset: 0x15ECAA, size: 0x8, addend: 0x0, symName: __ZNK5Eigen8internal17visitor_evaluatorINS_5BlockINS_6MatrixIfLi1ELi3ELi1ELi1ELi3EEELi1ELin1ELb0EEEE5coeffEll, symObjAddr: 0x9D9C, symBinAddr: 0x10000E088, symSize: 0x34 }
  - { offsetInCU: 0x15ECEC, offset: 0x15ECEC, size: 0x8, addend: 0x0, symName: __ZNK5Eigen8internal17visitor_evaluatorINS_5BlockINS_6MatrixIfLi1ELi3ELi1ELi1ELi3EEELi1ELin1ELb0EEEE4rowsEv, symObjAddr: 0x9DD0, symBinAddr: 0x10000E0BC, symSize: 0x28 }
  - { offsetInCU: 0x15ED12, offset: 0x15ED12, size: 0x8, addend: 0x0, symName: __ZN5Eigen8internal17max_coeff_visitorINS_5BlockINS_6MatrixIfLi1ELi3ELi1ELi1ELi3EEELi1ELin1ELb0EEELi0EEclERKfll, symObjAddr: 0x9DF8, symBinAddr: 0x10000E0E4, symSize: 0x64 }
  - { offsetInCU: 0x15ED62, offset: 0x15ED62, size: 0x8, addend: 0x0, symName: __ZNK5Eigen8internal17visitor_evaluatorINS_5BlockINS_6MatrixIfLi1ELi3ELi1ELi1ELi3EEELi1ELin1ELb0EEEE4colsEv, symObjAddr: 0x9E5C, symBinAddr: 0x10000E148, symSize: 0x28 }
  - { offsetInCU: 0x15ED88, offset: 0x15ED88, size: 0x8, addend: 0x0, symName: __ZNK5Eigen8internal17mapbase_evaluatorINS_5BlockINS_6MatrixIfLi1ELi3ELi1ELi1ELi3EEELi1ELin1ELb0EEENS3_IfLi1ELin1ELi1ELi1ELi3EEEE5coeffEll, symObjAddr: 0x9E84, symBinAddr: 0x10000E170, symSize: 0x78 }
  - { offsetInCU: 0x15EDCC, offset: 0x15EDCC, size: 0x8, addend: 0x0, symName: __ZNK5Eigen8internal17mapbase_evaluatorINS_5BlockINS_6MatrixIfLi1ELi3ELi1ELi1ELi3EEELi1ELin1ELb0EEENS3_IfLi1ELin1ELi1ELi1ELi3EEEE9colStrideEv, symObjAddr: 0x9EFC, symBinAddr: 0x10000E1E8, symSize: 0x20 }
  - { offsetInCU: 0x15EDF2, offset: 0x15EDF2, size: 0x8, addend: 0x0, symName: __ZNK5Eigen8internal17mapbase_evaluatorINS_5BlockINS_6MatrixIfLi1ELi3ELi1ELi1ELi3EEELi1ELin1ELb0EEENS3_IfLi1ELin1ELi1ELi1ELi3EEEE9rowStrideEv, symObjAddr: 0x9F1C, symBinAddr: 0x10000E208, symSize: 0x20 }
  - { offsetInCU: 0x15EE18, offset: 0x15EE18, size: 0x8, addend: 0x0, symName: __ZN5Eigen8internal17visitor_evaluatorINS_5BlockINS_6MatrixIfLi1ELi3ELi1ELi1ELi3EEELi1ELin1ELb0EEEED2Ev, symObjAddr: 0x9F3C, symBinAddr: 0x10000E228, symSize: 0x2C }
  - { offsetInCU: 0x15EE44, offset: 0x15EE44, size: 0x8, addend: 0x0, symName: __ZN5Eigen8internal9evaluatorINS_5BlockINS_6MatrixIfLi1ELi3ELi1ELi1ELi3EEELi1ELin1ELb0EEEED1Ev, symObjAddr: 0x9F68, symBinAddr: 0x10000E254, symSize: 0x2C }
  - { offsetInCU: 0x15EE71, offset: 0x15EE71, size: 0x8, addend: 0x0, symName: __ZN5Eigen8internal9evaluatorINS_5BlockINS_6MatrixIfLi1ELi3ELi1ELi1ELi3EEELi1ELin1ELb0EEEED2Ev, symObjAddr: 0x9F94, symBinAddr: 0x10000E280, symSize: 0x2C }
  - { offsetInCU: 0x15EE9E, offset: 0x15EE9E, size: 0x8, addend: 0x0, symName: __ZN5Eigen8internal15block_evaluatorINS_6MatrixIfLi1ELi3ELi1ELi1ELi3EEELi1ELin1ELb0ELb1EED2Ev, symObjAddr: 0x9FC0, symBinAddr: 0x10000E2AC, symSize: 0x2C }
  - { offsetInCU: 0x15EECB, offset: 0x15EECB, size: 0x8, addend: 0x0, symName: __ZN5Eigen12DenseStorageIlLi3ELi1ELi3ELi1EE4dataEv, symObjAddr: 0x9FEC, symBinAddr: 0x10000E2D8, symSize: 0x14 }
  - { offsetInCU: 0x15EEF1, offset: 0x15EEF1, size: 0x8, addend: 0x0, symName: __ZNK5Eigen9EigenBaseINS_5BlockINS_6MatrixIfLi3ELi3ELi0ELi3ELi3EEELi3ELi1ELb1EEEE4rowsEv, symObjAddr: 0xA000, symBinAddr: 0x10000E2EC, symSize: 0x28 }
  - { offsetInCU: 0x15EF17, offset: 0x15EF17, size: 0x8, addend: 0x0, symName: __ZNK5Eigen9EigenBaseINS_5BlockINS_6MatrixIfLi3ELi3ELi0ELi3ELi3EEELi3ELi1ELb1EEEE4colsEv, symObjAddr: 0xA028, symBinAddr: 0x10000E314, symSize: 0x28 }
  - { offsetInCU: 0x15EF3D, offset: 0x15EF3D, size: 0x8, addend: 0x0, symName: __ZN5Eigen9EigenBaseINS_5BlockINS_6MatrixIfLi3ELi3ELi0ELi3ELi3EEELi3ELi1ELb1EEEE7derivedEv, symObjAddr: 0xA088, symBinAddr: 0x10000E374, symSize: 0x14 }
  - { offsetInCU: 0x15EF63, offset: 0x15EF63, size: 0x8, addend: 0x0, symName: __ZNK5Eigen9EigenBaseINS_5BlockINS_6MatrixIfLi3ELi3ELi0ELi3ELi3EEELi3ELi1ELb1EEEE18const_cast_derivedEv, symObjAddr: 0xA09C, symBinAddr: 0x10000E388, symSize: 0x14 }
  - { offsetInCU: 0x15EF89, offset: 0x15EF89, size: 0x8, addend: 0x0, symName: __ZN5Eigen8internal14swap_assign_opIfEC1Ev, symObjAddr: 0xA0B0, symBinAddr: 0x10000E39C, symSize: 0x2C }
  - { offsetInCU: 0x15EFB3, offset: 0x15EFB3, size: 0x8, addend: 0x0, symName: __ZN5Eigen8internal10AssignmentINS_5BlockINS_6MatrixIfLi3ELi3ELi0ELi3ELi3EEELi3ELi1ELb1EEES5_NS0_14swap_assign_opIfEENS0_11Dense2DenseEvE3runERS5_RKS5_RKS7_, symObjAddr: 0xA118, symBinAddr: 0x10000E404, symSize: 0x40 }
  - { offsetInCU: 0x15EFF5, offset: 0x15EFF5, size: 0x8, addend: 0x0, symName: __ZN5Eigen8internal9evaluatorINS_5BlockINS_6MatrixIfLi3ELi3ELi0ELi3ELi3EEELi3ELi1ELb1EEEEC1ERKS5_, symObjAddr: 0xA24C, symBinAddr: 0x10000E538, symSize: 0x34 }
  - { offsetInCU: 0x15F02E, offset: 0x15F02E, size: 0x8, addend: 0x0, symName: __ZN5Eigen8internal31generic_dense_assignment_kernelINS0_9evaluatorINS_5BlockINS_6MatrixIfLi3ELi3ELi0ELi3ELi3EEELi3ELi1ELb1EEEEES7_NS0_14swap_assign_opIfEELi0EEC1ERS7_RKS7_RKS9_RS6_, symObjAddr: 0xA334, symBinAddr: 0x10000E620, symSize: 0x4C }
  - { offsetInCU: 0x15F090, offset: 0x15F090, size: 0x8, addend: 0x0, symName: __ZN5Eigen8internal21dense_assignment_loopINS0_31generic_dense_assignment_kernelINS0_9evaluatorINS_5BlockINS_6MatrixIfLi3ELi3ELi0ELi3ELi3EEELi3ELi1ELb1EEEEES8_NS0_14swap_assign_opIfEELi0EEELi3ELi2EE3runERSB_, symObjAddr: 0xA380, symBinAddr: 0x10000E66C, symSize: 0x2C }
  - { offsetInCU: 0x15F0B4, offset: 0x15F0B4, size: 0x8, addend: 0x0, symName: __ZN5Eigen8internal9evaluatorINS_5BlockINS_6MatrixIfLi3ELi3ELi0ELi3ELi3EEELi3ELi1ELb1EEEED1Ev, symObjAddr: 0xA3AC, symBinAddr: 0x10000E698, symSize: 0x2C }
  - { offsetInCU: 0x15F0E1, offset: 0x15F0E1, size: 0x8, addend: 0x0, symName: __ZN5Eigen8internal31generic_dense_assignment_kernelINS0_9evaluatorINS_5BlockINS_6MatrixIfLi3ELi3ELi0ELi3ELi3EEELi3ELi1ELb1EEEEES7_NS0_14swap_assign_opIfEELi0EEC2ERS7_RKS7_RKS9_RS6_, symObjAddr: 0xA3D8, symBinAddr: 0x10000E6C4, symSize: 0x4C }
  - { offsetInCU: 0x15F143, offset: 0x15F143, size: 0x8, addend: 0x0, symName: __ZN5Eigen8internal31generic_dense_assignment_kernelINS0_9evaluatorINS_5BlockINS_6MatrixIfLi3ELi3ELi0ELi3ELi3EEELi3ELi1ELb1EEEEES7_NS0_14swap_assign_opIfEELi1EEC2ERS7_RKS7_RKS9_RS6_, symObjAddr: 0xA424, symBinAddr: 0x10000E710, symSize: 0x44 }
  - { offsetInCU: 0x15F1A9, offset: 0x15F1A9, size: 0x8, addend: 0x0, symName: __ZN5Eigen8internal47copy_using_evaluator_innervec_CompleteUnrollingINS0_31generic_dense_assignment_kernelINS0_9evaluatorINS_5BlockINS_6MatrixIfLi3ELi3ELi0ELi3ELi3EEELi3ELi1ELb1EEEEES8_NS0_14swap_assign_opIfEELi0EEELi0ELi2EE3runERSB_, symObjAddr: 0xA468, symBinAddr: 0x10000E754, symSize: 0x34 }
  - { offsetInCU: 0x15F1CD, offset: 0x15F1CD, size: 0x8, addend: 0x0, symName: __ZN5Eigen8internal55copy_using_evaluator_DefaultTraversal_CompleteUnrollingINS0_31generic_dense_assignment_kernelINS0_9evaluatorINS_5BlockINS_6MatrixIfLi3ELi3ELi0ELi3ELi3EEELi3ELi1ELb1EEEEES8_NS0_14swap_assign_opIfEELi0EEELi2ELi3EE3runERSB_, symObjAddr: 0xA49C, symBinAddr: 0x10000E788, symSize: 0x34 }
  - { offsetInCU: 0x15F1F0, offset: 0x15F1F0, size: 0x8, addend: 0x0, symName: __ZN5Eigen8internal31generic_dense_assignment_kernelINS0_9evaluatorINS_5BlockINS_6MatrixIfLi3ELi3ELi0ELi3ELi3EEELi3ELi1ELb1EEEEES7_NS0_14swap_assign_opIfEELi0EE24assignPacketByOuterInnerILi0ELi0E18__simd64_float32_tEEvll, symObjAddr: 0xA4D0, symBinAddr: 0x10000E7BC, symSize: 0x60 }
  - { offsetInCU: 0x15F26B, offset: 0x15F26B, size: 0x8, addend: 0x0, symName: __ZN5Eigen8internal47copy_using_evaluator_innervec_CompleteUnrollingINS0_31generic_dense_assignment_kernelINS0_9evaluatorINS_5BlockINS_6MatrixIfLi3ELi3ELi0ELi3ELi3EEELi3ELi1ELb1EEEEES8_NS0_14swap_assign_opIfEELi0EEELi2ELi2EE3runERSB_, symObjAddr: 0xA530, symBinAddr: 0x10000E81C, symSize: 0x10 }
  - { offsetInCU: 0x15F28B, offset: 0x15F28B, size: 0x8, addend: 0x0, symName: __ZN5Eigen8internal31generic_dense_assignment_kernelINS0_9evaluatorINS_5BlockINS_6MatrixIfLi3ELi3ELi0ELi3ELi3EEELi3ELi1ELb1EEEEES7_NS0_14swap_assign_opIfEELi1EE20rowIndexByOuterInnerEll, symObjAddr: 0xA540, symBinAddr: 0x10000E82C, symSize: 0x18 }
  - { offsetInCU: 0x15F2BE, offset: 0x15F2BE, size: 0x8, addend: 0x0, symName: __ZN5Eigen8internal31generic_dense_assignment_kernelINS0_9evaluatorINS_5BlockINS_6MatrixIfLi3ELi3ELi0ELi3ELi3EEELi3ELi1ELb1EEEEES7_NS0_14swap_assign_opIfEELi1EE20colIndexByOuterInnerEll, symObjAddr: 0xA558, symBinAddr: 0x10000E844, symSize: 0x18 }
  - { offsetInCU: 0x15F2F1, offset: 0x15F2F1, size: 0x8, addend: 0x0, symName: __ZN5Eigen8internal31generic_dense_assignment_kernelINS0_9evaluatorINS_5BlockINS_6MatrixIfLi3ELi3ELi0ELi3ELi3EEELi3ELi1ELb1EEEEES7_NS0_14swap_assign_opIfEELi0EE12assignPacketILi0ELi0E18__simd64_float32_tEEvll, symObjAddr: 0xA570, symBinAddr: 0x10000E85C, symSize: 0xA4 }
  - { offsetInCU: 0x15F35E, offset: 0x15F35E, size: 0x8, addend: 0x0, symName: __ZN5Eigen8internal17mapbase_evaluatorINS_5BlockINS_6MatrixIfLi3ELi3ELi0ELi3ELi3EEELi3ELi1ELb1EEENS3_IfLi3ELi1ELi0ELi3ELi1EEEE11writePacketILi0E18__simd64_float32_tEEvllRKT0_, symObjAddr: 0xA614, symBinAddr: 0x10000E900, symSize: 0x9C }
  - { offsetInCU: 0x15F3F9, offset: 0x15F3F9, size: 0x8, addend: 0x0, symName: __ZN5Eigen8internal31generic_dense_assignment_kernelINS0_9evaluatorINS_5BlockINS_6MatrixIfLi3ELi3ELi0ELi3ELi3EEELi3ELi1ELb1EEEEES7_NS0_14swap_assign_opIfEELi1EE23assignCoeffByOuterInnerEll, symObjAddr: 0xA6B0, symBinAddr: 0x10000E99C, symSize: 0x60 }
  - { offsetInCU: 0x15F45B, offset: 0x15F45B, size: 0x8, addend: 0x0, symName: __ZN5Eigen8internal55copy_using_evaluator_DefaultTraversal_CompleteUnrollingINS0_31generic_dense_assignment_kernelINS0_9evaluatorINS_5BlockINS_6MatrixIfLi3ELi3ELi0ELi3ELi3EEELi3ELi1ELb1EEEEES8_NS0_14swap_assign_opIfEELi0EEELi3ELi3EE3runERSB_, symObjAddr: 0xA710, symBinAddr: 0x10000E9FC, symSize: 0x10 }
  - { offsetInCU: 0x15F47B, offset: 0x15F47B, size: 0x8, addend: 0x0, symName: __ZN5Eigen8internal31generic_dense_assignment_kernelINS0_9evaluatorINS_5BlockINS_6MatrixIfLi3ELi3ELi0ELi3ELi3EEELi3ELi1ELb1EEEEES7_NS0_14swap_assign_opIfEELi1EE11assignCoeffEll, symObjAddr: 0xA720, symBinAddr: 0x10000EA0C, symSize: 0x6C }
  - { offsetInCU: 0x15F4BF, offset: 0x15F4BF, size: 0x8, addend: 0x0, symName: __ZNK5Eigen8internal14swap_assign_opIfE11assignCoeffERfRKf, symObjAddr: 0xA78C, symBinAddr: 0x10000EA78, symSize: 0x30 }
  - { offsetInCU: 0x15F501, offset: 0x15F501, size: 0x8, addend: 0x0, symName: __ZN5Eigen8internal17mapbase_evaluatorINS_5BlockINS_6MatrixIfLi3ELi3ELi0ELi3ELi3EEELi3ELi1ELb1EEENS3_IfLi3ELi1ELi0ELi3ELi1EEEE8coeffRefEll, symObjAddr: 0xA7BC, symBinAddr: 0x10000EAA8, symSize: 0x78 }
  - { offsetInCU: 0x15F545, offset: 0x15F545, size: 0x8, addend: 0x0, symName: __ZN5Eigen8internal14swap_assign_opIfEC2Ev, symObjAddr: 0xA834, symBinAddr: 0x10000EB20, symSize: 0x14 }
  - { offsetInCU: 0x15F56F, offset: 0x15F56F, size: 0x8, addend: 0x0, symName: __ZNK5Eigen9EigenBaseINS_5BlockINS_6MatrixIfLi3ELi3ELi0ELi3ELi3EEELi3ELi1ELb1EEEE4sizeEv, symObjAddr: 0xA848, symBinAddr: 0x10000EB34, symSize: 0x44 }
  - { offsetInCU: 0x15F595, offset: 0x15F595, size: 0x8, addend: 0x0, symName: __ZN5Eigen11VectorBlockINS_5BlockINS_6MatrixIfLi3ELi3ELi0ELi3ELi3EEELi3ELi1ELb1EEELin1EEC1ERS4_ll, symObjAddr: 0xA88C, symBinAddr: 0x10000EB78, symSize: 0x44 }
  - { offsetInCU: 0x15F5E9, offset: 0x15F5E9, size: 0x8, addend: 0x0, symName: __ZN5Eigen11VectorBlockINS_5BlockINS_6MatrixIfLi3ELi3ELi0ELi3ELi3EEELi3ELi1ELb1EEELin1EEC2ERS4_ll, symObjAddr: 0xA8D0, symBinAddr: 0x10000EBBC, symSize: 0x4C }
  - { offsetInCU: 0x15F63D, offset: 0x15F63D, size: 0x8, addend: 0x0, symName: __ZN5Eigen5BlockINS0_INS_6MatrixIfLi3ELi3ELi0ELi3ELi3EEELi3ELi1ELb1EEELin1ELi1ELb0EEC2ERS3_llll, symObjAddr: 0xA91C, symBinAddr: 0x10000EC08, symSize: 0x190 }
  - { offsetInCU: 0x15F6AD, offset: 0x15F6AD, size: 0x8, addend: 0x0, symName: __ZN5Eigen9BlockImplINS_5BlockINS_6MatrixIfLi3ELi3ELi0ELi3ELi3EEELi3ELi1ELb1EEELin1ELi1ELb0ENS_5DenseEEC2ERS4_llll, symObjAddr: 0xAAAC, symBinAddr: 0x10000ED98, symSize: 0x54 }
  - { offsetInCU: 0x15F71D, offset: 0x15F71D, size: 0x8, addend: 0x0, symName: __ZN5Eigen8internal15BlockImpl_denseINS_5BlockINS_6MatrixIfLi3ELi3ELi0ELi3ELi3EEELi3ELi1ELb1EEELin1ELi1ELb0ELb1EEC2ERS5_llll, symObjAddr: 0xAB00, symBinAddr: 0x10000EDEC, symSize: 0xD0 }
  - { offsetInCU: 0x15F792, offset: 0x15F792, size: 0x8, addend: 0x0, symName: __ZN5Eigen7MapBaseINS_5BlockINS_6MatrixIfLi3ELi3ELi0ELi3ELi3EEELi3ELi1ELb1EEELi1EE4dataEv, symObjAddr: 0xABD0, symBinAddr: 0x10000EEBC, symSize: 0x18 }
  - { offsetInCU: 0x15F7B8, offset: 0x15F7B8, size: 0x8, addend: 0x0, symName: __ZN5Eigen7MapBaseINS_5BlockINS1_INS_6MatrixIfLi3ELi3ELi0ELi3ELi3EEELi3ELi1ELb1EEELin1ELi1ELb0EEELi1EEC2EPfll, symObjAddr: 0xABE8, symBinAddr: 0x10000EED4, symSize: 0x44 }
  - { offsetInCU: 0x15F80F, offset: 0x15F80F, size: 0x8, addend: 0x0, symName: __ZN5Eigen8internal15BlockImpl_denseINS_5BlockINS_6MatrixIfLi3ELi3ELi0ELi3ELi3EEELi3ELi1ELb1EEELin1ELi1ELb0ELb1EE4initEv, symObjAddr: 0xAC2C, symBinAddr: 0x10000EF18, symSize: 0x34 }
  - { offsetInCU: 0x15F835, offset: 0x15F835, size: 0x8, addend: 0x0, symName: __ZN5Eigen7MapBaseINS_5BlockINS1_INS_6MatrixIfLi3ELi3ELi0ELi3ELi3EEELi3ELi1ELb1EEELin1ELi1ELb0EEELi0EEC2EPfll, symObjAddr: 0xAC60, symBinAddr: 0x10000EF4C, symSize: 0x11C }
  - { offsetInCU: 0x15F889, offset: 0x15F889, size: 0x8, addend: 0x0, symName: __ZN5Eigen10MatrixBaseINS_5BlockINS1_INS_6MatrixIfLi3ELi3ELi0ELi3ELi3EEELi3ELi1ELb1EEELin1ELi1ELb0EEEEC2Ev, symObjAddr: 0xAD7C, symBinAddr: 0x10000F068, symSize: 0x2C }
  - { offsetInCU: 0x15F8B3, offset: 0x15F8B3, size: 0x8, addend: 0x0, symName: __ZNK5Eigen7MapBaseINS_5BlockINS1_INS_6MatrixIfLi3ELi3ELi0ELi3ELi3EEELi3ELi1ELb1EEELin1ELi1ELb0EEELi0EE11checkSanityIS5_EEvNS_8internal9enable_ifIXeqsr8internal6traitsIT_EE9AlignmentLi0EEPvE4typeE, symObjAddr: 0xADA8, symBinAddr: 0x10000F094, symSize: 0x14 }
  - { offsetInCU: 0x15F8ED, offset: 0x15F8ED, size: 0x8, addend: 0x0, symName: __ZN5Eigen9DenseBaseINS_5BlockINS1_INS_6MatrixIfLi3ELi3ELi0ELi3ELi3EEELi3ELi1ELb1EEELin1ELi1ELb0EEEEC2Ev, symObjAddr: 0xADBC, symBinAddr: 0x10000F0A8, symSize: 0x14 }
  - { offsetInCU: 0x15F917, offset: 0x15F917, size: 0x8, addend: 0x0, symName: __ZN5Eigen9EigenBaseINS_5BlockINS1_INS_6MatrixIfLi3ELi3ELi0ELi3ELi3EEELi3ELi1ELb1EEELin1ELi1ELb0EEEE7derivedEv, symObjAddr: 0xADD0, symBinAddr: 0x10000F0BC, symSize: 0x14 }
  - { offsetInCU: 0x15F93D, offset: 0x15F93D, size: 0x8, addend: 0x0, symName: __ZNK5Eigen9EigenBaseINS_5BlockINS1_INS_6MatrixIfLi3ELi3ELi0ELi3ELi3EEELi3ELi1ELb1EEELin1ELi1ELb0EEEE4sizeEv, symObjAddr: 0xADE4, symBinAddr: 0x10000F0D0, symSize: 0x44 }
  - { offsetInCU: 0x15F968, offset: 0x15F968, size: 0x8, addend: 0x0, symName: __ZN5Eigen11VectorBlockINS_5BlockINS1_INS_6MatrixIfLi3ELi3ELi0ELi3ELi3EEELi3ELi1ELb1EEELin1ELi1ELb0EEELin1EEC1ERS5_ll, symObjAddr: 0xAE28, symBinAddr: 0x10000F114, symSize: 0x44 }
  - { offsetInCU: 0x15F9C1, offset: 0x15F9C1, size: 0x8, addend: 0x0, symName: __ZNK5Eigen10MatrixBaseINS_5BlockINS1_INS_6MatrixIfLi3ELi3ELi0ELi3ELi3EEELi3ELi1ELb1EEELin1ELi1ELb0EEEE15makeHouseholderINS_11VectorBlockIS5_Lin1EEEEEvRT_RfSC_, symObjAddr: 0xAE6C, symBinAddr: 0x10000F158, symSize: 0x1F4 }
  - { offsetInCU: 0x15FA62, offset: 0x15FA62, size: 0x8, addend: 0x0, symName: __ZNK5Eigen9EigenBaseINS_5BlockINS1_INS_6MatrixIfLi3ELi3ELi0ELi3ELi3EEELi3ELi1ELb1EEELin1ELi1ELb0EEEE4rowsEv, symObjAddr: 0xB060, symBinAddr: 0x10000F34C, symSize: 0x38 }
  - { offsetInCU: 0x15FA88, offset: 0x15FA88, size: 0x8, addend: 0x0, symName: __ZNK5Eigen9EigenBaseINS_5BlockINS1_INS_6MatrixIfLi3ELi3ELi0ELi3ELi3EEELi3ELi1ELb1EEELin1ELi1ELb0EEEE4colsEv, symObjAddr: 0xB098, symBinAddr: 0x10000F384, symSize: 0x28 }
  - { offsetInCU: 0x15FAAE, offset: 0x15FAAE, size: 0x8, addend: 0x0, symName: __ZNK5Eigen9EigenBaseINS_5BlockINS1_INS_6MatrixIfLi3ELi3ELi0ELi3ELi3EEELi3ELi1ELb1EEELin1ELi1ELb0EEEE7derivedEv, symObjAddr: 0xB0C0, symBinAddr: 0x10000F3AC, symSize: 0x14 }
  - { offsetInCU: 0x15FAD4, offset: 0x15FAD4, size: 0x8, addend: 0x0, symName: __ZNK5Eigen7MapBaseINS_5BlockINS1_INS_6MatrixIfLi3ELi3ELi0ELi3ELi3EEELi3ELi1ELb1EEELin1ELi1ELb0EEELi0EE4rowsEv, symObjAddr: 0xB0D4, symBinAddr: 0x10000F3C0, symSize: 0x28 }
  - { offsetInCU: 0x15FAFA, offset: 0x15FAFA, size: 0x8, addend: 0x0, symName: __ZNK5Eigen7MapBaseINS_5BlockINS1_INS_6MatrixIfLi3ELi3ELi0ELi3ELi3EEELi3ELi1ELb1EEELin1ELi1ELb0EEELi0EE4colsEv, symObjAddr: 0xB0FC, symBinAddr: 0x10000F3E8, symSize: 0x20 }
  - { offsetInCU: 0x15FB20, offset: 0x15FB20, size: 0x8, addend: 0x0, symName: __ZN5Eigen11VectorBlockINS_5BlockINS1_INS_6MatrixIfLi3ELi3ELi0ELi3ELi3EEELi3ELi1ELb1EEELin1ELi1ELb0EEELin1EEC2ERS5_ll, symObjAddr: 0xB11C, symBinAddr: 0x10000F408, symSize: 0x4C }
  - { offsetInCU: 0x15FB74, offset: 0x15FB74, size: 0x8, addend: 0x0, symName: __ZN5Eigen5BlockINS0_INS0_INS_6MatrixIfLi3ELi3ELi0ELi3ELi3EEELi3ELi1ELb1EEELin1ELi1ELb0EEELin1ELi1ELb0EEC2ERS4_llll, symObjAddr: 0xB168, symBinAddr: 0x10000F454, symSize: 0x190 }
  - { offsetInCU: 0x15FBE4, offset: 0x15FBE4, size: 0x8, addend: 0x0, symName: __ZN5Eigen9BlockImplINS_5BlockINS1_INS_6MatrixIfLi3ELi3ELi0ELi3ELi3EEELi3ELi1ELb1EEELin1ELi1ELb0EEELin1ELi1ELb0ENS_5DenseEEC2ERS5_llll, symObjAddr: 0xB2F8, symBinAddr: 0x10000F5E4, symSize: 0x54 }
  - { offsetInCU: 0x15FC54, offset: 0x15FC54, size: 0x8, addend: 0x0, symName: __ZN5Eigen8internal15BlockImpl_denseINS_5BlockINS2_INS_6MatrixIfLi3ELi3ELi0ELi3ELi3EEELi3ELi1ELb1EEELin1ELi1ELb0EEELin1ELi1ELb0ELb1EEC2ERS6_llll, symObjAddr: 0xB34C, symBinAddr: 0x10000F638, symSize: 0xD0 }
  - { offsetInCU: 0x15FCC9, offset: 0x15FCC9, size: 0x8, addend: 0x0, symName: __ZN5Eigen7MapBaseINS_5BlockINS1_INS_6MatrixIfLi3ELi3ELi0ELi3ELi3EEELi3ELi1ELb1EEELin1ELi1ELb0EEELi1EE4dataEv, symObjAddr: 0xB41C, symBinAddr: 0x10000F708, symSize: 0x18 }
  - { offsetInCU: 0x15FCEF, offset: 0x15FCEF, size: 0x8, addend: 0x0, symName: __ZNK5Eigen8internal15BlockImpl_denseINS_5BlockINS_6MatrixIfLi3ELi3ELi0ELi3ELi3EEELi3ELi1ELb1EEELin1ELi1ELb0ELb1EE11innerStrideEv, symObjAddr: 0xB434, symBinAddr: 0x10000F720, symSize: 0x28 }
  - { offsetInCU: 0x15FD15, offset: 0x15FD15, size: 0x8, addend: 0x0, symName: __ZNK5Eigen8internal15BlockImpl_denseINS_5BlockINS_6MatrixIfLi3ELi3ELi0ELi3ELi3EEELi3ELi1ELb1EEELin1ELi1ELb0ELb1EE11outerStrideEv, symObjAddr: 0xB45C, symBinAddr: 0x10000F748, symSize: 0x28 }
  - { offsetInCU: 0x15FD3B, offset: 0x15FD3B, size: 0x8, addend: 0x0, symName: __ZN5Eigen7MapBaseINS_5BlockINS1_INS1_INS_6MatrixIfLi3ELi3ELi0ELi3ELi3EEELi3ELi1ELb1EEELin1ELi1ELb0EEELin1ELi1ELb0EEELi1EEC2EPfll, symObjAddr: 0xB484, symBinAddr: 0x10000F770, symSize: 0x44 }
  - { offsetInCU: 0x15FD92, offset: 0x15FD92, size: 0x8, addend: 0x0, symName: __ZN5Eigen8internal15BlockImpl_denseINS_5BlockINS2_INS_6MatrixIfLi3ELi3ELi0ELi3ELi3EEELi3ELi1ELb1EEELin1ELi1ELb0EEELin1ELi1ELb0ELb1EE4initEv, symObjAddr: 0xB4C8, symBinAddr: 0x10000F7B4, symSize: 0x34 }
  - { offsetInCU: 0x15FDB8, offset: 0x15FDB8, size: 0x8, addend: 0x0, symName: __ZN5Eigen7MapBaseINS_5BlockINS1_INS1_INS_6MatrixIfLi3ELi3ELi0ELi3ELi3EEELi3ELi1ELb1EEELin1ELi1ELb0EEELin1ELi1ELb0EEELi0EEC2EPfll, symObjAddr: 0xB4FC, symBinAddr: 0x10000F7E8, symSize: 0x11C }
  - { offsetInCU: 0x15FE0C, offset: 0x15FE0C, size: 0x8, addend: 0x0, symName: __ZN5Eigen10MatrixBaseINS_5BlockINS1_INS1_INS_6MatrixIfLi3ELi3ELi0ELi3ELi3EEELi3ELi1ELb1EEELin1ELi1ELb0EEELin1ELi1ELb0EEEEC2Ev, symObjAddr: 0xB618, symBinAddr: 0x10000F904, symSize: 0x2C }
  - { offsetInCU: 0x15FE36, offset: 0x15FE36, size: 0x8, addend: 0x0, symName: __ZNK5Eigen7MapBaseINS_5BlockINS1_INS1_INS_6MatrixIfLi3ELi3ELi0ELi3ELi3EEELi3ELi1ELb1EEELin1ELi1ELb0EEELin1ELi1ELb0EEELi0EE11checkSanityIS6_EEvNS_8internal9enable_ifIXeqsr8internal6traitsIT_EE9AlignmentLi0EEPvE4typeE, symObjAddr: 0xB644, symBinAddr: 0x10000F930, symSize: 0x14 }
  - { offsetInCU: 0x15FE70, offset: 0x15FE70, size: 0x8, addend: 0x0, symName: __ZN5Eigen9DenseBaseINS_5BlockINS1_INS1_INS_6MatrixIfLi3ELi3ELi0ELi3ELi3EEELi3ELi1ELb1EEELin1ELi1ELb0EEELin1ELi1ELb0EEEEC2Ev, symObjAddr: 0xB658, symBinAddr: 0x10000F944, symSize: 0x14 }
  - { offsetInCU: 0x15FE9F, offset: 0x15FE9F, size: 0x8, addend: 0x0, symName: __ZN5Eigen11VectorBlockIKNS_5BlockINS1_INS_6MatrixIfLi3ELi3ELi0ELi3ELi3EEELi3ELi1ELb1EEELin1ELi1ELb0EEELin1EEC1ERS6_ll, symObjAddr: 0xB66C, symBinAddr: 0x10000F958, symSize: 0x44 }
  - { offsetInCU: 0x15FEF3, offset: 0x15FEF3, size: 0x8, addend: 0x0, symName: __ZNK5Eigen10MatrixBaseINS_5BlockIKNS1_INS1_INS_6MatrixIfLi3ELi3ELi0ELi3ELi3EEELi3ELi1ELb1EEELin1ELi1ELb0EEELin1ELi1ELb0EEEE11squaredNormEv, symObjAddr: 0xB6B0, symBinAddr: 0x10000F99C, symSize: 0x40 }
  - { offsetInCU: 0x15FF1B, offset: 0x15FF1B, size: 0x8, addend: 0x0, symName: __ZNK5Eigen15DenseCoeffsBaseINS_5BlockINS1_INS_6MatrixIfLi3ELi3ELi0ELi3ELi3EEELi3ELi1ELb1EEELin1ELi1ELb0EEELi0EE5coeffEl, symObjAddr: 0xB6F0, symBinAddr: 0x10000F9DC, symSize: 0x78 }
  - { offsetInCU: 0x15FF4F, offset: 0x15FF4F, size: 0x8, addend: 0x0, symName: __ZNSt3__114numeric_limitsIfE3minB8ue170006Ev, symObjAddr: 0xB768, symBinAddr: 0x10000FA54, symSize: 0x14 }
  - { offsetInCU: 0x15FF63, offset: 0x15FF63, size: 0x8, addend: 0x0, symName: __ZN5Eigen9DenseBaseINS_5BlockINS1_INS1_INS_6MatrixIfLi3ELi3ELi0ELi3ELi3EEELi3ELi1ELb1EEELin1ELi1ELb0EEELin1ELi1ELb0EEEE7setZeroEv, symObjAddr: 0xB7A0, symBinAddr: 0x10000FA8C, symSize: 0x30 }
  - { offsetInCU: 0x15FF8C, offset: 0x15FF8C, size: 0x8, addend: 0x0, symName: __ZNK5Eigen10MatrixBaseINS_5BlockIKNS1_INS1_INS_6MatrixIfLi3ELi3ELi0ELi3ELi3EEELi3ELi1ELb1EEELin1ELi1ELb0EEELin1ELi1ELb0EEEEdvIfEEKNS_13CwiseBinaryOpINS_8internal18scalar_quotient_opIfNSB_18promote_scalar_argIfT_Xsr5Eigen8internal14has_ReturnTypeINS_20ScalarBinaryOpTraitsIfSE_NSC_IfSE_EEEEEE5valueEE4typeEEEKS7_KNSB_19plain_constant_typeIS7_SJ_E4typeEEERKSE_, symObjAddr: 0xB7D0, symBinAddr: 0x10000FABC, symSize: 0xA8 }
  - { offsetInCU: 0x15FFC9, offset: 0x15FFC9, size: 0x8, addend: 0x0, symName: __ZN5Eigen5BlockINS0_INS0_INS_6MatrixIfLi3ELi3ELi0ELi3ELi3EEELi3ELi1ELb1EEELin1ELi1ELb0EEELin1ELi1ELb0EEaSINS_13CwiseBinaryOpINS_8internal18scalar_quotient_opIffEEKNS0_IKS4_Lin1ELi1ELb0EEEKNS_14CwiseNullaryOpINS8_18scalar_constant_opIfEEKNS1_IfLin1ELi1ELi0ELi3ELi1EEEEEEEEERS5_RKNS_9DenseBaseIT_EE, symObjAddr: 0xB878, symBinAddr: 0x10000FB64, symSize: 0x40 }
  - { offsetInCU: 0x160006, offset: 0x160006, size: 0x8, addend: 0x0, symName: __ZN5Eigen11VectorBlockIKNS_5BlockINS1_INS_6MatrixIfLi3ELi3ELi0ELi3ELi3EEELi3ELi1ELb1EEELin1ELi1ELb0EEELin1EEC2ERS6_ll, symObjAddr: 0xB8DC, symBinAddr: 0x10000FBC8, symSize: 0x4C }
  - { offsetInCU: 0x16005A, offset: 0x16005A, size: 0x8, addend: 0x0, symName: __ZN5Eigen5BlockIKNS0_INS0_INS_6MatrixIfLi3ELi3ELi0ELi3ELi3EEELi3ELi1ELb1EEELin1ELi1ELb0EEELin1ELi1ELb0EEC2ERS5_llll, symObjAddr: 0xB928, symBinAddr: 0x10000FC14, symSize: 0x190 }
  - { offsetInCU: 0x1600CA, offset: 0x1600CA, size: 0x8, addend: 0x0, symName: __ZN5Eigen9BlockImplIKNS_5BlockINS1_INS_6MatrixIfLi3ELi3ELi0ELi3ELi3EEELi3ELi1ELb1EEELin1ELi1ELb0EEELin1ELi1ELb0ENS_5DenseEEC2ERS6_llll, symObjAddr: 0xBAB8, symBinAddr: 0x10000FDA4, symSize: 0x54 }
  - { offsetInCU: 0x16013A, offset: 0x16013A, size: 0x8, addend: 0x0, symName: __ZN5Eigen8internal15BlockImpl_denseIKNS_5BlockINS2_INS_6MatrixIfLi3ELi3ELi0ELi3ELi3EEELi3ELi1ELb1EEELin1ELi1ELb0EEELin1ELi1ELb0ELb1EEC2ERS7_llll, symObjAddr: 0xBB0C, symBinAddr: 0x10000FDF8, symSize: 0xD0 }
  - { offsetInCU: 0x1601AF, offset: 0x1601AF, size: 0x8, addend: 0x0, symName: __ZNK5Eigen7MapBaseINS_5BlockINS1_INS_6MatrixIfLi3ELi3ELi0ELi3ELi3EEELi3ELi1ELb1EEELin1ELi1ELb0EEELi1EE4dataEv, symObjAddr: 0xBBDC, symBinAddr: 0x10000FEC8, symSize: 0x18 }
  - { offsetInCU: 0x1601D5, offset: 0x1601D5, size: 0x8, addend: 0x0, symName: __ZN5Eigen7MapBaseINS_5BlockIKNS1_INS1_INS_6MatrixIfLi3ELi3ELi0ELi3ELi3EEELi3ELi1ELb1EEELin1ELi1ELb0EEELin1ELi1ELb0EEELi0EEC2EPKfll, symObjAddr: 0xBBF4, symBinAddr: 0x10000FEE0, symSize: 0x11C }
  - { offsetInCU: 0x160229, offset: 0x160229, size: 0x8, addend: 0x0, symName: __ZN5Eigen8internal15BlockImpl_denseIKNS_5BlockINS2_INS_6MatrixIfLi3ELi3ELi0ELi3ELi3EEELi3ELi1ELb1EEELin1ELi1ELb0EEELin1ELi1ELb0ELb1EE4initEv, symObjAddr: 0xBD10, symBinAddr: 0x10000FFFC, symSize: 0x34 }
  - { offsetInCU: 0x16024F, offset: 0x16024F, size: 0x8, addend: 0x0, symName: __ZN5Eigen10MatrixBaseINS_5BlockIKNS1_INS1_INS_6MatrixIfLi3ELi3ELi0ELi3ELi3EEELi3ELi1ELb1EEELin1ELi1ELb0EEELin1ELi1ELb0EEEEC2Ev, symObjAddr: 0xBD44, symBinAddr: 0x100010030, symSize: 0x2C }
  - { offsetInCU: 0x160279, offset: 0x160279, size: 0x8, addend: 0x0, symName: __ZNK5Eigen7MapBaseINS_5BlockIKNS1_INS1_INS_6MatrixIfLi3ELi3ELi0ELi3ELi3EEELi3ELi1ELb1EEELin1ELi1ELb0EEELin1ELi1ELb0EEELi0EE11checkSanityIS7_EEvNS_8internal9enable_ifIXeqsr8internal6traitsIT_EE9AlignmentLi0EEPvE4typeE, symObjAddr: 0xBD70, symBinAddr: 0x10001005C, symSize: 0x14 }
  - { offsetInCU: 0x1602B3, offset: 0x1602B3, size: 0x8, addend: 0x0, symName: __ZN5Eigen9DenseBaseINS_5BlockIKNS1_INS1_INS_6MatrixIfLi3ELi3ELi0ELi3ELi3EEELi3ELi1ELb1EEELin1ELi1ELb0EEELin1ELi1ELb0EEEEC2Ev, symObjAddr: 0xBD84, symBinAddr: 0x100010070, symSize: 0x14 }
  - { offsetInCU: 0x1602DD, offset: 0x1602DD, size: 0x8, addend: 0x0, symName: __ZNK5Eigen10MatrixBaseINS_5BlockIKNS1_INS1_INS_6MatrixIfLi3ELi3ELi0ELi3ELi3EEELi3ELi1ELb1EEELin1ELi1ELb0EEELin1ELi1ELb0EEEE9cwiseAbs2Ev, symObjAddr: 0xBD98, symBinAddr: 0x100010084, symSize: 0x4C }
  - { offsetInCU: 0x160303, offset: 0x160303, size: 0x8, addend: 0x0, symName: __ZNK5Eigen9DenseBaseINS_12CwiseUnaryOpINS_8internal14scalar_abs2_opIfEEKNS_5BlockIKNS5_INS5_INS_6MatrixIfLi3ELi3ELi0ELi3ELi3EEELi3ELi1ELb1EEELin1ELi1ELb0EEELin1ELi1ELb0EEEEEE3sumEv, symObjAddr: 0xBDE4, symBinAddr: 0x1000100D0, symSize: 0x74 }
  - { offsetInCU: 0x16032C, offset: 0x16032C, size: 0x8, addend: 0x0, symName: __ZNK5Eigen9EigenBaseINS_5BlockIKNS1_INS1_INS_6MatrixIfLi3ELi3ELi0ELi3ELi3EEELi3ELi1ELb1EEELin1ELi1ELb0EEELin1ELi1ELb0EEEE7derivedEv, symObjAddr: 0xBE58, symBinAddr: 0x100010144, symSize: 0x14 }
  - { offsetInCU: 0x160352, offset: 0x160352, size: 0x8, addend: 0x0, symName: __ZN5Eigen12CwiseUnaryOpINS_8internal14scalar_abs2_opIfEEKNS_5BlockIKNS4_INS4_INS_6MatrixIfLi3ELi3ELi0ELi3ELi3EEELi3ELi1ELb1EEELin1ELi1ELb0EEELin1ELi1ELb0EEEEC1ERSB_RKS3_, symObjAddr: 0xBE6C, symBinAddr: 0x100010158, symSize: 0x3C }
  - { offsetInCU: 0x160398, offset: 0x160398, size: 0x8, addend: 0x0, symName: __ZN5Eigen12CwiseUnaryOpINS_8internal14scalar_abs2_opIfEEKNS_5BlockIKNS4_INS4_INS_6MatrixIfLi3ELi3ELi0ELi3ELi3EEELi3ELi1ELb1EEELin1ELi1ELb0EEELin1ELi1ELb0EEEEC2ERSB_RKS3_, symObjAddr: 0xBEA8, symBinAddr: 0x100010194, symSize: 0x54 }
  - { offsetInCU: 0x1603E3, offset: 0x1603E3, size: 0x8, addend: 0x0, symName: __ZN5Eigen16CwiseUnaryOpImplINS_8internal14scalar_abs2_opIfEEKNS_5BlockIKNS4_INS4_INS_6MatrixIfLi3ELi3ELi0ELi3ELi3EEELi3ELi1ELb1EEELin1ELi1ELb0EEELin1ELi1ELb0EEENS_5DenseEEC2Ev, symObjAddr: 0xBEFC, symBinAddr: 0x1000101E8, symSize: 0x2C }
  - { offsetInCU: 0x16040F, offset: 0x16040F, size: 0x8, addend: 0x0, symName: __ZN5Eigen10MatrixBaseINS_12CwiseUnaryOpINS_8internal14scalar_abs2_opIfEEKNS_5BlockIKNS5_INS5_INS_6MatrixIfLi3ELi3ELi0ELi3ELi3EEELi3ELi1ELb1EEELin1ELi1ELb0EEELin1ELi1ELb0EEEEEEC2Ev, symObjAddr: 0xBF28, symBinAddr: 0x100010214, symSize: 0x2C }
  - { offsetInCU: 0x160439, offset: 0x160439, size: 0x8, addend: 0x0, symName: __ZN5Eigen9DenseBaseINS_12CwiseUnaryOpINS_8internal14scalar_abs2_opIfEEKNS_5BlockIKNS5_INS5_INS_6MatrixIfLi3ELi3ELi0ELi3ELi3EEELi3ELi1ELb1EEELin1ELi1ELb0EEELin1ELi1ELb0EEEEEEC2Ev, symObjAddr: 0xBF54, symBinAddr: 0x100010240, symSize: 0x14 }
  - { offsetInCU: 0x160463, offset: 0x160463, size: 0x8, addend: 0x0, symName: __ZNK5Eigen9EigenBaseINS_12CwiseUnaryOpINS_8internal14scalar_abs2_opIfEEKNS_5BlockIKNS5_INS5_INS_6MatrixIfLi3ELi3ELi0ELi3ELi3EEELi3ELi1ELb1EEELin1ELi1ELb0EEELin1ELi1ELb0EEEEEE4sizeEv, symObjAddr: 0xBF68, symBinAddr: 0x100010254, symSize: 0x44 }
  - { offsetInCU: 0x160489, offset: 0x160489, size: 0x8, addend: 0x0, symName: __ZNK5Eigen9EigenBaseINS_12CwiseUnaryOpINS_8internal14scalar_abs2_opIfEEKNS_5BlockIKNS5_INS5_INS_6MatrixIfLi3ELi3ELi0ELi3ELi3EEELi3ELi1ELb1EEELin1ELi1ELb0EEELin1ELi1ELb0EEEEEE7derivedEv, symObjAddr: 0xBFAC, symBinAddr: 0x100010298, symSize: 0x14 }
  - { offsetInCU: 0x1604AF, offset: 0x1604AF, size: 0x8, addend: 0x0, symName: __ZNK5Eigen9DenseBaseINS_12CwiseUnaryOpINS_8internal14scalar_abs2_opIfEEKNS_5BlockIKNS5_INS5_INS_6MatrixIfLi3ELi3ELi0ELi3ELi3EEELi3ELi1ELb1EEELin1ELi1ELb0EEELin1ELi1ELb0EEEEEE5reduxINS2_13scalar_sum_opIffEEEEfRKT_, symObjAddr: 0xBFC0, symBinAddr: 0x1000102AC, symSize: 0x10C }
  - { offsetInCU: 0x16050B, offset: 0x16050B, size: 0x8, addend: 0x0, symName: __ZNK5Eigen9EigenBaseINS_12CwiseUnaryOpINS_8internal14scalar_abs2_opIfEEKNS_5BlockIKNS5_INS5_INS_6MatrixIfLi3ELi3ELi0ELi3ELi3EEELi3ELi1ELb1EEELin1ELi1ELb0EEELin1ELi1ELb0EEEEEE4rowsEv, symObjAddr: 0xC0CC, symBinAddr: 0x1000103B8, symSize: 0x38 }
  - { offsetInCU: 0x160531, offset: 0x160531, size: 0x8, addend: 0x0, symName: __ZNK5Eigen9EigenBaseINS_12CwiseUnaryOpINS_8internal14scalar_abs2_opIfEEKNS_5BlockIKNS5_INS5_INS_6MatrixIfLi3ELi3ELi0ELi3ELi3EEELi3ELi1ELb1EEELin1ELi1ELb0EEELin1ELi1ELb0EEEEEE4colsEv, symObjAddr: 0xC104, symBinAddr: 0x1000103F0, symSize: 0x38 }
  - { offsetInCU: 0x160557, offset: 0x160557, size: 0x8, addend: 0x0, symName: __ZNK5Eigen12CwiseUnaryOpINS_8internal14scalar_abs2_opIfEEKNS_5BlockIKNS4_INS4_INS_6MatrixIfLi3ELi3ELi0ELi3ELi3EEELi3ELi1ELb1EEELin1ELi1ELb0EEELin1ELi1ELb0EEEE4rowsEv, symObjAddr: 0xC13C, symBinAddr: 0x100010428, symSize: 0x24 }
  - { offsetInCU: 0x16057D, offset: 0x16057D, size: 0x8, addend: 0x0, symName: __ZNK5Eigen7MapBaseINS_5BlockIKNS1_INS1_INS_6MatrixIfLi3ELi3ELi0ELi3ELi3EEELi3ELi1ELb1EEELin1ELi1ELb0EEELin1ELi1ELb0EEELi0EE4rowsEv, symObjAddr: 0xC160, symBinAddr: 0x10001044C, symSize: 0x28 }
  - { offsetInCU: 0x1605A3, offset: 0x1605A3, size: 0x8, addend: 0x0, symName: __ZNK5Eigen12CwiseUnaryOpINS_8internal14scalar_abs2_opIfEEKNS_5BlockIKNS4_INS4_INS_6MatrixIfLi3ELi3ELi0ELi3ELi3EEELi3ELi1ELb1EEELin1ELi1ELb0EEELin1ELi1ELb0EEEE4colsEv, symObjAddr: 0xC188, symBinAddr: 0x100010474, symSize: 0x24 }
  - { offsetInCU: 0x1605C9, offset: 0x1605C9, size: 0x8, addend: 0x0, symName: __ZNK5Eigen7MapBaseINS_5BlockIKNS1_INS1_INS_6MatrixIfLi3ELi3ELi0ELi3ELi3EEELi3ELi1ELb1EEELin1ELi1ELb0EEELin1ELi1ELb0EEELi0EE4colsEv, symObjAddr: 0xC1AC, symBinAddr: 0x100010498, symSize: 0x20 }
  - { offsetInCU: 0x160644, offset: 0x160644, size: 0x8, addend: 0x0, symName: __ZN5Eigen8internal15redux_evaluatorINS_12CwiseUnaryOpINS0_14scalar_abs2_opIfEEKNS_5BlockIKNS5_INS5_INS_6MatrixIfLi3ELi3ELi0ELi3ELi3EEELi3ELi1ELb1EEELin1ELi1ELb0EEELin1ELi1ELb0EEEEEEC1ERKSD_, symObjAddr: 0xC1CC, symBinAddr: 0x1000104B8, symSize: 0x34 }
  - { offsetInCU: 0x160682, offset: 0x160682, size: 0x8, addend: 0x0, symName: __ZN5Eigen8internal10redux_implINS0_13scalar_sum_opIffEENS0_15redux_evaluatorINS_12CwiseUnaryOpINS0_14scalar_abs2_opIfEEKNS_5BlockIKNS8_INS8_INS_6MatrixIfLi3ELi3ELi0ELi3ELi3EEELi3ELi1ELb1EEELin1ELi1ELb0EEELin1ELi1ELb0EEEEEEELi3ELi0EE3runISG_EEfRKSH_RKS3_RKT_, symObjAddr: 0xC200, symBinAddr: 0x1000104EC, symSize: 0x3A4 }
  - { offsetInCU: 0x1607FF, offset: 0x1607FF, size: 0x8, addend: 0x0, symName: __ZN5Eigen8internal15redux_evaluatorINS_12CwiseUnaryOpINS0_14scalar_abs2_opIfEEKNS_5BlockIKNS5_INS5_INS_6MatrixIfLi3ELi3ELi0ELi3ELi3EEELi3ELi1ELb1EEELin1ELi1ELb0EEELin1ELi1ELb0EEEEEED1Ev, symObjAddr: 0xC5A4, symBinAddr: 0x100010890, symSize: 0x2C }
  - { offsetInCU: 0x16082C, offset: 0x16082C, size: 0x8, addend: 0x0, symName: __ZN5Eigen8internal15redux_evaluatorINS_12CwiseUnaryOpINS0_14scalar_abs2_opIfEEKNS_5BlockIKNS5_INS5_INS_6MatrixIfLi3ELi3ELi0ELi3ELi3EEELi3ELi1ELb1EEELin1ELi1ELb0EEELin1ELi1ELb0EEEEEEC2ERKSD_, symObjAddr: 0xC5D0, symBinAddr: 0x1000108BC, symSize: 0x34 }
  - { offsetInCU: 0x160865, offset: 0x160865, size: 0x8, addend: 0x0, symName: __ZN5Eigen8internal9evaluatorINS_12CwiseUnaryOpINS0_14scalar_abs2_opIfEEKNS_5BlockIKNS5_INS5_INS_6MatrixIfLi3ELi3ELi0ELi3ELi3EEELi3ELi1ELb1EEELin1ELi1ELb0EEELin1ELi1ELb0EEEEEEC2ERKSD_, symObjAddr: 0xC604, symBinAddr: 0x1000108F0, symSize: 0x34 }
  - { offsetInCU: 0x16089D, offset: 0x16089D, size: 0x8, addend: 0x0, symName: __ZN5Eigen8internal15unary_evaluatorINS_12CwiseUnaryOpINS0_14scalar_abs2_opIfEEKNS_5BlockIKNS5_INS5_INS_6MatrixIfLi3ELi3ELi0ELi3ELi3EEELi3ELi1ELb1EEELin1ELi1ELb0EEELin1ELi1ELb0EEEEENS0_10IndexBasedEfEC2ERKSD_, symObjAddr: 0xC638, symBinAddr: 0x100010924, symSize: 0x64 }
  - { offsetInCU: 0x1608D6, offset: 0x1608D6, size: 0x8, addend: 0x0, symName: __ZN5Eigen8internal14evaluator_baseINS_12CwiseUnaryOpINS0_14scalar_abs2_opIfEEKNS_5BlockIKNS5_INS5_INS_6MatrixIfLi3ELi3ELi0ELi3ELi3EEELi3ELi1ELb1EEELin1ELi1ELb0EEELin1ELi1ELb0EEEEEEC2Ev, symObjAddr: 0xC69C, symBinAddr: 0x100010988, symSize: 0x14 }
  - { offsetInCU: 0x160900, offset: 0x160900, size: 0x8, addend: 0x0, symName: __ZN5Eigen8internal15unary_evaluatorINS_12CwiseUnaryOpINS0_14scalar_abs2_opIfEEKNS_5BlockIKNS5_INS5_INS_6MatrixIfLi3ELi3ELi0ELi3ELi3EEELi3ELi1ELb1EEELin1ELi1ELb0EEELin1ELi1ELb0EEEEENS0_10IndexBasedEfE4DataC1ERKSD_, symObjAddr: 0xC6B0, symBinAddr: 0x10001099C, symSize: 0x34 }
  - { offsetInCU: 0x160939, offset: 0x160939, size: 0x8, addend: 0x0, symName: __ZN5Eigen8internal14evaluator_baseINS_12CwiseUnaryOpINS0_14scalar_abs2_opIfEEKNS_5BlockIKNS5_INS5_INS_6MatrixIfLi3ELi3ELi0ELi3ELi3EEELi3ELi1ELb1EEELin1ELi1ELb0EEELin1ELi1ELb0EEEEEED2Ev, symObjAddr: 0xC6E4, symBinAddr: 0x1000109D0, symSize: 0x14 }
  - { offsetInCU: 0x160963, offset: 0x160963, size: 0x8, addend: 0x0, symName: __ZN5Eigen8internal15unary_evaluatorINS_12CwiseUnaryOpINS0_14scalar_abs2_opIfEEKNS_5BlockIKNS5_INS5_INS_6MatrixIfLi3ELi3ELi0ELi3ELi3EEELi3ELi1ELb1EEELin1ELi1ELb0EEELin1ELi1ELb0EEEEENS0_10IndexBasedEfE4DataC2ERKSD_, symObjAddr: 0xC6F8, symBinAddr: 0x1000109E4, symSize: 0x58 }
  - { offsetInCU: 0x16099C, offset: 0x16099C, size: 0x8, addend: 0x0, symName: __ZNK5Eigen12CwiseUnaryOpINS_8internal14scalar_abs2_opIfEEKNS_5BlockIKNS4_INS4_INS_6MatrixIfLi3ELi3ELi0ELi3ELi3EEELi3ELi1ELb1EEELin1ELi1ELb0EEELin1ELi1ELb0EEEE7functorEv, symObjAddr: 0xC750, symBinAddr: 0x100010A3C, symSize: 0x18 }
  - { offsetInCU: 0x1609C2, offset: 0x1609C2, size: 0x8, addend: 0x0, symName: __ZNK5Eigen12CwiseUnaryOpINS_8internal14scalar_abs2_opIfEEKNS_5BlockIKNS4_INS4_INS_6MatrixIfLi3ELi3ELi0ELi3ELi3EEELi3ELi1ELb1EEELin1ELi1ELb0EEELin1ELi1ELb0EEEE16nestedExpressionEv, symObjAddr: 0xC768, symBinAddr: 0x100010A54, symSize: 0x14 }
  - { offsetInCU: 0x1609E8, offset: 0x1609E8, size: 0x8, addend: 0x0, symName: __ZN5Eigen8internal9evaluatorIKNS_5BlockIKNS2_INS2_INS_6MatrixIfLi3ELi3ELi0ELi3ELi3EEELi3ELi1ELb1EEELin1ELi1ELb0EEELin1ELi1ELb0EEEEC1ERS9_, symObjAddr: 0xC77C, symBinAddr: 0x100010A68, symSize: 0x34 }
  - { offsetInCU: 0x160A20, offset: 0x160A20, size: 0x8, addend: 0x0, symName: __ZN5Eigen8internal9evaluatorIKNS_5BlockIKNS2_INS2_INS_6MatrixIfLi3ELi3ELi0ELi3ELi3EEELi3ELi1ELb1EEELin1ELi1ELb0EEELin1ELi1ELb0EEEEC2ERS9_, symObjAddr: 0xC7B0, symBinAddr: 0x100010A9C, symSize: 0x34 }
  - { offsetInCU: 0x160A58, offset: 0x160A58, size: 0x8, addend: 0x0, symName: __ZN5Eigen8internal9evaluatorINS_5BlockIKNS2_INS2_INS_6MatrixIfLi3ELi3ELi0ELi3ELi3EEELi3ELi1ELb1EEELin1ELi1ELb0EEELin1ELi1ELb0EEEEC2ERKS8_, symObjAddr: 0xC7E4, symBinAddr: 0x100010AD0, symSize: 0x34 }
  - { offsetInCU: 0x160A91, offset: 0x160A91, size: 0x8, addend: 0x0, symName: __ZN5Eigen8internal15block_evaluatorIKNS_5BlockINS2_INS_6MatrixIfLi3ELi3ELi0ELi3ELi3EEELi3ELi1ELb1EEELin1ELi1ELb0EEELin1ELi1ELb0ELb1EEC2ERKNS2_IS7_Lin1ELi1ELb0EEE, symObjAddr: 0xC818, symBinAddr: 0x100010B04, symSize: 0xDC }
  - { offsetInCU: 0x160ACA, offset: 0x160ACA, size: 0x8, addend: 0x0, symName: __ZN5Eigen8internal17mapbase_evaluatorINS_5BlockIKNS2_INS2_INS_6MatrixIfLi3ELi3ELi0ELi3ELi3EEELi3ELi1ELb1EEELin1ELi1ELb0EEELin1ELi1ELb0EEENS3_IfLin1ELi1ELi0ELi3ELi1EEEEC2ERKS8_, symObjAddr: 0xC8F4, symBinAddr: 0x100010BE0, symSize: 0xB4 }
  - { offsetInCU: 0x160B03, offset: 0x160B03, size: 0x8, addend: 0x0, symName: __ZNK5Eigen7MapBaseINS_5BlockIKNS1_INS1_INS_6MatrixIfLi3ELi3ELi0ELi3ELi3EEELi3ELi1ELb1EEELin1ELi1ELb0EEELin1ELi1ELb0EEELi0EE4dataEv, symObjAddr: 0xC9A8, symBinAddr: 0x100010C94, symSize: 0x18 }
  - { offsetInCU: 0x160B29, offset: 0x160B29, size: 0x8, addend: 0x0, symName: __ZN5Eigen8internal17mapbase_evaluatorINS_5BlockIKNS2_INS2_INS_6MatrixIfLi3ELi3ELi0ELi3ELi3EEELi3ELi1ELb1EEELin1ELi1ELb0EEELin1ELi1ELb0EEENS3_IfLin1ELi1ELi0ELi3ELi1EEEED2Ev, symObjAddr: 0xC9C0, symBinAddr: 0x100010CAC, symSize: 0x2C }
  - { offsetInCU: 0x160B56, offset: 0x160B56, size: 0x8, addend: 0x0, symName: __ZN5Eigen8internal14evaluator_baseINS_5BlockIKNS2_INS2_INS_6MatrixIfLi3ELi3ELi0ELi3ELi3EEELi3ELi1ELb1EEELin1ELi1ELb0EEELin1ELi1ELb0EEEEC2Ev, symObjAddr: 0xC9EC, symBinAddr: 0x100010CD8, symSize: 0x14 }
  - { offsetInCU: 0x160B80, offset: 0x160B80, size: 0x8, addend: 0x0, symName: __ZNK5Eigen8internal15BlockImpl_denseIKNS_5BlockINS2_INS_6MatrixIfLi3ELi3ELi0ELi3ELi3EEELi3ELi1ELb1EEELin1ELi1ELb0EEELin1ELi1ELb0ELb1EE11innerStrideEv, symObjAddr: 0xCA00, symBinAddr: 0x100010CEC, symSize: 0x28 }
  - { offsetInCU: 0x160BA6, offset: 0x160BA6, size: 0x8, addend: 0x0, symName: __ZNK5Eigen8internal15BlockImpl_denseIKNS_5BlockINS2_INS_6MatrixIfLi3ELi3ELi0ELi3ELi3EEELi3ELi1ELb1EEELin1ELi1ELb0EEELin1ELi1ELb0ELb1EE11outerStrideEv, symObjAddr: 0xCA28, symBinAddr: 0x100010D14, symSize: 0x28 }
  - { offsetInCU: 0x160BCC, offset: 0x160BCC, size: 0x8, addend: 0x0, symName: __ZN5Eigen8internal14evaluator_baseINS_5BlockIKNS2_INS2_INS_6MatrixIfLi3ELi3ELi0ELi3ELi3EEELi3ELi1ELb1EEELin1ELi1ELb0EEELin1ELi1ELb0EEEED2Ev, symObjAddr: 0xCA50, symBinAddr: 0x100010D3C, symSize: 0x14 }
  - { offsetInCU: 0x160BF6, offset: 0x160BF6, size: 0x8, addend: 0x0, symName: __ZNK5Eigen8internal15unary_evaluatorINS_12CwiseUnaryOpINS0_14scalar_abs2_opIfEEKNS_5BlockIKNS5_INS5_INS_6MatrixIfLi3ELi3ELi0ELi3ELi3EEELi3ELi1ELb1EEELin1ELi1ELb0EEELin1ELi1ELb0EEEEENS0_10IndexBasedEfE6packetILi0E19__simd128_float32_tEET0_l, symObjAddr: 0xCA88, symBinAddr: 0x100010D74, symSize: 0x50 }
  - { offsetInCU: 0x160C48, offset: 0x160C48, size: 0x8, addend: 0x0, symName: __ZNK5Eigen8internal13scalar_sum_opIffE8packetOpI19__simd128_float32_tEET_RKS5_S7_, symObjAddr: 0xCAD8, symBinAddr: 0x100010DC4, symSize: 0x30 }
  - { offsetInCU: 0x160C93, offset: 0x160C93, size: 0x8, addend: 0x0, symName: __ZNK5Eigen8internal13scalar_sum_opIffE6preduxI19__simd128_float32_tEEfRKT_, symObjAddr: 0xCB08, symBinAddr: 0x100010DF4, symSize: 0x28 }
  - { offsetInCU: 0x160CD0, offset: 0x160CD0, size: 0x8, addend: 0x0, symName: __ZNK5Eigen8internal15unary_evaluatorINS_12CwiseUnaryOpINS0_14scalar_abs2_opIfEEKNS_5BlockIKNS5_INS5_INS_6MatrixIfLi3ELi3ELi0ELi3ELi3EEELi3ELi1ELb1EEELin1ELi1ELb0EEELin1ELi1ELb0EEEEENS0_10IndexBasedEfE5coeffEl, symObjAddr: 0xCB30, symBinAddr: 0x100010E1C, symSize: 0x50 }
  - { offsetInCU: 0x160D05, offset: 0x160D05, size: 0x8, addend: 0x0, symName: __ZN5Eigen8internal18first_aligned_implILi16ENS_12CwiseUnaryOpINS0_14scalar_abs2_opIfEEKNS_5BlockIKNS5_INS5_INS_6MatrixIfLi3ELi3ELi0ELi3ELi3EEELi3ELi1ELb1EEELin1ELi1ELb0EEELin1ELi1ELb0EEEEELb1EE3runERKSD_, symObjAddr: 0xCBA8, symBinAddr: 0x100010E94, symSize: 0x14 }
  - { offsetInCU: 0x160D25, offset: 0x160D25, size: 0x8, addend: 0x0, symName: __ZNK5Eigen8internal15unary_evaluatorINS_12CwiseUnaryOpINS0_14scalar_abs2_opIfEEKNS_5BlockIKNS5_INS5_INS_6MatrixIfLi3ELi3ELi0ELi3ELi3EEELi3ELi1ELb1EEELin1ELi1ELb0EEELin1ELi1ELb0EEEEENS0_10IndexBasedEfE4Data4funcEv, symObjAddr: 0xCBBC, symBinAddr: 0x100010EA8, symSize: 0x14 }
  - { offsetInCU: 0x160D4B, offset: 0x160D4B, size: 0x8, addend: 0x0, symName: __ZNK5Eigen8internal14scalar_abs2_opIfE8packetOpI19__simd128_float32_tEEKT_RS6_, symObjAddr: 0xCBD0, symBinAddr: 0x100010EBC, symSize: 0x2C }
  - { offsetInCU: 0x160D92, offset: 0x160D92, size: 0x8, addend: 0x0, symName: __ZNK5Eigen8internal17mapbase_evaluatorINS_5BlockIKNS2_INS2_INS_6MatrixIfLi3ELi3ELi0ELi3ELi3EEELi3ELi1ELb1EEELin1ELi1ELb0EEELin1ELi1ELb0EEENS3_IfLin1ELi1ELi0ELi3ELi1EEEE6packetILi0E19__simd128_float32_tEET0_l, symObjAddr: 0xCBFC, symBinAddr: 0x100010EE8, symSize: 0x54 }
  - { offsetInCU: 0x160DF8, offset: 0x160DF8, size: 0x8, addend: 0x0, symName: __ZNK5Eigen8internal17mapbase_evaluatorINS_5BlockIKNS2_INS2_INS_6MatrixIfLi3ELi3ELi0ELi3ELi3EEELi3ELi1ELb1EEELin1ELi1ELb0EEELin1ELi1ELb0EEENS3_IfLin1ELi1ELi0ELi3ELi1EEEE5coeffEl, symObjAddr: 0xCDA0, symBinAddr: 0x10001108C, symSize: 0x48 }
  - { offsetInCU: 0x160E2D, offset: 0x160E2D, size: 0x8, addend: 0x0, symName: __ZN5Eigen8internal15redux_evaluatorINS_12CwiseUnaryOpINS0_14scalar_abs2_opIfEEKNS_5BlockIKNS5_INS5_INS_6MatrixIfLi3ELi3ELi0ELi3ELi3EEELi3ELi1ELb1EEELin1ELi1ELb0EEELin1ELi1ELb0EEEEEED2Ev, symObjAddr: 0xCDE8, symBinAddr: 0x1000110D4, symSize: 0x2C }
  - { offsetInCU: 0x160E5A, offset: 0x160E5A, size: 0x8, addend: 0x0, symName: __ZN5Eigen8internal9evaluatorINS_12CwiseUnaryOpINS0_14scalar_abs2_opIfEEKNS_5BlockIKNS5_INS5_INS_6MatrixIfLi3ELi3ELi0ELi3ELi3EEELi3ELi1ELb1EEELin1ELi1ELb0EEELin1ELi1ELb0EEEEEED2Ev, symObjAddr: 0xCE14, symBinAddr: 0x100011100, symSize: 0x2C }
  - { offsetInCU: 0x160E86, offset: 0x160E86, size: 0x8, addend: 0x0, symName: __ZN5Eigen8internal15unary_evaluatorINS_12CwiseUnaryOpINS0_14scalar_abs2_opIfEEKNS_5BlockIKNS5_INS5_INS_6MatrixIfLi3ELi3ELi0ELi3ELi3EEELi3ELi1ELb1EEELin1ELi1ELb0EEELin1ELi1ELb0EEEEENS0_10IndexBasedEfED2Ev, symObjAddr: 0xCE40, symBinAddr: 0x10001112C, symSize: 0x34 }
  - { offsetInCU: 0x160EB2, offset: 0x160EB2, size: 0x8, addend: 0x0, symName: __ZN5Eigen8internal15unary_evaluatorINS_12CwiseUnaryOpINS0_14scalar_abs2_opIfEEKNS_5BlockIKNS5_INS5_INS_6MatrixIfLi3ELi3ELi0ELi3ELi3EEELi3ELi1ELb1EEELin1ELi1ELb0EEELin1ELi1ELb0EEEEENS0_10IndexBasedEfE4DataD1Ev, symObjAddr: 0xCE74, symBinAddr: 0x100011160, symSize: 0x2C }
  - { offsetInCU: 0x160EDF, offset: 0x160EDF, size: 0x8, addend: 0x0, symName: __ZN5Eigen8internal15unary_evaluatorINS_12CwiseUnaryOpINS0_14scalar_abs2_opIfEEKNS_5BlockIKNS5_INS5_INS_6MatrixIfLi3ELi3ELi0ELi3ELi3EEELi3ELi1ELb1EEELin1ELi1ELb0EEELin1ELi1ELb0EEEEENS0_10IndexBasedEfE4DataD2Ev, symObjAddr: 0xCEA0, symBinAddr: 0x10001118C, symSize: 0x30 }
  - { offsetInCU: 0x160F0C, offset: 0x160F0C, size: 0x8, addend: 0x0, symName: __ZN5Eigen8internal9evaluatorIKNS_5BlockIKNS2_INS2_INS_6MatrixIfLi3ELi3ELi0ELi3ELi3EEELi3ELi1ELb1EEELin1ELi1ELb0EEELin1ELi1ELb0EEEED1Ev, symObjAddr: 0xCED0, symBinAddr: 0x1000111BC, symSize: 0x2C }
  - { offsetInCU: 0x160F38, offset: 0x160F38, size: 0x8, addend: 0x0, symName: __ZN5Eigen8internal9evaluatorIKNS_5BlockIKNS2_INS2_INS_6MatrixIfLi3ELi3ELi0ELi3ELi3EEELi3ELi1ELb1EEELin1ELi1ELb0EEELin1ELi1ELb0EEEED2Ev, symObjAddr: 0xCEFC, symBinAddr: 0x1000111E8, symSize: 0x2C }
  - { offsetInCU: 0x160F64, offset: 0x160F64, size: 0x8, addend: 0x0, symName: __ZN5Eigen8internal9evaluatorINS_5BlockIKNS2_INS2_INS_6MatrixIfLi3ELi3ELi0ELi3ELi3EEELi3ELi1ELb1EEELin1ELi1ELb0EEELin1ELi1ELb0EEEED2Ev, symObjAddr: 0xCF28, symBinAddr: 0x100011214, symSize: 0x2C }
  - { offsetInCU: 0x160F91, offset: 0x160F91, size: 0x8, addend: 0x0, symName: __ZN5Eigen8internal15block_evaluatorIKNS_5BlockINS2_INS_6MatrixIfLi3ELi3ELi0ELi3ELi3EEELi3ELi1ELb1EEELin1ELi1ELb0EEELin1ELi1ELb0ELb1EED2Ev, symObjAddr: 0xCF54, symBinAddr: 0x100011240, symSize: 0x2C }
  - { offsetInCU: 0x160FBE, offset: 0x160FBE, size: 0x8, addend: 0x0, symName: __ZN5Eigen8internal9evaluatorINS_5BlockINS2_INS_6MatrixIfLi3ELi3ELi0ELi3ELi3EEELi3ELi1ELb1EEELin1ELi1ELb0EEEEC1ERKS6_, symObjAddr: 0xCF80, symBinAddr: 0x10001126C, symSize: 0x34 }
  - { offsetInCU: 0x160FF7, offset: 0x160FF7, size: 0x8, addend: 0x0, symName: __ZNK5Eigen8internal17mapbase_evaluatorINS_5BlockINS2_INS_6MatrixIfLi3ELi3ELi0ELi3ELi3EEELi3ELi1ELb1EEELin1ELi1ELb0EEENS3_IfLin1ELi1ELi0ELi3ELi1EEEE5coeffEl, symObjAddr: 0xCFB4, symBinAddr: 0x1000112A0, symSize: 0x48 }
  - { offsetInCU: 0x16102C, offset: 0x16102C, size: 0x8, addend: 0x0, symName: __ZN5Eigen8internal9evaluatorINS_5BlockINS2_INS_6MatrixIfLi3ELi3ELi0ELi3ELi3EEELi3ELi1ELb1EEELin1ELi1ELb0EEEED1Ev, symObjAddr: 0xCFFC, symBinAddr: 0x1000112E8, symSize: 0x2C }
  - { offsetInCU: 0x161059, offset: 0x161059, size: 0x8, addend: 0x0, symName: __ZN5Eigen8internal9evaluatorINS_5BlockINS2_INS_6MatrixIfLi3ELi3ELi0ELi3ELi3EEELi3ELi1ELb1EEELin1ELi1ELb0EEEEC2ERKS6_, symObjAddr: 0xD028, symBinAddr: 0x100011314, symSize: 0x34 }
  - { offsetInCU: 0x161092, offset: 0x161092, size: 0x8, addend: 0x0, symName: __ZN5Eigen8internal15block_evaluatorINS_5BlockINS_6MatrixIfLi3ELi3ELi0ELi3ELi3EEELi3ELi1ELb1EEELin1ELi1ELb0ELb1EEC2ERKNS2_IS5_Lin1ELi1ELb0EEE, symObjAddr: 0xD05C, symBinAddr: 0x100011348, symSize: 0xD0 }
  - { offsetInCU: 0x1610CB, offset: 0x1610CB, size: 0x8, addend: 0x0, symName: __ZN5Eigen8internal17mapbase_evaluatorINS_5BlockINS2_INS_6MatrixIfLi3ELi3ELi0ELi3ELi3EEELi3ELi1ELb1EEELin1ELi1ELb0EEENS3_IfLin1ELi1ELi0ELi3ELi1EEEEC2ERKS6_, symObjAddr: 0xD12C, symBinAddr: 0x100011418, symSize: 0xA4 }
  - { offsetInCU: 0x161104, offset: 0x161104, size: 0x8, addend: 0x0, symName: __ZN5Eigen8internal17mapbase_evaluatorINS_5BlockINS2_INS_6MatrixIfLi3ELi3ELi0ELi3ELi3EEELi3ELi1ELb1EEELin1ELi1ELb0EEENS3_IfLin1ELi1ELi0ELi3ELi1EEEED2Ev, symObjAddr: 0xD1D0, symBinAddr: 0x1000114BC, symSize: 0x2C }
  - { offsetInCU: 0x161131, offset: 0x161131, size: 0x8, addend: 0x0, symName: __ZN5Eigen8internal14evaluator_baseINS_5BlockINS2_INS_6MatrixIfLi3ELi3ELi0ELi3ELi3EEELi3ELi1ELb1EEELin1ELi1ELb0EEEEC2Ev, symObjAddr: 0xD1FC, symBinAddr: 0x1000114E8, symSize: 0x14 }
  - { offsetInCU: 0x16115B, offset: 0x16115B, size: 0x8, addend: 0x0, symName: __ZN5Eigen8internal14evaluator_baseINS_5BlockINS2_INS_6MatrixIfLi3ELi3ELi0ELi3ELi3EEELi3ELi1ELb1EEELin1ELi1ELb0EEEED2Ev, symObjAddr: 0xD210, symBinAddr: 0x1000114FC, symSize: 0x14 }
  - { offsetInCU: 0x161185, offset: 0x161185, size: 0x8, addend: 0x0, symName: __ZN5Eigen8internal9evaluatorINS_5BlockINS2_INS_6MatrixIfLi3ELi3ELi0ELi3ELi3EEELi3ELi1ELb1EEELin1ELi1ELb0EEEED2Ev, symObjAddr: 0xD224, symBinAddr: 0x100011510, symSize: 0x2C }
  - { offsetInCU: 0x1611B2, offset: 0x1611B2, size: 0x8, addend: 0x0, symName: __ZN5Eigen8internal15block_evaluatorINS_5BlockINS_6MatrixIfLi3ELi3ELi0ELi3ELi3EEELi3ELi1ELb1EEELin1ELi1ELb0ELb1EED2Ev, symObjAddr: 0xD250, symBinAddr: 0x10001153C, symSize: 0x2C }
  - { offsetInCU: 0x1611DF, offset: 0x1611DF, size: 0x8, addend: 0x0, symName: __ZNSt3__123__libcpp_numeric_limitsIfLb1EE3minB8ue170006Ev, symObjAddr: 0xD27C, symBinAddr: 0x100011568, symSize: 0xC }
  - { offsetInCU: 0x1611F3, offset: 0x1611F3, size: 0x8, addend: 0x0, symName: __ZN5Eigen8internal17imag_default_implIfLb0EE3runERKf, symObjAddr: 0xD288, symBinAddr: 0x100011574, symSize: 0x14 }
  - { offsetInCU: 0x161213, offset: 0x161213, size: 0x8, addend: 0x0, symName: __ZN5Eigen9DenseBaseINS_5BlockINS1_INS1_INS_6MatrixIfLi3ELi3ELi0ELi3ELi3EEELi3ELi1ELb1EEELin1ELi1ELb0EEELin1ELi1ELb0EEEE11setConstantERKf, symObjAddr: 0xD29C, symBinAddr: 0x100011588, symSize: 0x64 }
  - { offsetInCU: 0x16124B, offset: 0x16124B, size: 0x8, addend: 0x0, symName: __ZN5Eigen9DenseBaseINS_5BlockINS1_INS1_INS_6MatrixIfLi3ELi3ELi0ELi3ELi3EEELi3ELi1ELb1EEELin1ELi1ELb0EEELin1ELi1ELb0EEEE8ConstantEllRKf, symObjAddr: 0xD300, symBinAddr: 0x1000115EC, symSize: 0x60 }
  - { offsetInCU: 0x16128F, offset: 0x16128F, size: 0x8, addend: 0x0, symName: __ZNK5Eigen9EigenBaseINS_5BlockINS1_INS1_INS_6MatrixIfLi3ELi3ELi0ELi3ELi3EEELi3ELi1ELb1EEELin1ELi1ELb0EEELin1ELi1ELb0EEEE4rowsEv, symObjAddr: 0xD360, symBinAddr: 0x10001164C, symSize: 0x38 }
  - { offsetInCU: 0x1612B5, offset: 0x1612B5, size: 0x8, addend: 0x0, symName: __ZNK5Eigen9EigenBaseINS_5BlockINS1_INS1_INS_6MatrixIfLi3ELi3ELi0ELi3ELi3EEELi3ELi1ELb1EEELin1ELi1ELb0EEELin1ELi1ELb0EEEE4colsEv, symObjAddr: 0xD398, symBinAddr: 0x100011684, symSize: 0x28 }
  - { offsetInCU: 0x1612DB, offset: 0x1612DB, size: 0x8, addend: 0x0, symName: __ZN5Eigen9EigenBaseINS_5BlockINS1_INS1_INS_6MatrixIfLi3ELi3ELi0ELi3ELi3EEELi3ELi1ELb1EEELin1ELi1ELb0EEELin1ELi1ELb0EEEE7derivedEv, symObjAddr: 0xD3C0, symBinAddr: 0x1000116AC, symSize: 0x14 }
  - { offsetInCU: 0x161301, offset: 0x161301, size: 0x8, addend: 0x0, symName: __ZN5Eigen5BlockINS0_INS0_INS_6MatrixIfLi3ELi3ELi0ELi3ELi3EEELi3ELi1ELb1EEELin1ELi1ELb0EEELin1ELi1ELb0EEaSINS_14CwiseNullaryOpINS_8internal18scalar_constant_opIfEENS1_IfLin1ELi1ELi0ELi3ELi1EEEEEEERS5_RKNS_9DenseBaseIT_EE, symObjAddr: 0xD3D4, symBinAddr: 0x1000116C0, symSize: 0x40 }
  - { offsetInCU: 0x16133E, offset: 0x16133E, size: 0x8, addend: 0x0, symName: __ZN5Eigen9DenseBaseINS_5BlockINS1_INS1_INS_6MatrixIfLi3ELi3ELi0ELi3ELi3EEELi3ELi1ELb1EEELin1ELi1ELb0EEELin1ELi1ELb0EEEE11NullaryExprINS_8internal18scalar_constant_opIfEEEEKNS_14CwiseNullaryOpIT_NS2_IfLin1ELi1ELi0ELi3ELi1EEEEEllRKSD_, symObjAddr: 0xD414, symBinAddr: 0x100011700, symSize: 0x48 }
  - { offsetInCU: 0x16138B, offset: 0x16138B, size: 0x8, addend: 0x0, symName: __ZN5Eigen8internal18scalar_constant_opIfEC1ERKf, symObjAddr: 0xD45C, symBinAddr: 0x100011748, symSize: 0x34 }
  - { offsetInCU: 0x1613C3, offset: 0x1613C3, size: 0x8, addend: 0x0, symName: __ZN5Eigen14CwiseNullaryOpINS_8internal18scalar_constant_opIfEENS_6MatrixIfLin1ELi1ELi0ELi3ELi1EEEEC1EllRKS3_, symObjAddr: 0xD490, symBinAddr: 0x10001177C, symSize: 0x44 }
  - { offsetInCU: 0x161417, offset: 0x161417, size: 0x8, addend: 0x0, symName: __ZN5Eigen14CwiseNullaryOpINS_8internal18scalar_constant_opIfEENS_6MatrixIfLin1ELi1ELi0ELi3ELi1EEEEC2EllRKS3_, symObjAddr: 0xD4D4, symBinAddr: 0x1000117C0, symSize: 0xE8 }
  - { offsetInCU: 0x16146B, offset: 0x16146B, size: 0x8, addend: 0x0, symName: __ZN5Eigen10MatrixBaseINS_14CwiseNullaryOpINS_8internal18scalar_constant_opIfEENS_6MatrixIfLin1ELi1ELi0ELi3ELi1EEEEEEC2Ev, symObjAddr: 0xD5BC, symBinAddr: 0x1000118A8, symSize: 0x2C }
  - { offsetInCU: 0x161495, offset: 0x161495, size: 0x8, addend: 0x0, symName: __ZN5Eigen8internal18scalar_constant_opIfEC1ERKS2_, symObjAddr: 0xD5E8, symBinAddr: 0x1000118D4, symSize: 0x34 }
  - { offsetInCU: 0x1614CD, offset: 0x1614CD, size: 0x8, addend: 0x0, symName: __ZN5Eigen9DenseBaseINS_14CwiseNullaryOpINS_8internal18scalar_constant_opIfEENS_6MatrixIfLin1ELi1ELi0ELi3ELi1EEEEEEC2Ev, symObjAddr: 0xD61C, symBinAddr: 0x100011908, symSize: 0x14 }
  - { offsetInCU: 0x1614F7, offset: 0x1614F7, size: 0x8, addend: 0x0, symName: __ZN5Eigen8internal18scalar_constant_opIfEC2ERKS2_, symObjAddr: 0xD630, symBinAddr: 0x10001191C, symSize: 0x24 }
  - { offsetInCU: 0x16152F, offset: 0x16152F, size: 0x8, addend: 0x0, symName: __ZN5Eigen8internal18scalar_constant_opIfEC2ERKf, symObjAddr: 0xD654, symBinAddr: 0x100011940, symSize: 0x24 }
  - { offsetInCU: 0x161567, offset: 0x161567, size: 0x8, addend: 0x0, symName: __ZNK5Eigen9EigenBaseINS_5BlockINS1_INS1_INS_6MatrixIfLi3ELi3ELi0ELi3ELi3EEELi3ELi1ELb1EEELin1ELi1ELb0EEELin1ELi1ELb0EEEE7derivedEv, symObjAddr: 0xD678, symBinAddr: 0x100011964, symSize: 0x14 }
  - { offsetInCU: 0x16158D, offset: 0x16158D, size: 0x8, addend: 0x0, symName: __ZNK5Eigen7MapBaseINS_5BlockINS1_INS1_INS_6MatrixIfLi3ELi3ELi0ELi3ELi3EEELi3ELi1ELb1EEELin1ELi1ELb0EEELin1ELi1ELb0EEELi0EE4rowsEv, symObjAddr: 0xD68C, symBinAddr: 0x100011978, symSize: 0x28 }
  - { offsetInCU: 0x1615B3, offset: 0x1615B3, size: 0x8, addend: 0x0, symName: __ZNK5Eigen7MapBaseINS_5BlockINS1_INS1_INS_6MatrixIfLi3ELi3ELi0ELi3ELi3EEELi3ELi1ELb1EEELin1ELi1ELb0EEELin1ELi1ELb0EEELi0EE4colsEv, symObjAddr: 0xD6B4, symBinAddr: 0x1000119A0, symSize: 0x20 }
  - { offsetInCU: 0x1615D9, offset: 0x1615D9, size: 0x8, addend: 0x0, symName: __ZN5Eigen9BlockImplINS_5BlockINS1_INS_6MatrixIfLi3ELi3ELi0ELi3ELi3EEELi3ELi1ELb1EEELin1ELi1ELb0EEELin1ELi1ELb0ENS_5DenseEEaSINS_14CwiseNullaryOpINS_8internal18scalar_constant_opIfEENS2_IfLin1ELi1ELi0ELi3ELi1EEEEEEERS7_RKNS_9DenseBaseIT_EE, symObjAddr: 0xD6D4, symBinAddr: 0x1000119C0, symSize: 0x40 }
  - { offsetInCU: 0x161616, offset: 0x161616, size: 0x8, addend: 0x0, symName: __ZNK5Eigen9EigenBaseINS_14CwiseNullaryOpINS_8internal18scalar_constant_opIfEENS_6MatrixIfLin1ELi1ELi0ELi3ELi1EEEEEE7derivedEv, symObjAddr: 0xD714, symBinAddr: 0x100011A00, symSize: 0x14 }
  - { offsetInCU: 0x16163C, offset: 0x16163C, size: 0x8, addend: 0x0, symName: __ZN5Eigen8internal15BlockImpl_denseINS_5BlockINS2_INS_6MatrixIfLi3ELi3ELi0ELi3ELi3EEELi3ELi1ELb1EEELin1ELi1ELb0EEELin1ELi1ELb0ELb1EEaSINS_14CwiseNullaryOpINS0_18scalar_constant_opIfEENS3_IfLin1ELi1ELi0ELi3ELi1EEEEEEERS7_RKNS_9DenseBaseIT_EE, symObjAddr: 0xD728, symBinAddr: 0x100011A14, symSize: 0x40 }
  - { offsetInCU: 0x16167A, offset: 0x16167A, size: 0x8, addend: 0x0, symName: __ZN5Eigen10MatrixBaseINS_5BlockINS1_INS1_INS_6MatrixIfLi3ELi3ELi0ELi3ELi3EEELi3ELi1ELb1EEELin1ELi1ELb0EEELin1ELi1ELb0EEEEaSINS_14CwiseNullaryOpINS_8internal18scalar_constant_opIfEENS2_IfLin1ELi1ELi0ELi3ELi1EEEEEEERS6_RKNS_9DenseBaseIT_EE, symObjAddr: 0xD768, symBinAddr: 0x100011A54, symSize: 0x4C }
  - { offsetInCU: 0x1616B9, offset: 0x1616B9, size: 0x8, addend: 0x0, symName: __ZN5Eigen8internal10AssignmentINS_5BlockINS2_INS2_INS_6MatrixIfLi3ELi3ELi0ELi3ELi3EEELi3ELi1ELb1EEELin1ELi1ELb0EEELin1ELi1ELb0EEENS_14CwiseNullaryOpINS0_18scalar_constant_opIfEENS3_IfLin1ELi1ELi0ELi3ELi1EEEEENS0_9assign_opIffEENS0_11Dense2DenseEvE3runERS7_RKSC_RKSE_, symObjAddr: 0xD878, symBinAddr: 0x100011B64, symSize: 0x40 }
  - { offsetInCU: 0x1616FB, offset: 0x1616FB, size: 0x8, addend: 0x0, symName: __ZN5Eigen8internal9evaluatorINS_14CwiseNullaryOpINS0_18scalar_constant_opIfEENS_6MatrixIfLin1ELi1ELi0ELi3ELi1EEEEEEC1ERKS7_, symObjAddr: 0xD9AC, symBinAddr: 0x100011C98, symSize: 0x34 }
  - { offsetInCU: 0x161734, offset: 0x161734, size: 0x8, addend: 0x0, symName: __ZN5Eigen8internal9evaluatorINS_5BlockINS2_INS2_INS_6MatrixIfLi3ELi3ELi0ELi3ELi3EEELi3ELi1ELb1EEELin1ELi1ELb0EEELin1ELi1ELb0EEEEC1ERKS7_, symObjAddr: 0xDAD8, symBinAddr: 0x100011DC4, symSize: 0x34 }
  - { offsetInCU: 0x16176D, offset: 0x16176D, size: 0x8, addend: 0x0, symName: __ZNK5Eigen9EigenBaseINS_5BlockINS1_INS1_INS_6MatrixIfLi3ELi3ELi0ELi3ELi3EEELi3ELi1ELb1EEELin1ELi1ELb0EEELin1ELi1ELb0EEEE18const_cast_derivedEv, symObjAddr: 0xDB0C, symBinAddr: 0x100011DF8, symSize: 0x14 }
  - { offsetInCU: 0x161793, offset: 0x161793, size: 0x8, addend: 0x0, symName: __ZN5Eigen8internal31generic_dense_assignment_kernelINS0_9evaluatorINS_5BlockINS3_INS3_INS_6MatrixIfLi3ELi3ELi0ELi3ELi3EEELi3ELi1ELb1EEELin1ELi1ELb0EEELin1ELi1ELb0EEEEENS2_INS_14CwiseNullaryOpINS0_18scalar_constant_opIfEENS4_IfLin1ELi1ELi0ELi3ELi1EEEEEEENS0_9assign_opIffEELi0EEC1ERS9_RKSF_RKSH_RS8_, symObjAddr: 0xDB20, symBinAddr: 0x100011E0C, symSize: 0x4C }
  - { offsetInCU: 0x1617F9, offset: 0x1617F9, size: 0x8, addend: 0x0, symName: __ZN5Eigen8internal9evaluatorINS_5BlockINS2_INS2_INS_6MatrixIfLi3ELi3ELi0ELi3ELi3EEELi3ELi1ELb1EEELin1ELi1ELb0EEELin1ELi1ELb0EEEED1Ev, symObjAddr: 0xDC2C, symBinAddr: 0x100011F18, symSize: 0x2C }
  - { offsetInCU: 0x161826, offset: 0x161826, size: 0x8, addend: 0x0, symName: __ZN5Eigen8internal9evaluatorINS_14CwiseNullaryOpINS0_18scalar_constant_opIfEENS_6MatrixIfLin1ELi1ELi0ELi3ELi1EEEEEED1Ev, symObjAddr: 0xDC58, symBinAddr: 0x100011F44, symSize: 0x2C }
  - { offsetInCU: 0x161852, offset: 0x161852, size: 0x8, addend: 0x0, symName: __ZN5Eigen8internal9evaluatorINS_14CwiseNullaryOpINS0_18scalar_constant_opIfEENS_6MatrixIfLin1ELi1ELi0ELi3ELi1EEEEEEC2ERKS7_, symObjAddr: 0xDC84, symBinAddr: 0x100011F70, symSize: 0x74 }
  - { offsetInCU: 0x16188B, offset: 0x16188B, size: 0x8, addend: 0x0, symName: __ZN5Eigen8internal14evaluator_baseINS_14CwiseNullaryOpINS0_18scalar_constant_opIfEENS_6MatrixIfLin1ELi1ELi0ELi3ELi1EEEEEEC2Ev, symObjAddr: 0xDCF8, symBinAddr: 0x100011FE4, symSize: 0x14 }
  - { offsetInCU: 0x1618B5, offset: 0x1618B5, size: 0x8, addend: 0x0, symName: __ZNK5Eigen14CwiseNullaryOpINS_8internal18scalar_constant_opIfEENS_6MatrixIfLin1ELi1ELi0ELi3ELi1EEEE7functorEv, symObjAddr: 0xDD0C, symBinAddr: 0x100011FF8, symSize: 0x18 }
  - { offsetInCU: 0x1618DB, offset: 0x1618DB, size: 0x8, addend: 0x0, symName: __ZN5Eigen8internal14evaluator_baseINS_14CwiseNullaryOpINS0_18scalar_constant_opIfEENS_6MatrixIfLin1ELi1ELi0ELi3ELi1EEEEEED2Ev, symObjAddr: 0xDD24, symBinAddr: 0x100012010, symSize: 0x14 }
  - { offsetInCU: 0x161905, offset: 0x161905, size: 0x8, addend: 0x0, symName: __ZNK5Eigen14CwiseNullaryOpINS_8internal18scalar_constant_opIfEENS_6MatrixIfLin1ELi1ELi0ELi3ELi1EEEE4rowsEv, symObjAddr: 0xDD38, symBinAddr: 0x100012024, symSize: 0x24 }
  - { offsetInCU: 0x16192B, offset: 0x16192B, size: 0x8, addend: 0x0, symName: __ZNK5Eigen14CwiseNullaryOpINS_8internal18scalar_constant_opIfEENS_6MatrixIfLin1ELi1ELi0ELi3ELi1EEEE4colsEv, symObjAddr: 0xDD5C, symBinAddr: 0x100012048, symSize: 0x20 }
  - { offsetInCU: 0x161951, offset: 0x161951, size: 0x8, addend: 0x0, symName: __ZN5Eigen9DenseBaseINS_5BlockINS1_INS1_INS_6MatrixIfLi3ELi3ELi0ELi3ELi3EEELi3ELi1ELb1EEELin1ELi1ELb0EEELin1ELi1ELb0EEEE6resizeEll, symObjAddr: 0xDD7C, symBinAddr: 0x100012068, symSize: 0xBC }
  - { offsetInCU: 0x161995, offset: 0x161995, size: 0x8, addend: 0x0, symName: __ZN5Eigen8internal9evaluatorINS_5BlockINS2_INS2_INS_6MatrixIfLi3ELi3ELi0ELi3ELi3EEELi3ELi1ELb1EEELin1ELi1ELb0EEELin1ELi1ELb0EEEEC2ERKS7_, symObjAddr: 0xDE38, symBinAddr: 0x100012124, symSize: 0x34 }
  - { offsetInCU: 0x1619CE, offset: 0x1619CE, size: 0x8, addend: 0x0, symName: __ZN5Eigen8internal15block_evaluatorINS_5BlockINS2_INS_6MatrixIfLi3ELi3ELi0ELi3ELi3EEELi3ELi1ELb1EEELin1ELi1ELb0EEELin1ELi1ELb0ELb1EEC2ERKNS2_IS6_Lin1ELi1ELb0EEE, symObjAddr: 0xDE6C, symBinAddr: 0x100012158, symSize: 0xDC }
  - { offsetInCU: 0x161A07, offset: 0x161A07, size: 0x8, addend: 0x0, symName: __ZN5Eigen8internal17mapbase_evaluatorINS_5BlockINS2_INS2_INS_6MatrixIfLi3ELi3ELi0ELi3ELi3EEELi3ELi1ELb1EEELin1ELi1ELb0EEELin1ELi1ELb0EEENS3_IfLin1ELi1ELi0ELi3ELi1EEEEC2ERKS7_, symObjAddr: 0xDF48, symBinAddr: 0x100012234, symSize: 0xB4 }
  - { offsetInCU: 0x161A40, offset: 0x161A40, size: 0x8, addend: 0x0, symName: __ZNK5Eigen7MapBaseINS_5BlockINS1_INS1_INS_6MatrixIfLi3ELi3ELi0ELi3ELi3EEELi3ELi1ELb1EEELin1ELi1ELb0EEELin1ELi1ELb0EEELi1EE4dataEv, symObjAddr: 0xDFFC, symBinAddr: 0x1000122E8, symSize: 0x18 }
  - { offsetInCU: 0x161A66, offset: 0x161A66, size: 0x8, addend: 0x0, symName: __ZN5Eigen8internal17mapbase_evaluatorINS_5BlockINS2_INS2_INS_6MatrixIfLi3ELi3ELi0ELi3ELi3EEELi3ELi1ELb1EEELin1ELi1ELb0EEELin1ELi1ELb0EEENS3_IfLin1ELi1ELi0ELi3ELi1EEEED2Ev, symObjAddr: 0xE014, symBinAddr: 0x100012300, symSize: 0x2C }
  - { offsetInCU: 0x161A93, offset: 0x161A93, size: 0x8, addend: 0x0, symName: __ZN5Eigen8internal14evaluator_baseINS_5BlockINS2_INS2_INS_6MatrixIfLi3ELi3ELi0ELi3ELi3EEELi3ELi1ELb1EEELin1ELi1ELb0EEELin1ELi1ELb0EEEEC2Ev, symObjAddr: 0xE040, symBinAddr: 0x10001232C, symSize: 0x14 }
  - { offsetInCU: 0x161ABD, offset: 0x161ABD, size: 0x8, addend: 0x0, symName: __ZNK5Eigen8internal15BlockImpl_denseINS_5BlockINS2_INS_6MatrixIfLi3ELi3ELi0ELi3ELi3EEELi3ELi1ELb1EEELin1ELi1ELb0EEELin1ELi1ELb0ELb1EE11innerStrideEv, symObjAddr: 0xE054, symBinAddr: 0x100012340, symSize: 0x28 }
  - { offsetInCU: 0x161AE3, offset: 0x161AE3, size: 0x8, addend: 0x0, symName: __ZNK5Eigen8internal15BlockImpl_denseINS_5BlockINS2_INS_6MatrixIfLi3ELi3ELi0ELi3ELi3EEELi3ELi1ELb1EEELin1ELi1ELb0EEELin1ELi1ELb0ELb1EE11outerStrideEv, symObjAddr: 0xE07C, symBinAddr: 0x100012368, symSize: 0x28 }
  - { offsetInCU: 0x161B09, offset: 0x161B09, size: 0x8, addend: 0x0, symName: __ZN5Eigen8internal14evaluator_baseINS_5BlockINS2_INS2_INS_6MatrixIfLi3ELi3ELi0ELi3ELi3EEELi3ELi1ELb1EEELin1ELi1ELb0EEELin1ELi1ELb0EEEED2Ev, symObjAddr: 0xE0A4, symBinAddr: 0x100012390, symSize: 0x14 }
  - { offsetInCU: 0x161B33, offset: 0x161B33, size: 0x8, addend: 0x0, symName: __ZN5Eigen8internal31generic_dense_assignment_kernelINS0_9evaluatorINS_5BlockINS3_INS3_INS_6MatrixIfLi3ELi3ELi0ELi3ELi3EEELi3ELi1ELb1EEELin1ELi1ELb0EEELin1ELi1ELb0EEEEENS2_INS_14CwiseNullaryOpINS0_18scalar_constant_opIfEENS4_IfLin1ELi1ELi0ELi3ELi1EEEEEEENS0_9assign_opIffEELi0EEC2ERS9_RKSF_RKSH_RS8_, symObjAddr: 0xE0B8, symBinAddr: 0x1000123A4, symSize: 0x44 }
  - { offsetInCU: 0x161B99, offset: 0x161B99, size: 0x8, addend: 0x0, symName: __ZNK5Eigen8internal31generic_dense_assignment_kernelINS0_9evaluatorINS_5BlockINS3_INS3_INS_6MatrixIfLi3ELi3ELi0ELi3ELi3EEELi3ELi1ELb1EEELin1ELi1ELb0EEELin1ELi1ELb0EEEEENS2_INS_14CwiseNullaryOpINS0_18scalar_constant_opIfEENS4_IfLin1ELi1ELi0ELi3ELi1EEEEEEENS0_9assign_opIffEELi0EE4sizeEv, symObjAddr: 0xE0FC, symBinAddr: 0x1000123E8, symSize: 0x28 }
  - { offsetInCU: 0x161BBF, offset: 0x161BBF, size: 0x8, addend: 0x0, symName: __ZNK5Eigen8internal31generic_dense_assignment_kernelINS0_9evaluatorINS_5BlockINS3_INS3_INS_6MatrixIfLi3ELi3ELi0ELi3ELi3EEELi3ELi1ELb1EEELin1ELi1ELb0EEELin1ELi1ELb0EEEEENS2_INS_14CwiseNullaryOpINS0_18scalar_constant_opIfEENS4_IfLin1ELi1ELi0ELi3ELi1EEEEEEENS0_9assign_opIffEELi0EE10dstDataPtrEv, symObjAddr: 0xE1C8, symBinAddr: 0x1000124B4, symSize: 0x28 }
  - { offsetInCU: 0x161BE5, offset: 0x161BE5, size: 0x8, addend: 0x0, symName: __ZN5Eigen8internal31unaligned_dense_assignment_loopILb0EE3runINS0_31generic_dense_assignment_kernelINS0_9evaluatorINS_5BlockINS6_INS6_INS_6MatrixIfLi3ELi3ELi0ELi3ELi3EEELi3ELi1ELb1EEELin1ELi1ELb0EEELin1ELi1ELb0EEEEENS5_INS_14CwiseNullaryOpINS0_18scalar_constant_opIfEENS7_IfLin1ELi1ELi0ELi3ELi1EEEEEEENS0_9assign_opIffEELi0EEEEEvRT_ll, symObjAddr: 0xE1F0, symBinAddr: 0x1000124DC, symSize: 0x68 }
  - { offsetInCU: 0x161C4D, offset: 0x161C4D, size: 0x8, addend: 0x0, symName: __ZN5Eigen8internal31generic_dense_assignment_kernelINS0_9evaluatorINS_5BlockINS3_INS3_INS_6MatrixIfLi3ELi3ELi0ELi3ELi3EEELi3ELi1ELb1EEELin1ELi1ELb0EEELin1ELi1ELb0EEEEENS2_INS_14CwiseNullaryOpINS0_18scalar_constant_opIfEENS4_IfLin1ELi1ELi0ELi3ELi1EEEEEEENS0_9assign_opIffEELi0EE12assignPacketILi16ELi0E19__simd128_float32_tEEvl, symObjAddr: 0xE258, symBinAddr: 0x100012544, symSize: 0x64 }
  - { offsetInCU: 0x161C9F, offset: 0x161C9F, size: 0x8, addend: 0x0, symName: __ZNK5Eigen9EigenBaseINS_5BlockINS1_INS1_INS_6MatrixIfLi3ELi3ELi0ELi3ELi3EEELi3ELi1ELb1EEELin1ELi1ELb0EEELin1ELi1ELb0EEEE4sizeEv, symObjAddr: 0xE2BC, symBinAddr: 0x1000125A8, symSize: 0x44 }
  - { offsetInCU: 0x161CC5, offset: 0x161CC5, size: 0x8, addend: 0x0, symName: __ZN5Eigen7MapBaseINS_5BlockINS1_INS1_INS_6MatrixIfLi3ELi3ELi0ELi3ELi3EEELi3ELi1ELb1EEELin1ELi1ELb0EEELin1ELi1ELb0EEELi1EE4dataEv, symObjAddr: 0xE300, symBinAddr: 0x1000125EC, symSize: 0x18 }
  - { offsetInCU: 0x161CEB, offset: 0x161CEB, size: 0x8, addend: 0x0, symName: __ZN5Eigen8internal31generic_dense_assignment_kernelINS0_9evaluatorINS_5BlockINS3_INS3_INS_6MatrixIfLi3ELi3ELi0ELi3ELi3EEELi3ELi1ELb1EEELin1ELi1ELb0EEELin1ELi1ELb0EEEEENS2_INS_14CwiseNullaryOpINS0_18scalar_constant_opIfEENS4_IfLin1ELi1ELi0ELi3ELi1EEEEEEENS0_9assign_opIffEELi0EE11assignCoeffEl, symObjAddr: 0xE318, symBinAddr: 0x100012604, symSize: 0x64 }
  - { offsetInCU: 0x161D20, offset: 0x161D20, size: 0x8, addend: 0x0, symName: __ZN5Eigen8internal17mapbase_evaluatorINS_5BlockINS2_INS2_INS_6MatrixIfLi3ELi3ELi0ELi3ELi3EEELi3ELi1ELb1EEELin1ELi1ELb0EEELin1ELi1ELb0EEENS3_IfLin1ELi1ELi0ELi3ELi1EEEE8coeffRefEl, symObjAddr: 0xE37C, symBinAddr: 0x100012668, symSize: 0x48 }
  - { offsetInCU: 0x161D5F, offset: 0x161D5F, size: 0x8, addend: 0x0, symName: __ZNK5Eigen8internal9evaluatorINS_14CwiseNullaryOpINS0_18scalar_constant_opIfEENS_6MatrixIfLin1ELi1ELi0ELi3ELi1EEEEEE5coeffIlEEfT_, symObjAddr: 0xE3C4, symBinAddr: 0x1000126B0, symSize: 0x38 }
  - { offsetInCU: 0x161DA2, offset: 0x161DA2, size: 0x8, addend: 0x0, symName: __ZNK5Eigen8internal15nullary_wrapperIfNS0_18scalar_constant_opIfEELb1ELb0ELb0EEclIlEEfRKS3_T_S8_, symObjAddr: 0xE3FC, symBinAddr: 0x1000126E8, symSize: 0x30 }
  - { offsetInCU: 0x161DF6, offset: 0x161DF6, size: 0x8, addend: 0x0, symName: __ZNK5Eigen8internal18scalar_constant_opIfEclEv, symObjAddr: 0xE42C, symBinAddr: 0x100012718, symSize: 0x18 }
  - { offsetInCU: 0x161E1C, offset: 0x161E1C, size: 0x8, addend: 0x0, symName: __ZNK5Eigen8internal9assign_opIffE12assignPacketILi16E19__simd128_float32_tEEvPfRKT0_, symObjAddr: 0xE444, symBinAddr: 0x100012730, symSize: 0x40 }
  - { offsetInCU: 0x161E96, offset: 0x161E96, size: 0x8, addend: 0x0, symName: __ZNK5Eigen8internal9evaluatorINS_14CwiseNullaryOpINS0_18scalar_constant_opIfEENS_6MatrixIfLin1ELi1ELi0ELi3ELi1EEEEEE6packetILi0E19__simd128_float32_tlEET0_T1_, symObjAddr: 0xE484, symBinAddr: 0x100012770, symSize: 0x38 }
  - { offsetInCU: 0x161EE7, offset: 0x161EE7, size: 0x8, addend: 0x0, symName: __ZNK5Eigen8internal15nullary_wrapperIfNS0_18scalar_constant_opIfEELb1ELb0ELb0EE8packetOpI19__simd128_float32_tlEET_RKS3_T0_SA_, symObjAddr: 0xE4E8, symBinAddr: 0x1000127D4, symSize: 0x30 }
  - { offsetInCU: 0x161F44, offset: 0x161F44, size: 0x8, addend: 0x0, symName: __ZNK5Eigen8internal18scalar_constant_opIfE8packetOpI19__simd128_float32_tEEKT_v, symObjAddr: 0xE518, symBinAddr: 0x100012804, symSize: 0x24 }
  - { offsetInCU: 0x161F73, offset: 0x161F73, size: 0x8, addend: 0x0, symName: __ZN5Eigen8internal9evaluatorINS_5BlockINS2_INS2_INS_6MatrixIfLi3ELi3ELi0ELi3ELi3EEELi3ELi1ELb1EEELin1ELi1ELb0EEELin1ELi1ELb0EEEED2Ev, symObjAddr: 0xE598, symBinAddr: 0x100012884, symSize: 0x2C }
  - { offsetInCU: 0x161FA0, offset: 0x161FA0, size: 0x8, addend: 0x0, symName: __ZN5Eigen8internal15block_evaluatorINS_5BlockINS2_INS_6MatrixIfLi3ELi3ELi0ELi3ELi3EEELi3ELi1ELb1EEELin1ELi1ELb0EEELin1ELi1ELb0ELb1EED2Ev, symObjAddr: 0xE5C4, symBinAddr: 0x1000128B0, symSize: 0x2C }
  - { offsetInCU: 0x161FCD, offset: 0x161FCD, size: 0x8, addend: 0x0, symName: __ZN5Eigen8internal9evaluatorINS_14CwiseNullaryOpINS0_18scalar_constant_opIfEENS_6MatrixIfLin1ELi1ELi0ELi3ELi1EEEEEED2Ev, symObjAddr: 0xE5F0, symBinAddr: 0x1000128DC, symSize: 0x2C }
  - { offsetInCU: 0x161FF9, offset: 0x161FF9, size: 0x8, addend: 0x0, symName: __ZN5Eigen14CwiseNullaryOpINS_8internal18scalar_constant_opIfEEKNS_6MatrixIfLin1ELi1ELi0ELi3ELi1EEEEC1EllRKS3_, symObjAddr: 0xE61C, symBinAddr: 0x100012908, symSize: 0x44 }
  - { offsetInCU: 0x16204D, offset: 0x16204D, size: 0x8, addend: 0x0, symName: __ZN5Eigen8internal18scalar_quotient_opIffEC1Ev, symObjAddr: 0xE660, symBinAddr: 0x10001294C, symSize: 0x2C }
  - { offsetInCU: 0x162077, offset: 0x162077, size: 0x8, addend: 0x0, symName: __ZN5Eigen13CwiseBinaryOpINS_8internal18scalar_quotient_opIffEEKNS_5BlockIKNS4_INS4_INS_6MatrixIfLi3ELi3ELi0ELi3ELi3EEELi3ELi1ELb1EEELin1ELi1ELb0EEELin1ELi1ELb0EEEKNS_14CwiseNullaryOpINS1_18scalar_constant_opIfEEKNS5_IfLin1ELi1ELi0ELi3ELi1EEEEEEC1ERSB_RSI_RKS3_, symObjAddr: 0xE68C, symBinAddr: 0x100012978, symSize: 0x44 }
  - { offsetInCU: 0x1620CB, offset: 0x1620CB, size: 0x8, addend: 0x0, symName: __ZN5Eigen14CwiseNullaryOpINS_8internal18scalar_constant_opIfEEKNS_6MatrixIfLin1ELi1ELi0ELi3ELi1EEEEC2EllRKS3_, symObjAddr: 0xE6D0, symBinAddr: 0x1000129BC, symSize: 0xE8 }
  - { offsetInCU: 0x16211F, offset: 0x16211F, size: 0x8, addend: 0x0, symName: __ZN5Eigen10MatrixBaseINS_14CwiseNullaryOpINS_8internal18scalar_constant_opIfEEKNS_6MatrixIfLin1ELi1ELi0ELi3ELi1EEEEEEC2Ev, symObjAddr: 0xE7B8, symBinAddr: 0x100012AA4, symSize: 0x2C }
  - { offsetInCU: 0x162149, offset: 0x162149, size: 0x8, addend: 0x0, symName: __ZN5Eigen9DenseBaseINS_14CwiseNullaryOpINS_8internal18scalar_constant_opIfEEKNS_6MatrixIfLin1ELi1ELi0ELi3ELi1EEEEEEC2Ev, symObjAddr: 0xE7E4, symBinAddr: 0x100012AD0, symSize: 0x14 }
  - { offsetInCU: 0x162173, offset: 0x162173, size: 0x8, addend: 0x0, symName: __ZN5Eigen8internal18scalar_quotient_opIffEC2Ev, symObjAddr: 0xE7F8, symBinAddr: 0x100012AE4, symSize: 0x14 }
  - { offsetInCU: 0x16219D, offset: 0x16219D, size: 0x8, addend: 0x0, symName: __ZN5Eigen13CwiseBinaryOpINS_8internal18scalar_quotient_opIffEEKNS_5BlockIKNS4_INS4_INS_6MatrixIfLi3ELi3ELi0ELi3ELi3EEELi3ELi1ELb1EEELin1ELi1ELb0EEELin1ELi1ELb0EEEKNS_14CwiseNullaryOpINS1_18scalar_constant_opIfEEKNS5_IfLin1ELi1ELi0ELi3ELi1EEEEEEC2ERSB_RSI_RKS3_, symObjAddr: 0xE80C, symBinAddr: 0x100012AF8, symSize: 0xFC }
  - { offsetInCU: 0x1621F6, offset: 0x1621F6, size: 0x8, addend: 0x0, symName: __ZN5Eigen17CwiseBinaryOpImplINS_8internal18scalar_quotient_opIffEEKNS_5BlockIKNS4_INS4_INS_6MatrixIfLi3ELi3ELi0ELi3ELi3EEELi3ELi1ELb1EEELin1ELi1ELb0EEELin1ELi1ELb0EEEKNS_14CwiseNullaryOpINS1_18scalar_constant_opIfEEKNS5_IfLin1ELi1ELi0ELi3ELi1EEEEENS_5DenseEEC2Ev, symObjAddr: 0xE908, symBinAddr: 0x100012BF4, symSize: 0x2C }
  - { offsetInCU: 0x162222, offset: 0x162222, size: 0x8, addend: 0x0, symName: __ZN5Eigen14CwiseNullaryOpINS_8internal18scalar_constant_opIfEEKNS_6MatrixIfLin1ELi1ELi0ELi3ELi1EEEEC1ERKS7_, symObjAddr: 0xE934, symBinAddr: 0x100012C20, symSize: 0x34 }
  - { offsetInCU: 0x162257, offset: 0x162257, size: 0x8, addend: 0x0, symName: __ZN5Eigen8internal18scalar_quotient_opIffEC1ERKS2_, symObjAddr: 0xE968, symBinAddr: 0x100012C54, symSize: 0x34 }
  - { offsetInCU: 0x16228C, offset: 0x16228C, size: 0x8, addend: 0x0, symName: __ZNK5Eigen14CwiseNullaryOpINS_8internal18scalar_constant_opIfEEKNS_6MatrixIfLin1ELi1ELi0ELi3ELi1EEEE4rowsEv, symObjAddr: 0xE99C, symBinAddr: 0x100012C88, symSize: 0x24 }
  - { offsetInCU: 0x1622B2, offset: 0x1622B2, size: 0x8, addend: 0x0, symName: __ZNK5Eigen14CwiseNullaryOpINS_8internal18scalar_constant_opIfEEKNS_6MatrixIfLin1ELi1ELi0ELi3ELi1EEEE4colsEv, symObjAddr: 0xE9C0, symBinAddr: 0x100012CAC, symSize: 0x20 }
  - { offsetInCU: 0x1622D8, offset: 0x1622D8, size: 0x8, addend: 0x0, symName: __ZN5Eigen10MatrixBaseINS_13CwiseBinaryOpINS_8internal18scalar_quotient_opIffEEKNS_5BlockIKNS5_INS5_INS_6MatrixIfLi3ELi3ELi0ELi3ELi3EEELi3ELi1ELb1EEELin1ELi1ELb0EEELin1ELi1ELb0EEEKNS_14CwiseNullaryOpINS2_18scalar_constant_opIfEEKNS6_IfLin1ELi1ELi0ELi3ELi1EEEEEEEEC2Ev, symObjAddr: 0xE9E0, symBinAddr: 0x100012CCC, symSize: 0x2C }
  - { offsetInCU: 0x162302, offset: 0x162302, size: 0x8, addend: 0x0, symName: __ZN5Eigen9DenseBaseINS_13CwiseBinaryOpINS_8internal18scalar_quotient_opIffEEKNS_5BlockIKNS5_INS5_INS_6MatrixIfLi3ELi3ELi0ELi3ELi3EEELi3ELi1ELb1EEELin1ELi1ELb0EEELin1ELi1ELb0EEEKNS_14CwiseNullaryOpINS2_18scalar_constant_opIfEEKNS6_IfLin1ELi1ELi0ELi3ELi1EEEEEEEEC2Ev, symObjAddr: 0xEA0C, symBinAddr: 0x100012CF8, symSize: 0x14 }
  - { offsetInCU: 0x16232C, offset: 0x16232C, size: 0x8, addend: 0x0, symName: __ZN5Eigen14CwiseNullaryOpINS_8internal18scalar_constant_opIfEEKNS_6MatrixIfLin1ELi1ELi0ELi3ELi1EEEEC2ERKS7_, symObjAddr: 0xEA20, symBinAddr: 0x100012D0C, symSize: 0x50 }
  - { offsetInCU: 0x162361, offset: 0x162361, size: 0x8, addend: 0x0, symName: __ZN5Eigen8internal18scalar_quotient_opIffEC2ERKS2_, symObjAddr: 0xEA70, symBinAddr: 0x100012D5C, symSize: 0x18 }
  - { offsetInCU: 0x162396, offset: 0x162396, size: 0x8, addend: 0x0, symName: __ZN5Eigen9BlockImplINS_5BlockINS1_INS_6MatrixIfLi3ELi3ELi0ELi3ELi3EEELi3ELi1ELb1EEELin1ELi1ELb0EEELin1ELi1ELb0ENS_5DenseEEaSINS_13CwiseBinaryOpINS_8internal18scalar_quotient_opIffEEKNS1_IKS5_Lin1ELi1ELb0EEEKNS_14CwiseNullaryOpINSA_18scalar_constant_opIfEEKNS2_IfLin1ELi1ELi0ELi3ELi1EEEEEEEEERS7_RKNS_9DenseBaseIT_EE, symObjAddr: 0xEA88, symBinAddr: 0x100012D74, symSize: 0x40 }
  - { offsetInCU: 0x1623D3, offset: 0x1623D3, size: 0x8, addend: 0x0, symName: __ZNK5Eigen9EigenBaseINS_13CwiseBinaryOpINS_8internal18scalar_quotient_opIffEEKNS_5BlockIKNS5_INS5_INS_6MatrixIfLi3ELi3ELi0ELi3ELi3EEELi3ELi1ELb1EEELin1ELi1ELb0EEELin1ELi1ELb0EEEKNS_14CwiseNullaryOpINS2_18scalar_constant_opIfEEKNS6_IfLin1ELi1ELi0ELi3ELi1EEEEEEEE7derivedEv, symObjAddr: 0xEAC8, symBinAddr: 0x100012DB4, symSize: 0x14 }
  - { offsetInCU: 0x1623F9, offset: 0x1623F9, size: 0x8, addend: 0x0, symName: __ZN5Eigen8internal15BlockImpl_denseINS_5BlockINS2_INS_6MatrixIfLi3ELi3ELi0ELi3ELi3EEELi3ELi1ELb1EEELin1ELi1ELb0EEELin1ELi1ELb0ELb1EEaSINS_13CwiseBinaryOpINS0_18scalar_quotient_opIffEEKNS2_IKS6_Lin1ELi1ELb0EEEKNS_14CwiseNullaryOpINS0_18scalar_constant_opIfEEKNS3_IfLin1ELi1ELi0ELi3ELi1EEEEEEEEERS7_RKNS_9DenseBaseIT_EE, symObjAddr: 0xEADC, symBinAddr: 0x100012DC8, symSize: 0x40 }
  - { offsetInCU: 0x162437, offset: 0x162437, size: 0x8, addend: 0x0, symName: __ZN5Eigen10MatrixBaseINS_5BlockINS1_INS1_INS_6MatrixIfLi3ELi3ELi0ELi3ELi3EEELi3ELi1ELb1EEELin1ELi1ELb0EEELin1ELi1ELb0EEEEaSINS_13CwiseBinaryOpINS_8internal18scalar_quotient_opIffEEKNS1_IKS5_Lin1ELi1ELb0EEEKNS_14CwiseNullaryOpINSA_18scalar_constant_opIfEEKNS2_IfLin1ELi1ELi0ELi3ELi1EEEEEEEEERS6_RKNS_9DenseBaseIT_EE, symObjAddr: 0xEB1C, symBinAddr: 0x100012E08, symSize: 0x4C }
  - { offsetInCU: 0x162476, offset: 0x162476, size: 0x8, addend: 0x0, symName: __ZN5Eigen8internal10AssignmentINS_5BlockINS2_INS2_INS_6MatrixIfLi3ELi3ELi0ELi3ELi3EEELi3ELi1ELb1EEELin1ELi1ELb0EEELin1ELi1ELb0EEENS_13CwiseBinaryOpINS0_18scalar_quotient_opIffEEKNS2_IKS6_Lin1ELi1ELb0EEEKNS_14CwiseNullaryOpINS0_18scalar_constant_opIfEEKNS3_IfLin1ELi1ELi0ELi3ELi1EEEEEEENS0_9assign_opIffEENS0_11Dense2DenseEvE3runERS7_RKSL_RKSN_, symObjAddr: 0xEC2C, symBinAddr: 0x100012F18, symSize: 0x40 }
  - { offsetInCU: 0x1624B8, offset: 0x1624B8, size: 0x8, addend: 0x0, symName: __ZN5Eigen8internal9evaluatorINS_13CwiseBinaryOpINS0_18scalar_quotient_opIffEEKNS_5BlockIKNS5_INS5_INS_6MatrixIfLi3ELi3ELi0ELi3ELi3EEELi3ELi1ELb1EEELin1ELi1ELb0EEELin1ELi1ELb0EEEKNS_14CwiseNullaryOpINS0_18scalar_constant_opIfEEKNS6_IfLin1ELi1ELi0ELi3ELi1EEEEEEEEC1ERKSK_, symObjAddr: 0xED58, symBinAddr: 0x100013044, symSize: 0x34 }
  - { offsetInCU: 0x1624F1, offset: 0x1624F1, size: 0x8, addend: 0x0, symName: __ZN5Eigen8internal31generic_dense_assignment_kernelINS0_9evaluatorINS_5BlockINS3_INS3_INS_6MatrixIfLi3ELi3ELi0ELi3ELi3EEELi3ELi1ELb1EEELin1ELi1ELb0EEELin1ELi1ELb0EEEEENS2_INS_13CwiseBinaryOpINS0_18scalar_quotient_opIffEEKNS3_IKS7_Lin1ELi1ELb0EEEKNS_14CwiseNullaryOpINS0_18scalar_constant_opIfEEKNS4_IfLin1ELi1ELi0ELi3ELi1EEEEEEEEENS0_9assign_opIffEELi0EEC1ERS9_RKSO_RKSQ_RS8_, symObjAddr: 0xEE84, symBinAddr: 0x100013170, symSize: 0x4C }
  - { offsetInCU: 0x162557, offset: 0x162557, size: 0x8, addend: 0x0, symName: __ZN5Eigen8internal9evaluatorINS_13CwiseBinaryOpINS0_18scalar_quotient_opIffEEKNS_5BlockIKNS5_INS5_INS_6MatrixIfLi3ELi3ELi0ELi3ELi3EEELi3ELi1ELb1EEELin1ELi1ELb0EEELin1ELi1ELb0EEEKNS_14CwiseNullaryOpINS0_18scalar_constant_opIfEEKNS6_IfLin1ELi1ELi0ELi3ELi1EEEEEEEED1Ev, symObjAddr: 0xEF90, symBinAddr: 0x10001327C, symSize: 0x2C }
  - { offsetInCU: 0x162584, offset: 0x162584, size: 0x8, addend: 0x0, symName: __ZN5Eigen8internal9evaluatorINS_13CwiseBinaryOpINS0_18scalar_quotient_opIffEEKNS_5BlockIKNS5_INS5_INS_6MatrixIfLi3ELi3ELi0ELi3ELi3EEELi3ELi1ELb1EEELin1ELi1ELb0EEELin1ELi1ELb0EEEKNS_14CwiseNullaryOpINS0_18scalar_constant_opIfEEKNS6_IfLin1ELi1ELi0ELi3ELi1EEEEEEEEC2ERKSK_, symObjAddr: 0xEFBC, symBinAddr: 0x1000132A8, symSize: 0x34 }
  - { offsetInCU: 0x1625BD, offset: 0x1625BD, size: 0x8, addend: 0x0, symName: __ZN5Eigen8internal16binary_evaluatorINS_13CwiseBinaryOpINS0_18scalar_quotient_opIffEEKNS_5BlockIKNS5_INS5_INS_6MatrixIfLi3ELi3ELi0ELi3ELi3EEELi3ELi1ELb1EEELin1ELi1ELb0EEELin1ELi1ELb0EEEKNS_14CwiseNullaryOpINS0_18scalar_constant_opIfEEKNS6_IfLin1ELi1ELi0ELi3ELi1EEEEEEENS0_10IndexBasedESL_ffEC2ERKSK_, symObjAddr: 0xEFF0, symBinAddr: 0x1000132DC, symSize: 0x64 }
  - { offsetInCU: 0x1625F6, offset: 0x1625F6, size: 0x8, addend: 0x0, symName: __ZN5Eigen8internal14evaluator_baseINS_13CwiseBinaryOpINS0_18scalar_quotient_opIffEEKNS_5BlockIKNS5_INS5_INS_6MatrixIfLi3ELi3ELi0ELi3ELi3EEELi3ELi1ELb1EEELin1ELi1ELb0EEELin1ELi1ELb0EEEKNS_14CwiseNullaryOpINS0_18scalar_constant_opIfEEKNS6_IfLin1ELi1ELi0ELi3ELi1EEEEEEEEC2Ev, symObjAddr: 0xF054, symBinAddr: 0x100013340, symSize: 0x14 }
  - { offsetInCU: 0x162620, offset: 0x162620, size: 0x8, addend: 0x0, symName: __ZN5Eigen8internal16binary_evaluatorINS_13CwiseBinaryOpINS0_18scalar_quotient_opIffEEKNS_5BlockIKNS5_INS5_INS_6MatrixIfLi3ELi3ELi0ELi3ELi3EEELi3ELi1ELb1EEELin1ELi1ELb0EEELin1ELi1ELb0EEEKNS_14CwiseNullaryOpINS0_18scalar_constant_opIfEEKNS6_IfLin1ELi1ELi0ELi3ELi1EEEEEEENS0_10IndexBasedESL_ffE4DataC1ERKSK_, symObjAddr: 0xF068, symBinAddr: 0x100013354, symSize: 0x34 }
  - { offsetInCU: 0x162659, offset: 0x162659, size: 0x8, addend: 0x0, symName: __ZN5Eigen8internal14evaluator_baseINS_13CwiseBinaryOpINS0_18scalar_quotient_opIffEEKNS_5BlockIKNS5_INS5_INS_6MatrixIfLi3ELi3ELi0ELi3ELi3EEELi3ELi1ELb1EEELin1ELi1ELb0EEELin1ELi1ELb0EEEKNS_14CwiseNullaryOpINS0_18scalar_constant_opIfEEKNS6_IfLin1ELi1ELi0ELi3ELi1EEEEEEEED2Ev, symObjAddr: 0xF09C, symBinAddr: 0x100013388, symSize: 0x14 }
  - { offsetInCU: 0x162683, offset: 0x162683, size: 0x8, addend: 0x0, symName: __ZN5Eigen8internal16binary_evaluatorINS_13CwiseBinaryOpINS0_18scalar_quotient_opIffEEKNS_5BlockIKNS5_INS5_INS_6MatrixIfLi3ELi3ELi0ELi3ELi3EEELi3ELi1ELb1EEELin1ELi1ELb0EEELin1ELi1ELb0EEEKNS_14CwiseNullaryOpINS0_18scalar_constant_opIfEEKNS6_IfLin1ELi1ELi0ELi3ELi1EEEEEEENS0_10IndexBasedESL_ffE4DataC2ERKSK_, symObjAddr: 0xF0B0, symBinAddr: 0x10001339C, symSize: 0xA8 }
  - { offsetInCU: 0x1626BC, offset: 0x1626BC, size: 0x8, addend: 0x0, symName: __ZNK5Eigen13CwiseBinaryOpINS_8internal18scalar_quotient_opIffEEKNS_5BlockIKNS4_INS4_INS_6MatrixIfLi3ELi3ELi0ELi3ELi3EEELi3ELi1ELb1EEELin1ELi1ELb0EEELin1ELi1ELb0EEEKNS_14CwiseNullaryOpINS1_18scalar_constant_opIfEEKNS5_IfLin1ELi1ELi0ELi3ELi1EEEEEE7functorEv, symObjAddr: 0xF158, symBinAddr: 0x100013444, symSize: 0x18 }
  - { offsetInCU: 0x1626E2, offset: 0x1626E2, size: 0x8, addend: 0x0, symName: __ZNK5Eigen13CwiseBinaryOpINS_8internal18scalar_quotient_opIffEEKNS_5BlockIKNS4_INS4_INS_6MatrixIfLi3ELi3ELi0ELi3ELi3EEELi3ELi1ELb1EEELin1ELi1ELb0EEELin1ELi1ELb0EEEKNS_14CwiseNullaryOpINS1_18scalar_constant_opIfEEKNS5_IfLin1ELi1ELi0ELi3ELi1EEEEEE3lhsEv, symObjAddr: 0xF170, symBinAddr: 0x10001345C, symSize: 0x14 }
  - { offsetInCU: 0x162708, offset: 0x162708, size: 0x8, addend: 0x0, symName: __ZNK5Eigen13CwiseBinaryOpINS_8internal18scalar_quotient_opIffEEKNS_5BlockIKNS4_INS4_INS_6MatrixIfLi3ELi3ELi0ELi3ELi3EEELi3ELi1ELb1EEELin1ELi1ELb0EEELin1ELi1ELb0EEEKNS_14CwiseNullaryOpINS1_18scalar_constant_opIfEEKNS5_IfLin1ELi1ELi0ELi3ELi1EEEEEE3rhsEv, symObjAddr: 0xF184, symBinAddr: 0x100013470, symSize: 0x18 }
  - { offsetInCU: 0x16272E, offset: 0x16272E, size: 0x8, addend: 0x0, symName: __ZN5Eigen8internal9evaluatorIKNS_14CwiseNullaryOpINS0_18scalar_constant_opIfEEKNS_6MatrixIfLin1ELi1ELi0ELi3ELi1EEEEEEC1ERS9_, symObjAddr: 0xF19C, symBinAddr: 0x100013488, symSize: 0x34 }
  - { offsetInCU: 0x162766, offset: 0x162766, size: 0x8, addend: 0x0, symName: __ZN5Eigen8internal9evaluatorIKNS_14CwiseNullaryOpINS0_18scalar_constant_opIfEEKNS_6MatrixIfLin1ELi1ELi0ELi3ELi1EEEEEEC2ERS9_, symObjAddr: 0xF1D0, symBinAddr: 0x1000134BC, symSize: 0x34 }
  - { offsetInCU: 0x16279E, offset: 0x16279E, size: 0x8, addend: 0x0, symName: __ZN5Eigen8internal9evaluatorINS_14CwiseNullaryOpINS0_18scalar_constant_opIfEEKNS_6MatrixIfLin1ELi1ELi0ELi3ELi1EEEEEEC2ERKS8_, symObjAddr: 0xF204, symBinAddr: 0x1000134F0, symSize: 0x74 }
  - { offsetInCU: 0x1627D7, offset: 0x1627D7, size: 0x8, addend: 0x0, symName: __ZN5Eigen8internal14evaluator_baseINS_14CwiseNullaryOpINS0_18scalar_constant_opIfEEKNS_6MatrixIfLin1ELi1ELi0ELi3ELi1EEEEEEC2Ev, symObjAddr: 0xF278, symBinAddr: 0x100013564, symSize: 0x14 }
  - { offsetInCU: 0x162801, offset: 0x162801, size: 0x8, addend: 0x0, symName: __ZNK5Eigen14CwiseNullaryOpINS_8internal18scalar_constant_opIfEEKNS_6MatrixIfLin1ELi1ELi0ELi3ELi1EEEE7functorEv, symObjAddr: 0xF28C, symBinAddr: 0x100013578, symSize: 0x18 }
  - { offsetInCU: 0x162827, offset: 0x162827, size: 0x8, addend: 0x0, symName: __ZN5Eigen8internal14evaluator_baseINS_14CwiseNullaryOpINS0_18scalar_constant_opIfEEKNS_6MatrixIfLin1ELi1ELi0ELi3ELi1EEEEEED2Ev, symObjAddr: 0xF2A4, symBinAddr: 0x100013590, symSize: 0x14 }
  - { offsetInCU: 0x162851, offset: 0x162851, size: 0x8, addend: 0x0, symName: __ZNK5Eigen13CwiseBinaryOpINS_8internal18scalar_quotient_opIffEEKNS_5BlockIKNS4_INS4_INS_6MatrixIfLi3ELi3ELi0ELi3ELi3EEELi3ELi1ELb1EEELin1ELi1ELb0EEELin1ELi1ELb0EEEKNS_14CwiseNullaryOpINS1_18scalar_constant_opIfEEKNS5_IfLin1ELi1ELi0ELi3ELi1EEEEEE4rowsEv, symObjAddr: 0xF2B8, symBinAddr: 0x1000135A4, symSize: 0x28 }
  - { offsetInCU: 0x162877, offset: 0x162877, size: 0x8, addend: 0x0, symName: __ZNK5Eigen13CwiseBinaryOpINS_8internal18scalar_quotient_opIffEEKNS_5BlockIKNS4_INS4_INS_6MatrixIfLi3ELi3ELi0ELi3ELi3EEELi3ELi1ELb1EEELin1ELi1ELb0EEELin1ELi1ELb0EEEKNS_14CwiseNullaryOpINS1_18scalar_constant_opIfEEKNS5_IfLin1ELi1ELi0ELi3ELi1EEEEEE4colsEv, symObjAddr: 0xF2E0, symBinAddr: 0x1000135CC, symSize: 0x24 }
  - { offsetInCU: 0x16289D, offset: 0x16289D, size: 0x8, addend: 0x0, symName: __ZN5Eigen8internal31generic_dense_assignment_kernelINS0_9evaluatorINS_5BlockINS3_INS3_INS_6MatrixIfLi3ELi3ELi0ELi3ELi3EEELi3ELi1ELb1EEELin1ELi1ELb0EEELin1ELi1ELb0EEEEENS2_INS_13CwiseBinaryOpINS0_18scalar_quotient_opIffEEKNS3_IKS7_Lin1ELi1ELb0EEEKNS_14CwiseNullaryOpINS0_18scalar_constant_opIfEEKNS4_IfLin1ELi1ELi0ELi3ELi1EEEEEEEEENS0_9assign_opIffEELi0EEC2ERS9_RKSO_RKSQ_RS8_, symObjAddr: 0xF304, symBinAddr: 0x1000135F0, symSize: 0x44 }
  - { offsetInCU: 0x162903, offset: 0x162903, size: 0x8, addend: 0x0, symName: __ZNK5Eigen8internal31generic_dense_assignment_kernelINS0_9evaluatorINS_5BlockINS3_INS3_INS_6MatrixIfLi3ELi3ELi0ELi3ELi3EEELi3ELi1ELb1EEELin1ELi1ELb0EEELin1ELi1ELb0EEEEENS2_INS_13CwiseBinaryOpINS0_18scalar_quotient_opIffEEKNS3_IKS7_Lin1ELi1ELb0EEEKNS_14CwiseNullaryOpINS0_18scalar_constant_opIfEEKNS4_IfLin1ELi1ELi0ELi3ELi1EEEEEEEEENS0_9assign_opIffEELi0EE4sizeEv, symObjAddr: 0xF348, symBinAddr: 0x100013634, symSize: 0x28 }
  - { offsetInCU: 0x162929, offset: 0x162929, size: 0x8, addend: 0x0, symName: __ZNK5Eigen8internal31generic_dense_assignment_kernelINS0_9evaluatorINS_5BlockINS3_INS3_INS_6MatrixIfLi3ELi3ELi0ELi3ELi3EEELi3ELi1ELb1EEELin1ELi1ELb0EEELin1ELi1ELb0EEEEENS2_INS_13CwiseBinaryOpINS0_18scalar_quotient_opIffEEKNS3_IKS7_Lin1ELi1ELb0EEEKNS_14CwiseNullaryOpINS0_18scalar_constant_opIfEEKNS4_IfLin1ELi1ELi0ELi3ELi1EEEEEEEEENS0_9assign_opIffEELi0EE10dstDataPtrEv, symObjAddr: 0xF370, symBinAddr: 0x10001365C, symSize: 0x28 }
  - { offsetInCU: 0x16294F, offset: 0x16294F, size: 0x8, addend: 0x0, symName: __ZN5Eigen8internal31unaligned_dense_assignment_loopILb0EE3runINS0_31generic_dense_assignment_kernelINS0_9evaluatorINS_5BlockINS6_INS6_INS_6MatrixIfLi3ELi3ELi0ELi3ELi3EEELi3ELi1ELb1EEELin1ELi1ELb0EEELin1ELi1ELb0EEEEENS5_INS_13CwiseBinaryOpINS0_18scalar_quotient_opIffEEKNS6_IKSA_Lin1ELi1ELb0EEEKNS_14CwiseNullaryOpINS0_18scalar_constant_opIfEEKNS7_IfLin1ELi1ELi0ELi3ELi1EEEEEEEEENS0_9assign_opIffEELi0EEEEEvRT_ll, symObjAddr: 0xF398, symBinAddr: 0x100013684, symSize: 0x68 }
  - { offsetInCU: 0x1629B7, offset: 0x1629B7, size: 0x8, addend: 0x0, symName: __ZN5Eigen8internal31generic_dense_assignment_kernelINS0_9evaluatorINS_5BlockINS3_INS3_INS_6MatrixIfLi3ELi3ELi0ELi3ELi3EEELi3ELi1ELb1EEELin1ELi1ELb0EEELin1ELi1ELb0EEEEENS2_INS_13CwiseBinaryOpINS0_18scalar_quotient_opIffEEKNS3_IKS7_Lin1ELi1ELb0EEEKNS_14CwiseNullaryOpINS0_18scalar_constant_opIfEEKNS4_IfLin1ELi1ELi0ELi3ELi1EEEEEEEEENS0_9assign_opIffEELi0EE12assignPacketILi16ELi0E19__simd128_float32_tEEvl, symObjAddr: 0xF400, symBinAddr: 0x1000136EC, symSize: 0x64 }
  - { offsetInCU: 0x162A09, offset: 0x162A09, size: 0x8, addend: 0x0, symName: __ZN5Eigen8internal31generic_dense_assignment_kernelINS0_9evaluatorINS_5BlockINS3_INS3_INS_6MatrixIfLi3ELi3ELi0ELi3ELi3EEELi3ELi1ELb1EEELin1ELi1ELb0EEELin1ELi1ELb0EEEEENS2_INS_13CwiseBinaryOpINS0_18scalar_quotient_opIffEEKNS3_IKS7_Lin1ELi1ELb0EEEKNS_14CwiseNullaryOpINS0_18scalar_constant_opIfEEKNS4_IfLin1ELi1ELi0ELi3ELi1EEEEEEEEENS0_9assign_opIffEELi0EE11assignCoeffEl, symObjAddr: 0xF464, symBinAddr: 0x100013750, symSize: 0x64 }
  - { offsetInCU: 0x162A3E, offset: 0x162A3E, size: 0x8, addend: 0x0, symName: __ZNK5Eigen8internal16binary_evaluatorINS_13CwiseBinaryOpINS0_18scalar_quotient_opIffEEKNS_5BlockIKNS5_INS5_INS_6MatrixIfLi3ELi3ELi0ELi3ELi3EEELi3ELi1ELb1EEELin1ELi1ELb0EEELin1ELi1ELb0EEEKNS_14CwiseNullaryOpINS0_18scalar_constant_opIfEEKNS6_IfLin1ELi1ELi0ELi3ELi1EEEEEEENS0_10IndexBasedESL_ffE5coeffEl, symObjAddr: 0xF4C8, symBinAddr: 0x1000137B4, symSize: 0x70 }
  - { offsetInCU: 0x162A73, offset: 0x162A73, size: 0x8, addend: 0x0, symName: __ZNK5Eigen8internal16binary_evaluatorINS_13CwiseBinaryOpINS0_18scalar_quotient_opIffEEKNS_5BlockIKNS5_INS5_INS_6MatrixIfLi3ELi3ELi0ELi3ELi3EEELi3ELi1ELb1EEELin1ELi1ELb0EEELin1ELi1ELb0EEEKNS_14CwiseNullaryOpINS0_18scalar_constant_opIfEEKNS6_IfLin1ELi1ELi0ELi3ELi1EEEEEEENS0_10IndexBasedESL_ffE4Data4funcEv, symObjAddr: 0xF538, symBinAddr: 0x100013824, symSize: 0x14 }
  - { offsetInCU: 0x162A99, offset: 0x162A99, size: 0x8, addend: 0x0, symName: __ZNK5Eigen8internal18scalar_quotient_opIffEclERKfS4_, symObjAddr: 0xF54C, symBinAddr: 0x100013838, symSize: 0x2C }
  - { offsetInCU: 0x162AE7, offset: 0x162AE7, size: 0x8, addend: 0x0, symName: __ZNK5Eigen8internal9evaluatorINS_14CwiseNullaryOpINS0_18scalar_constant_opIfEEKNS_6MatrixIfLin1ELi1ELi0ELi3ELi1EEEEEE5coeffIlEEfT_, symObjAddr: 0xF578, symBinAddr: 0x100013864, symSize: 0x38 }
  - { offsetInCU: 0x162B25, offset: 0x162B25, size: 0x8, addend: 0x0, symName: __ZNK5Eigen8internal16binary_evaluatorINS_13CwiseBinaryOpINS0_18scalar_quotient_opIffEEKNS_5BlockIKNS5_INS5_INS_6MatrixIfLi3ELi3ELi0ELi3ELi3EEELi3ELi1ELb1EEELin1ELi1ELb0EEELin1ELi1ELb0EEEKNS_14CwiseNullaryOpINS0_18scalar_constant_opIfEEKNS6_IfLin1ELi1ELi0ELi3ELi1EEEEEEENS0_10IndexBasedESL_ffE6packetILi0E19__simd128_float32_tEET0_l, symObjAddr: 0xF5B0, symBinAddr: 0x10001389C, symSize: 0x70 }
  - { offsetInCU: 0x162B6D, offset: 0x162B6D, size: 0x8, addend: 0x0, symName: __ZNK5Eigen8internal18scalar_quotient_opIffE8packetOpI19__simd128_float32_tEEKT_RS6_S7_, symObjAddr: 0xF620, symBinAddr: 0x10001390C, symSize: 0x30 }
  - { offsetInCU: 0x162BBA, offset: 0x162BBA, size: 0x8, addend: 0x0, symName: __ZNK5Eigen8internal9evaluatorINS_14CwiseNullaryOpINS0_18scalar_constant_opIfEEKNS_6MatrixIfLin1ELi1ELi0ELi3ELi1EEEEEE6packetILi0E19__simd128_float32_tlEET0_T1_, symObjAddr: 0xF650, symBinAddr: 0x10001393C, symSize: 0x38 }
  - { offsetInCU: 0x162C0B, offset: 0x162C0B, size: 0x8, addend: 0x0, symName: __ZN5Eigen8internal9evaluatorINS_13CwiseBinaryOpINS0_18scalar_quotient_opIffEEKNS_5BlockIKNS5_INS5_INS_6MatrixIfLi3ELi3ELi0ELi3ELi3EEELi3ELi1ELb1EEELin1ELi1ELb0EEELin1ELi1ELb0EEEKNS_14CwiseNullaryOpINS0_18scalar_constant_opIfEEKNS6_IfLin1ELi1ELi0ELi3ELi1EEEEEEEED2Ev, symObjAddr: 0xF6C8, symBinAddr: 0x1000139B4, symSize: 0x2C }
  - { offsetInCU: 0x162C38, offset: 0x162C38, size: 0x8, addend: 0x0, symName: __ZN5Eigen8internal16binary_evaluatorINS_13CwiseBinaryOpINS0_18scalar_quotient_opIffEEKNS_5BlockIKNS5_INS5_INS_6MatrixIfLi3ELi3ELi0ELi3ELi3EEELi3ELi1ELb1EEELin1ELi1ELb0EEELin1ELi1ELb0EEEKNS_14CwiseNullaryOpINS0_18scalar_constant_opIfEEKNS6_IfLin1ELi1ELi0ELi3ELi1EEEEEEENS0_10IndexBasedESL_ffED2Ev, symObjAddr: 0xF6F4, symBinAddr: 0x1000139E0, symSize: 0x34 }
  - { offsetInCU: 0x162C64, offset: 0x162C64, size: 0x8, addend: 0x0, symName: __ZN5Eigen8internal16binary_evaluatorINS_13CwiseBinaryOpINS0_18scalar_quotient_opIffEEKNS_5BlockIKNS5_INS5_INS_6MatrixIfLi3ELi3ELi0ELi3ELi3EEELi3ELi1ELb1EEELin1ELi1ELb0EEELin1ELi1ELb0EEEKNS_14CwiseNullaryOpINS0_18scalar_constant_opIfEEKNS6_IfLin1ELi1ELi0ELi3ELi1EEEEEEENS0_10IndexBasedESL_ffE4DataD1Ev, symObjAddr: 0xF728, symBinAddr: 0x100013A14, symSize: 0x2C }
  - { offsetInCU: 0x162C91, offset: 0x162C91, size: 0x8, addend: 0x0, symName: __ZN5Eigen8internal16binary_evaluatorINS_13CwiseBinaryOpINS0_18scalar_quotient_opIffEEKNS_5BlockIKNS5_INS5_INS_6MatrixIfLi3ELi3ELi0ELi3ELi3EEELi3ELi1ELb1EEELin1ELi1ELb0EEELin1ELi1ELb0EEEKNS_14CwiseNullaryOpINS0_18scalar_constant_opIfEEKNS6_IfLin1ELi1ELi0ELi3ELi1EEEEEEENS0_10IndexBasedESL_ffE4DataD2Ev, symObjAddr: 0xF754, symBinAddr: 0x100013A40, symSize: 0x3C }
  - { offsetInCU: 0x162CBE, offset: 0x162CBE, size: 0x8, addend: 0x0, symName: __ZN5Eigen8internal9evaluatorIKNS_14CwiseNullaryOpINS0_18scalar_constant_opIfEEKNS_6MatrixIfLin1ELi1ELi0ELi3ELi1EEEEEED1Ev, symObjAddr: 0xF790, symBinAddr: 0x100013A7C, symSize: 0x2C }
  - { offsetInCU: 0x162CEA, offset: 0x162CEA, size: 0x8, addend: 0x0, symName: __ZN5Eigen8internal9evaluatorIKNS_14CwiseNullaryOpINS0_18scalar_constant_opIfEEKNS_6MatrixIfLin1ELi1ELi0ELi3ELi1EEEEEED2Ev, symObjAddr: 0xF7BC, symBinAddr: 0x100013AA8, symSize: 0x2C }
  - { offsetInCU: 0x162D16, offset: 0x162D16, size: 0x8, addend: 0x0, symName: __ZN5Eigen8internal9evaluatorINS_14CwiseNullaryOpINS0_18scalar_constant_opIfEEKNS_6MatrixIfLin1ELi1ELi0ELi3ELi1EEEEEED2Ev, symObjAddr: 0xF7E8, symBinAddr: 0x100013AD4, symSize: 0x2C }
  - { offsetInCU: 0x162D42, offset: 0x162D42, size: 0x8, addend: 0x0, symName: __ZN5Eigen8internal17conj_default_implIfLb0EE3runERKf, symObjAddr: 0xF814, symBinAddr: 0x100013B00, symSize: 0x18 }
  - { offsetInCU: 0x162D65, offset: 0x162D65, size: 0x8, addend: 0x0, symName: __ZN5Eigen5BlockINS_6MatrixIfLi3ELi3ELi0ELi3ELi3EEELin1ELin1ELb0EEC1ERS2_llll, symObjAddr: 0xF82C, symBinAddr: 0x100013B18, symSize: 0x54 }
  - { offsetInCU: 0x162DD5, offset: 0x162DD5, size: 0x8, addend: 0x0, symName: __ZN5Eigen5BlockINS_6MatrixIfLi3ELi3ELi0ELi3ELi3EEELin1ELin1ELb0EEC2ERS2_llll, symObjAddr: 0xF880, symBinAddr: 0x100013B6C, symSize: 0x154 }
  - { offsetInCU: 0x162E45, offset: 0x162E45, size: 0x8, addend: 0x0, symName: __ZN5Eigen9BlockImplINS_6MatrixIfLi3ELi3ELi0ELi3ELi3EEELin1ELin1ELb0ENS_5DenseEEC2ERS2_llll, symObjAddr: 0xF9D4, symBinAddr: 0x100013CC0, symSize: 0x54 }
  - { offsetInCU: 0x162EB5, offset: 0x162EB5, size: 0x8, addend: 0x0, symName: __ZN5Eigen8internal15BlockImpl_denseINS_6MatrixIfLi3ELi3ELi0ELi3ELi3EEELin1ELin1ELb0ELb1EEC2ERS3_llll, symObjAddr: 0xFA28, symBinAddr: 0x100013D14, symSize: 0xC4 }
  - { offsetInCU: 0x162F2A, offset: 0x162F2A, size: 0x8, addend: 0x0, symName: __ZN5Eigen7MapBaseINS_5BlockINS_6MatrixIfLi3ELi3ELi0ELi3ELi3EEELin1ELin1ELb0EEELi1EEC2EPfll, symObjAddr: 0xFAEC, symBinAddr: 0x100013DD8, symSize: 0x44 }
  - { offsetInCU: 0x162F81, offset: 0x162F81, size: 0x8, addend: 0x0, symName: __ZN5Eigen8internal15BlockImpl_denseINS_6MatrixIfLi3ELi3ELi0ELi3ELi3EEELin1ELin1ELb0ELb1EE4initEv, symObjAddr: 0xFB30, symBinAddr: 0x100013E1C, symSize: 0x34 }
  - { offsetInCU: 0x162FA7, offset: 0x162FA7, size: 0x8, addend: 0x0, symName: __ZN5Eigen7MapBaseINS_5BlockINS_6MatrixIfLi3ELi3ELi0ELi3ELi3EEELin1ELin1ELb0EEELi0EEC2EPfll, symObjAddr: 0xFB64, symBinAddr: 0x100013E50, symSize: 0x110 }
  - { offsetInCU: 0x162FFB, offset: 0x162FFB, size: 0x8, addend: 0x0, symName: __ZN5Eigen10MatrixBaseINS_5BlockINS_6MatrixIfLi3ELi3ELi0ELi3ELi3EEELin1ELin1ELb0EEEEC2Ev, symObjAddr: 0xFC74, symBinAddr: 0x100013F60, symSize: 0x2C }
  - { offsetInCU: 0x163025, offset: 0x163025, size: 0x8, addend: 0x0, symName: __ZNK5Eigen7MapBaseINS_5BlockINS_6MatrixIfLi3ELi3ELi0ELi3ELi3EEELin1ELin1ELb0EEELi0EE11checkSanityIS4_EEvNS_8internal9enable_ifIXeqsr8internal6traitsIT_EE9AlignmentLi0EEPvE4typeE, symObjAddr: 0xFCA0, symBinAddr: 0x100013F8C, symSize: 0x14 }
  - { offsetInCU: 0x16305F, offset: 0x16305F, size: 0x8, addend: 0x0, symName: __ZN5Eigen9DenseBaseINS_5BlockINS_6MatrixIfLi3ELi3ELi0ELi3ELi3EEELin1ELin1ELb0EEEEC2Ev, symObjAddr: 0xFCB4, symBinAddr: 0x100013FA0, symSize: 0x14 }
  - { offsetInCU: 0x163089, offset: 0x163089, size: 0x8, addend: 0x0, symName: __ZNK5Eigen9EigenBaseINS_5BlockINS_6MatrixIfLi3ELi3ELi0ELi3ELi3EEELin1ELin1ELb0EEEE4rowsEv, symObjAddr: 0xFCC8, symBinAddr: 0x100013FB4, symSize: 0x38 }
  - { offsetInCU: 0x1630AF, offset: 0x1630AF, size: 0x8, addend: 0x0, symName: __ZN5Eigen9DenseBaseINS_5BlockINS_6MatrixIfLi3ELi3ELi0ELi3ELi3EEELin1ELin1ELb0EEEEmLERKf, symObjAddr: 0xFD00, symBinAddr: 0x100013FEC, symSize: 0x8C }
  - { offsetInCU: 0x1630E6, offset: 0x1630E6, size: 0x8, addend: 0x0, symName: __ZNK5Eigen9EigenBaseINS_5BlockINS_6MatrixIfLi3ELi3ELi0ELi3ELi3EEELin1ELin1ELb0EEEE4colsEv, symObjAddr: 0xFD8C, symBinAddr: 0x100014078, symSize: 0x28 }
  - { offsetInCU: 0x16310C, offset: 0x16310C, size: 0x8, addend: 0x0, symName: __ZN5Eigen6StrideILi0ELi0EEC1Ev, symObjAddr: 0xFDB4, symBinAddr: 0x1000140A0, symSize: 0x2C }
  - { offsetInCU: 0x163136, offset: 0x163136, size: 0x8, addend: 0x0, symName: __ZN5Eigen3MapINS_6MatrixIfLi1ELin1ELi1ELi1ELi3EEELi0ENS_6StrideILi0ELi0EEEEC1EPflRKS4_, symObjAddr: 0xFDE0, symBinAddr: 0x1000140CC, symSize: 0x44 }
  - { offsetInCU: 0x16318A, offset: 0x16318A, size: 0x8, addend: 0x0, symName: __ZN5Eigen9EigenBaseINS_5BlockINS_6MatrixIfLi3ELi3ELi0ELi3ELi3EEELin1ELin1ELb0EEEE7derivedEv, symObjAddr: 0xFE24, symBinAddr: 0x100014110, symSize: 0x14 }
  - { offsetInCU: 0x1631B0, offset: 0x1631B0, size: 0x8, addend: 0x0, symName: __ZN5Eigen5BlockINS0_INS_6MatrixIfLi3ELi3ELi0ELi3ELi3EEELin1ELin1ELb0EEELin1ELin1ELb0EEC1ERS3_llll, symObjAddr: 0xFE38, symBinAddr: 0x100014124, symSize: 0x54 }
  - { offsetInCU: 0x163220, offset: 0x163220, size: 0x8, addend: 0x0, symName: __ZNK5Eigen10MatrixBaseINS_5BlockINS1_INS_6MatrixIfLi3ELi3ELi0ELi3ELi3EEELi3ELi1ELb1EEELin1ELi1ELb0EEEE7adjointEv, symObjAddr: 0xFE8C, symBinAddr: 0x100014178, symSize: 0x24 }
  - { offsetInCU: 0x163248, offset: 0x163248, size: 0x8, addend: 0x0, symName: __ZNK5Eigen10MatrixBaseINS_9TransposeIKNS_5BlockINS2_INS_6MatrixIfLi3ELi3ELi0ELi3ELi3EEELi3ELi1ELb1EEELin1ELi1ELb0EEEEEEmlINS2_INS2_IS4_Lin1ELin1ELb0EEELin1ELin1ELb0EEEEEKNS_7ProductIS8_T_Li0EEERKNS0_ISE_EE, symObjAddr: 0xFEB0, symBinAddr: 0x10001419C, symSize: 0x48 }
  - { offsetInCU: 0x163288, offset: 0x163288, size: 0x8, addend: 0x0, symName: __ZN5Eigen10MatrixBaseINS_3MapINS_6MatrixIfLi1ELin1ELi1ELi1ELi3EEELi0ENS_6StrideILi0ELi0EEEEEE7noaliasEv, symObjAddr: 0xFEF8, symBinAddr: 0x1000141E4, symSize: 0x34 }
  - { offsetInCU: 0x1632B0, offset: 0x1632B0, size: 0x8, addend: 0x0, symName: __ZN5Eigen7NoAliasINS_3MapINS_6MatrixIfLi1ELin1ELi1ELi1ELi3EEELi0ENS_6StrideILi0ELi0EEEEENS_10MatrixBaseEEaSINS_7ProductINS_9TransposeIKNS_5BlockINSC_INS2_IfLi3ELi3ELi0ELi3ELi3EEELi3ELi1ELb1EEELin1ELi1ELb0EEEEENSC_INSC_ISD_Lin1ELin1ELb0EEELin1ELin1ELb0EEELi0EEEEERS6_RKNS7_IT_EE, symObjAddr: 0xFF2C, symBinAddr: 0x100014218, symSize: 0x60 }
  - { offsetInCU: 0x1632ED, offset: 0x1632ED, size: 0x8, addend: 0x0, symName: __ZN5Eigen9DenseBaseINS_5BlockINS_6MatrixIfLi3ELi3ELi0ELi3ELi3EEELin1ELin1ELb0EEEE3rowEl, symObjAddr: 0xFF8C, symBinAddr: 0x100014278, symSize: 0x3C }
  - { offsetInCU: 0x163322, offset: 0x163322, size: 0x8, addend: 0x0, symName: __ZN5Eigen10MatrixBaseINS_3MapINS_6MatrixIfLi1ELin1ELi1ELi1ELi3EEELi0ENS_6StrideILi0ELi0EEEEEEpLINS_5BlockINS9_INS2_IfLi3ELi3ELi0ELi3ELi3EEELin1ELin1ELb0EEELi1ELin1ELb0EEEEERS6_RKNS0_IT_EE, symObjAddr: 0xFFC8, symBinAddr: 0x1000142B4, symSize: 0x64 }
  - { offsetInCU: 0x163361, offset: 0x163361, size: 0x8, addend: 0x0, symName: __ZN5Eigen10MatrixBaseINS_5BlockINS1_INS_6MatrixIfLi3ELi3ELi0ELi3ELi3EEELin1ELin1ELb0EEELi1ELin1ELb0EEEEmIINS_13CwiseBinaryOpINS_8internal17scalar_product_opIffEEKNS_14CwiseNullaryOpINS9_18scalar_constant_opIfEEKNS2_IfLi1ELin1ELi1ELi1ELi3EEEEEKNS_3MapISF_Li0ENS_6StrideILi0ELi0EEEEEEEEERS5_RKNS0_IT_EE, symObjAddr: 0x100C8, symBinAddr: 0x1000143B4, symSize: 0x64 }
  - { offsetInCU: 0x1633A0, offset: 0x1633A0, size: 0x8, addend: 0x0, symName: __ZNK5Eigen10MatrixBaseINS_13CwiseBinaryOpINS_8internal17scalar_product_opIffEEKNS_14CwiseNullaryOpINS2_18scalar_constant_opIfEEKNS_6MatrixIfLin1ELi1ELi0ELi3ELi1EEEEEKNS_5BlockINSD_INS8_IfLi3ELi3ELi0ELi3ELi3EEELi3ELi1ELb1EEELin1ELi1ELb0EEEEEEmlINS_3MapINS8_IfLi1ELin1ELi1ELi1ELi3EEELi0ENS_6StrideILi0ELi0EEEEEEEKNS_7ProductISI_T_Li0EEERKNS0_ISR_EE, symObjAddr: 0x101C8, symBinAddr: 0x1000144B4, symSize: 0x4C }
  - { offsetInCU: 0x1633E0, offset: 0x1633E0, size: 0x8, addend: 0x0, symName: __ZN5Eigen10MatrixBaseINS_5BlockINS1_INS_6MatrixIfLi3ELi3ELi0ELi3ELi3EEELin1ELin1ELb0EEELin1ELin1ELb0EEEE7noaliasEv, symObjAddr: 0x10214, symBinAddr: 0x100014500, symSize: 0x34 }
  - { offsetInCU: 0x163408, offset: 0x163408, size: 0x8, addend: 0x0, symName: __ZN5Eigen7NoAliasINS_5BlockINS1_INS_6MatrixIfLi3ELi3ELi0ELi3ELi3EEELin1ELin1ELb0EEELin1ELin1ELb0EEENS_10MatrixBaseEEmIINS_7ProductINS_13CwiseBinaryOpINS_8internal17scalar_product_opIffEEKNS_14CwiseNullaryOpINSB_18scalar_constant_opIfEEKNS2_IfLin1ELi1ELi0ELi3ELi1EEEEEKNS1_INS1_IS3_Li3ELi1ELb1EEELin1ELi1ELb0EEEEENS_3MapINS2_IfLi1ELin1ELi1ELi1ELi3EEELi0ENS_6StrideILi0ELi0EEEEELi0EEEEERS5_RKNS6_IT_EE, symObjAddr: 0x10248, symBinAddr: 0x100014534, symSize: 0x60 }
  - { offsetInCU: 0x163445, offset: 0x163445, size: 0x8, addend: 0x0, symName: __ZNK5Eigen9EigenBaseINS_5BlockINS_6MatrixIfLi3ELi3ELi0ELi3ELi3EEELin1ELin1ELb0EEEE7derivedEv, symObjAddr: 0x102A8, symBinAddr: 0x100014594, symSize: 0x14 }
  - { offsetInCU: 0x16346B, offset: 0x16346B, size: 0x8, addend: 0x0, symName: __ZNK5Eigen7MapBaseINS_5BlockINS_6MatrixIfLi3ELi3ELi0ELi3ELi3EEELin1ELin1ELb0EEELi0EE4rowsEv, symObjAddr: 0x102BC, symBinAddr: 0x1000145A8, symSize: 0x28 }
  - { offsetInCU: 0x163491, offset: 0x163491, size: 0x8, addend: 0x0, symName: __ZN5Eigen9DenseBaseINS_6MatrixIfLin1ELin1ELi0ELi3ELi3EEEE8ConstantEllRKf, symObjAddr: 0x1031C, symBinAddr: 0x100014608, symSize: 0x60 }
  - { offsetInCU: 0x1634E9, offset: 0x1634E9, size: 0x8, addend: 0x0, symName: __ZN5Eigen8internal13mul_assign_opIffEC1Ev, symObjAddr: 0x1037C, symBinAddr: 0x100014668, symSize: 0x2C }
  - { offsetInCU: 0x163513, offset: 0x163513, size: 0x8, addend: 0x0, symName: __ZN5Eigen8internal10AssignmentINS_5BlockINS_6MatrixIfLi3ELi3ELi0ELi3ELi3EEELin1ELin1ELb0EEENS_14CwiseNullaryOpINS0_18scalar_constant_opIfEENS3_IfLin1ELin1ELi0ELi3ELi3EEEEENS0_13mul_assign_opIffEENS0_11Dense2DenseEvE3runERS5_RKSA_RKSC_, symObjAddr: 0x103E4, symBinAddr: 0x1000146D0, symSize: 0x40 }
  - { offsetInCU: 0x163555, offset: 0x163555, size: 0x8, addend: 0x0, symName: __ZNK5Eigen7MapBaseINS_5BlockINS_6MatrixIfLi3ELi3ELi0ELi3ELi3EEELin1ELin1ELb0EEELi0EE4colsEv, symObjAddr: 0x10564, symBinAddr: 0x100014850, symSize: 0x28 }
  - { offsetInCU: 0x16357B, offset: 0x16357B, size: 0x8, addend: 0x0, symName: __ZN5Eigen8internal27checkTransposeAliasing_implINS_5BlockINS_6MatrixIfLi3ELi3ELi0ELi3ELi3EEELin1ELin1ELb0EEENS_14CwiseNullaryOpINS0_18scalar_constant_opIfEENS3_IfLin1ELin1ELi0ELi3ELi3EEEEELb0EE3runERKS5_RKSA_, symObjAddr: 0x1058C, symBinAddr: 0x100014878, symSize: 0x14 }
  - { offsetInCU: 0x1635C4, offset: 0x1635C4, size: 0x8, addend: 0x0, symName: __ZN5Eigen8internal9evaluatorINS_14CwiseNullaryOpINS0_18scalar_constant_opIfEENS_6MatrixIfLin1ELin1ELi0ELi3ELi3EEEEEEC1ERKS7_, symObjAddr: 0x105A0, symBinAddr: 0x10001488C, symSize: 0x34 }
  - { offsetInCU: 0x16361B, offset: 0x16361B, size: 0x8, addend: 0x0, symName: __ZN5Eigen8internal9evaluatorINS_5BlockINS_6MatrixIfLi3ELi3ELi0ELi3ELi3EEELin1ELin1ELb0EEEEC1ERKS5_, symObjAddr: 0x10688, symBinAddr: 0x100014974, symSize: 0x34 }
  - { offsetInCU: 0x163654, offset: 0x163654, size: 0x8, addend: 0x0, symName: __ZNK5Eigen9EigenBaseINS_5BlockINS_6MatrixIfLi3ELi3ELi0ELi3ELi3EEELin1ELin1ELb0EEEE18const_cast_derivedEv, symObjAddr: 0x106BC, symBinAddr: 0x1000149A8, symSize: 0x14 }
  - { offsetInCU: 0x1636A7, offset: 0x1636A7, size: 0x8, addend: 0x0, symName: __ZN5Eigen8internal31generic_dense_assignment_kernelINS0_9evaluatorINS_5BlockINS_6MatrixIfLi3ELi3ELi0ELi3ELi3EEELin1ELin1ELb0EEEEENS2_INS_14CwiseNullaryOpINS0_18scalar_constant_opIfEENS4_IfLin1ELin1ELi0ELi3ELi3EEEEEEENS0_13mul_assign_opIffEELi0EEC1ERS7_RKSD_RKSF_RS6_, symObjAddr: 0x106D0, symBinAddr: 0x1000149BC, symSize: 0x4C }
  - { offsetInCU: 0x163712, offset: 0x163712, size: 0x8, addend: 0x0, symName: __ZN5Eigen8internal21dense_assignment_loopINS0_31generic_dense_assignment_kernelINS0_9evaluatorINS_5BlockINS_6MatrixIfLi3ELi3ELi0ELi3ELi3EEELin1ELin1ELb0EEEEENS3_INS_14CwiseNullaryOpINS0_18scalar_constant_opIfEENS5_IfLin1ELin1ELi0ELi3ELi3EEEEEEENS0_13mul_assign_opIffEELi0EEELi0ELi0EE3runERSH_, symObjAddr: 0x1071C, symBinAddr: 0x100014A08, symSize: 0xAC }
  - { offsetInCU: 0x163770, offset: 0x163770, size: 0x8, addend: 0x0, symName: __ZN5Eigen8internal9evaluatorINS_5BlockINS_6MatrixIfLi3ELi3ELi0ELi3ELi3EEELin1ELin1ELb0EEEED1Ev, symObjAddr: 0x107C8, symBinAddr: 0x100014AB4, symSize: 0x2C }
  - { offsetInCU: 0x16379D, offset: 0x16379D, size: 0x8, addend: 0x0, symName: __ZN5Eigen8internal9evaluatorINS_14CwiseNullaryOpINS0_18scalar_constant_opIfEENS_6MatrixIfLin1ELin1ELi0ELi3ELi3EEEEEED1Ev, symObjAddr: 0x107F4, symBinAddr: 0x100014AE0, symSize: 0x2C }
  - { offsetInCU: 0x1637C9, offset: 0x1637C9, size: 0x8, addend: 0x0, symName: __ZN5Eigen8internal9evaluatorINS_14CwiseNullaryOpINS0_18scalar_constant_opIfEENS_6MatrixIfLin1ELin1ELi0ELi3ELi3EEEEEEC2ERKS7_, symObjAddr: 0x10820, symBinAddr: 0x100014B0C, symSize: 0x74 }
  - { offsetInCU: 0x163802, offset: 0x163802, size: 0x8, addend: 0x0, symName: __ZN5Eigen8internal14evaluator_baseINS_14CwiseNullaryOpINS0_18scalar_constant_opIfEENS_6MatrixIfLin1ELin1ELi0ELi3ELi3EEEEEEC2Ev, symObjAddr: 0x10894, symBinAddr: 0x100014B80, symSize: 0x14 }
  - { offsetInCU: 0x16382C, offset: 0x16382C, size: 0x8, addend: 0x0, symName: __ZNK5Eigen14CwiseNullaryOpINS_8internal18scalar_constant_opIfEENS_6MatrixIfLin1ELin1ELi0ELi3ELi3EEEE7functorEv, symObjAddr: 0x108A8, symBinAddr: 0x100014B94, symSize: 0x18 }
  - { offsetInCU: 0x163852, offset: 0x163852, size: 0x8, addend: 0x0, symName: __ZN5Eigen8internal14evaluator_baseINS_14CwiseNullaryOpINS0_18scalar_constant_opIfEENS_6MatrixIfLin1ELin1ELi0ELi3ELi3EEEEEED2Ev, symObjAddr: 0x108C0, symBinAddr: 0x100014BAC, symSize: 0x14 }
  - { offsetInCU: 0x16387C, offset: 0x16387C, size: 0x8, addend: 0x0, symName: __ZNK5Eigen14CwiseNullaryOpINS_8internal18scalar_constant_opIfEENS_6MatrixIfLin1ELin1ELi0ELi3ELi3EEEE4rowsEv, symObjAddr: 0x108D4, symBinAddr: 0x100014BC0, symSize: 0x24 }
  - { offsetInCU: 0x1638A2, offset: 0x1638A2, size: 0x8, addend: 0x0, symName: __ZNK5Eigen14CwiseNullaryOpINS_8internal18scalar_constant_opIfEENS_6MatrixIfLin1ELin1ELi0ELi3ELi3EEEE4colsEv, symObjAddr: 0x108F8, symBinAddr: 0x100014BE4, symSize: 0x28 }
  - { offsetInCU: 0x1638C8, offset: 0x1638C8, size: 0x8, addend: 0x0, symName: __ZN5Eigen8internal9evaluatorINS_5BlockINS_6MatrixIfLi3ELi3ELi0ELi3ELi3EEELin1ELin1ELb0EEEEC2ERKS5_, symObjAddr: 0x10920, symBinAddr: 0x100014C0C, symSize: 0x34 }
  - { offsetInCU: 0x163901, offset: 0x163901, size: 0x8, addend: 0x0, symName: __ZN5Eigen8internal15block_evaluatorINS_6MatrixIfLi3ELi3ELi0ELi3ELi3EEELin1ELin1ELb0ELb1EEC2ERKNS_5BlockIS3_Lin1ELin1ELb0EEE, symObjAddr: 0x10954, symBinAddr: 0x100014C40, symSize: 0xDC }
  - { offsetInCU: 0x16393A, offset: 0x16393A, size: 0x8, addend: 0x0, symName: __ZN5Eigen8internal17mapbase_evaluatorINS_5BlockINS_6MatrixIfLi3ELi3ELi0ELi3ELi3EEELin1ELin1ELb0EEENS3_IfLin1ELin1ELi0ELi3ELi3EEEEC2ERKS5_, symObjAddr: 0x10A30, symBinAddr: 0x100014D1C, symSize: 0xB4 }
  - { offsetInCU: 0x163973, offset: 0x163973, size: 0x8, addend: 0x0, symName: __ZNK5Eigen7MapBaseINS_5BlockINS_6MatrixIfLi3ELi3ELi0ELi3ELi3EEELin1ELin1ELb0EEELi1EE4dataEv, symObjAddr: 0x10AE4, symBinAddr: 0x100014DD0, symSize: 0x18 }
  - { offsetInCU: 0x163999, offset: 0x163999, size: 0x8, addend: 0x0, symName: __ZN5Eigen8internal17mapbase_evaluatorINS_5BlockINS_6MatrixIfLi3ELi3ELi0ELi3ELi3EEELin1ELin1ELb0EEENS3_IfLin1ELin1ELi0ELi3ELi3EEEED2Ev, symObjAddr: 0x10AFC, symBinAddr: 0x100014DE8, symSize: 0x2C }
  - { offsetInCU: 0x1639C6, offset: 0x1639C6, size: 0x8, addend: 0x0, symName: __ZN5Eigen8internal14evaluator_baseINS_5BlockINS_6MatrixIfLi3ELi3ELi0ELi3ELi3EEELin1ELin1ELb0EEEEC2Ev, symObjAddr: 0x10B28, symBinAddr: 0x100014E14, symSize: 0x14 }
  - { offsetInCU: 0x1639F0, offset: 0x1639F0, size: 0x8, addend: 0x0, symName: __ZNK5Eigen8internal15BlockImpl_denseINS_6MatrixIfLi3ELi3ELi0ELi3ELi3EEELin1ELin1ELb0ELb1EE11innerStrideEv, symObjAddr: 0x10B3C, symBinAddr: 0x100014E28, symSize: 0x28 }
  - { offsetInCU: 0x163A16, offset: 0x163A16, size: 0x8, addend: 0x0, symName: __ZNK5Eigen8internal15BlockImpl_denseINS_6MatrixIfLi3ELi3ELi0ELi3ELi3EEELin1ELin1ELb0ELb1EE11outerStrideEv, symObjAddr: 0x10B64, symBinAddr: 0x100014E50, symSize: 0x28 }
  - { offsetInCU: 0x163A3C, offset: 0x163A3C, size: 0x8, addend: 0x0, symName: __ZN5Eigen8internal14evaluator_baseINS_5BlockINS_6MatrixIfLi3ELi3ELi0ELi3ELi3EEELin1ELin1ELb0EEEED2Ev, symObjAddr: 0x10B8C, symBinAddr: 0x100014E78, symSize: 0x14 }
  - { offsetInCU: 0x163A66, offset: 0x163A66, size: 0x8, addend: 0x0, symName: __ZN5Eigen8internal31generic_dense_assignment_kernelINS0_9evaluatorINS_5BlockINS_6MatrixIfLi3ELi3ELi0ELi3ELi3EEELin1ELin1ELb0EEEEENS2_INS_14CwiseNullaryOpINS0_18scalar_constant_opIfEENS4_IfLin1ELin1ELi0ELi3ELi3EEEEEEENS0_13mul_assign_opIffEELi0EEC2ERS7_RKSD_RKSF_RS6_, symObjAddr: 0x10BA0, symBinAddr: 0x100014E8C, symSize: 0x44 }
  - { offsetInCU: 0x163ACC, offset: 0x163ACC, size: 0x8, addend: 0x0, symName: __ZNK5Eigen8internal31generic_dense_assignment_kernelINS0_9evaluatorINS_5BlockINS_6MatrixIfLi3ELi3ELi0ELi3ELi3EEELin1ELin1ELb0EEEEENS2_INS_14CwiseNullaryOpINS0_18scalar_constant_opIfEENS4_IfLin1ELin1ELi0ELi3ELi3EEEEEEENS0_13mul_assign_opIffEELi0EE9outerSizeEv, symObjAddr: 0x10BE4, symBinAddr: 0x100014ED0, symSize: 0x38 }
  - { offsetInCU: 0x163AF2, offset: 0x163AF2, size: 0x8, addend: 0x0, symName: __ZNK5Eigen8internal31generic_dense_assignment_kernelINS0_9evaluatorINS_5BlockINS_6MatrixIfLi3ELi3ELi0ELi3ELi3EEELin1ELin1ELb0EEEEENS2_INS_14CwiseNullaryOpINS0_18scalar_constant_opIfEENS4_IfLin1ELin1ELi0ELi3ELi3EEEEEEENS0_13mul_assign_opIffEELi0EE9innerSizeEv, symObjAddr: 0x10C1C, symBinAddr: 0x100014F08, symSize: 0x38 }
  - { offsetInCU: 0x163B18, offset: 0x163B18, size: 0x8, addend: 0x0, symName: __ZN5Eigen8internal31generic_dense_assignment_kernelINS0_9evaluatorINS_5BlockINS_6MatrixIfLi3ELi3ELi0ELi3ELi3EEELin1ELin1ELb0EEEEENS2_INS_14CwiseNullaryOpINS0_18scalar_constant_opIfEENS4_IfLin1ELin1ELi0ELi3ELi3EEEEEEENS0_13mul_assign_opIffEELi0EE23assignCoeffByOuterInnerEll, symObjAddr: 0x10C54, symBinAddr: 0x100014F40, symSize: 0x60 }
  - { offsetInCU: 0x163B7A, offset: 0x163B7A, size: 0x8, addend: 0x0, symName: __ZNK5Eigen9DenseBaseINS_5BlockINS_6MatrixIfLi3ELi3ELi0ELi3ELi3EEELin1ELin1ELb0EEEE9outerSizeEv, symObjAddr: 0x10CB4, symBinAddr: 0x100014FA0, symSize: 0x24 }
  - { offsetInCU: 0x163BA0, offset: 0x163BA0, size: 0x8, addend: 0x0, symName: __ZNK5Eigen9DenseBaseINS_5BlockINS_6MatrixIfLi3ELi3ELi0ELi3ELi3EEELin1ELin1ELb0EEEE9innerSizeEv, symObjAddr: 0x10CD8, symBinAddr: 0x100014FC4, symSize: 0x24 }
  - { offsetInCU: 0x163BC6, offset: 0x163BC6, size: 0x8, addend: 0x0, symName: __ZN5Eigen8internal31generic_dense_assignment_kernelINS0_9evaluatorINS_5BlockINS_6MatrixIfLi3ELi3ELi0ELi3ELi3EEELin1ELin1ELb0EEEEENS2_INS_14CwiseNullaryOpINS0_18scalar_constant_opIfEENS4_IfLin1ELin1ELi0ELi3ELi3EEEEEEENS0_13mul_assign_opIffEELi0EE20rowIndexByOuterInnerEll, symObjAddr: 0x10CFC, symBinAddr: 0x100014FE8, symSize: 0x18 }
  - { offsetInCU: 0x163BF9, offset: 0x163BF9, size: 0x8, addend: 0x0, symName: __ZN5Eigen8internal31generic_dense_assignment_kernelINS0_9evaluatorINS_5BlockINS_6MatrixIfLi3ELi3ELi0ELi3ELi3EEELin1ELin1ELb0EEEEENS2_INS_14CwiseNullaryOpINS0_18scalar_constant_opIfEENS4_IfLin1ELin1ELi0ELi3ELi3EEEEEEENS0_13mul_assign_opIffEELi0EE20colIndexByOuterInnerEll, symObjAddr: 0x10D14, symBinAddr: 0x100015000, symSize: 0x18 }
  - { offsetInCU: 0x163C2C, offset: 0x163C2C, size: 0x8, addend: 0x0, symName: __ZN5Eigen8internal31generic_dense_assignment_kernelINS0_9evaluatorINS_5BlockINS_6MatrixIfLi3ELi3ELi0ELi3ELi3EEELin1ELin1ELb0EEEEENS2_INS_14CwiseNullaryOpINS0_18scalar_constant_opIfEENS4_IfLin1ELin1ELi0ELi3ELi3EEEEEEENS0_13mul_assign_opIffEELi0EE11assignCoeffEll, symObjAddr: 0x10D2C, symBinAddr: 0x100015018, symSize: 0x70 }
  - { offsetInCU: 0x163C70, offset: 0x163C70, size: 0x8, addend: 0x0, symName: __ZNK5Eigen8internal13mul_assign_opIffE11assignCoeffERfRKf, symObjAddr: 0x10D9C, symBinAddr: 0x100015088, symSize: 0x30 }
  - { offsetInCU: 0x163CB2, offset: 0x163CB2, size: 0x8, addend: 0x0, symName: __ZN5Eigen8internal17mapbase_evaluatorINS_5BlockINS_6MatrixIfLi3ELi3ELi0ELi3ELi3EEELin1ELin1ELb0EEENS3_IfLin1ELin1ELi0ELi3ELi3EEEE8coeffRefEll, symObjAddr: 0x10DCC, symBinAddr: 0x1000150B8, symSize: 0x78 }
  - { offsetInCU: 0x163D00, offset: 0x163D00, size: 0x8, addend: 0x0, symName: __ZNK5Eigen8internal9evaluatorINS_14CwiseNullaryOpINS0_18scalar_constant_opIfEENS_6MatrixIfLin1ELin1ELi0ELi3ELi3EEEEEE5coeffIlEEfT_SA_, symObjAddr: 0x10E44, symBinAddr: 0x100015130, symSize: 0x3C }
  - { offsetInCU: 0x163D4D, offset: 0x163D4D, size: 0x8, addend: 0x0, symName: __ZNK5Eigen8internal17mapbase_evaluatorINS_5BlockINS_6MatrixIfLi3ELi3ELi0ELi3ELi3EEELin1ELin1ELb0EEENS3_IfLin1ELin1ELi0ELi3ELi3EEEE9colStrideEv, symObjAddr: 0x10E80, symBinAddr: 0x10001516C, symSize: 0x20 }
  - { offsetInCU: 0x163D73, offset: 0x163D73, size: 0x8, addend: 0x0, symName: __ZNK5Eigen8internal17mapbase_evaluatorINS_5BlockINS_6MatrixIfLi3ELi3ELi0ELi3ELi3EEELin1ELin1ELb0EEENS3_IfLin1ELin1ELi0ELi3ELi3EEEE9rowStrideEv, symObjAddr: 0x10EA0, symBinAddr: 0x10001518C, symSize: 0x20 }
  - { offsetInCU: 0x163D99, offset: 0x163D99, size: 0x8, addend: 0x0, symName: __ZN5Eigen8internal9evaluatorINS_5BlockINS_6MatrixIfLi3ELi3ELi0ELi3ELi3EEELin1ELin1ELb0EEEED2Ev, symObjAddr: 0x10EC0, symBinAddr: 0x1000151AC, symSize: 0x2C }
  - { offsetInCU: 0x163DC6, offset: 0x163DC6, size: 0x8, addend: 0x0, symName: __ZN5Eigen8internal15block_evaluatorINS_6MatrixIfLi3ELi3ELi0ELi3ELi3EEELin1ELin1ELb0ELb1EED2Ev, symObjAddr: 0x10EEC, symBinAddr: 0x1000151D8, symSize: 0x2C }
  - { offsetInCU: 0x163DF3, offset: 0x163DF3, size: 0x8, addend: 0x0, symName: __ZN5Eigen8internal9evaluatorINS_14CwiseNullaryOpINS0_18scalar_constant_opIfEENS_6MatrixIfLin1ELin1ELi0ELi3ELi3EEEEEED2Ev, symObjAddr: 0x10F18, symBinAddr: 0x100015204, symSize: 0x2C }
  - { offsetInCU: 0x163E1F, offset: 0x163E1F, size: 0x8, addend: 0x0, symName: __ZN5Eigen9DenseBaseINS_6MatrixIfLin1ELin1ELi0ELi3ELi3EEEE11NullaryExprINS_8internal18scalar_constant_opIfEEEEKNS_14CwiseNullaryOpIT_S2_EEllRKS9_, symObjAddr: 0x10F44, symBinAddr: 0x100015230, symSize: 0x48 }
  - { offsetInCU: 0x163E6C, offset: 0x163E6C, size: 0x8, addend: 0x0, symName: __ZN5Eigen14CwiseNullaryOpINS_8internal18scalar_constant_opIfEENS_6MatrixIfLin1ELin1ELi0ELi3ELi3EEEEC1EllRKS3_, symObjAddr: 0x10F8C, symBinAddr: 0x100015278, symSize: 0x44 }
  - { offsetInCU: 0x163EC0, offset: 0x163EC0, size: 0x8, addend: 0x0, symName: __ZN5Eigen14CwiseNullaryOpINS_8internal18scalar_constant_opIfEENS_6MatrixIfLin1ELin1ELi0ELi3ELi3EEEEC2EllRKS3_, symObjAddr: 0x10FD0, symBinAddr: 0x1000152BC, symSize: 0xDC }
  - { offsetInCU: 0x163F14, offset: 0x163F14, size: 0x8, addend: 0x0, symName: __ZN5Eigen10MatrixBaseINS_14CwiseNullaryOpINS_8internal18scalar_constant_opIfEENS_6MatrixIfLin1ELin1ELi0ELi3ELi3EEEEEEC2Ev, symObjAddr: 0x110AC, symBinAddr: 0x100015398, symSize: 0x2C }
  - { offsetInCU: 0x163F3E, offset: 0x163F3E, size: 0x8, addend: 0x0, symName: __ZN5Eigen9DenseBaseINS_14CwiseNullaryOpINS_8internal18scalar_constant_opIfEENS_6MatrixIfLin1ELin1ELi0ELi3ELi3EEEEEEC2Ev, symObjAddr: 0x110D8, symBinAddr: 0x1000153C4, symSize: 0x14 }
  - { offsetInCU: 0x163F68, offset: 0x163F68, size: 0x8, addend: 0x0, symName: __ZN5Eigen8internal13mul_assign_opIffEC2Ev, symObjAddr: 0x110EC, symBinAddr: 0x1000153D8, symSize: 0x14 }
  - { offsetInCU: 0x163F92, offset: 0x163F92, size: 0x8, addend: 0x0, symName: __ZN5Eigen6StrideILi0ELi0EEC2Ev, symObjAddr: 0x11100, symBinAddr: 0x1000153EC, symSize: 0x44 }
  - { offsetInCU: 0x163FBC, offset: 0x163FBC, size: 0x8, addend: 0x0, symName: __ZN5Eigen3MapINS_6MatrixIfLi1ELin1ELi1ELi1ELi3EEELi0ENS_6StrideILi0ELi0EEEEC2EPflRKS4_, symObjAddr: 0x11144, symBinAddr: 0x100015430, symSize: 0x60 }
  - { offsetInCU: 0x164010, offset: 0x164010, size: 0x8, addend: 0x0, symName: __ZN5Eigen3MapINS_6MatrixIfLi1ELin1ELi1ELi1ELi3EEELi0ENS_6StrideILi0ELi0EEEE20cast_to_pointer_typeEPf, symObjAddr: 0x111A4, symBinAddr: 0x100015490, symSize: 0x18 }
  - { offsetInCU: 0x164044, offset: 0x164044, size: 0x8, addend: 0x0, symName: __ZN5Eigen7MapBaseINS_3MapINS_6MatrixIfLi1ELin1ELi1ELi1ELi3EEELi0ENS_6StrideILi0ELi0EEEEELi1EEC2EPfl, symObjAddr: 0x111BC, symBinAddr: 0x1000154A8, symSize: 0x3C }
  - { offsetInCU: 0x16408C, offset: 0x16408C, size: 0x8, addend: 0x0, symName: __ZN5Eigen6StrideILi0ELi0EEC1ERKS1_, symObjAddr: 0x111F8, symBinAddr: 0x1000154E4, symSize: 0x34 }
  - { offsetInCU: 0x1640C4, offset: 0x1640C4, size: 0x8, addend: 0x0, symName: __ZN5Eigen15PlainObjectBaseINS_6MatrixIfLi1ELin1ELi1ELi1ELi3EEEE22_check_template_paramsEv, symObjAddr: 0x1122C, symBinAddr: 0x100015518, symSize: 0x4 }
  - { offsetInCU: 0x1640D8, offset: 0x1640D8, size: 0x8, addend: 0x0, symName: __ZN5Eigen7MapBaseINS_3MapINS_6MatrixIfLi1ELin1ELi1ELi1ELi3EEELi0ENS_6StrideILi0ELi0EEEEELi0EEC2EPfl, symObjAddr: 0x11230, symBinAddr: 0x10001551C, symSize: 0x120 }
  - { offsetInCU: 0x16411E, offset: 0x16411E, size: 0x8, addend: 0x0, symName: __ZN5Eigen10MatrixBaseINS_3MapINS_6MatrixIfLi1ELin1ELi1ELi1ELi3EEELi0ENS_6StrideILi0ELi0EEEEEEC2Ev, symObjAddr: 0x11350, symBinAddr: 0x10001563C, symSize: 0x2C }
  - { offsetInCU: 0x164148, offset: 0x164148, size: 0x8, addend: 0x0, symName: __ZNK5Eigen7MapBaseINS_3MapINS_6MatrixIfLi1ELin1ELi1ELi1ELi3EEELi0ENS_6StrideILi0ELi0EEEEELi0EE11checkSanityIS6_EEvNS_8internal9enable_ifIXeqsr8internal6traitsIT_EE9AlignmentLi0EEPvE4typeE, symObjAddr: 0x1137C, symBinAddr: 0x100015668, symSize: 0x14 }
  - { offsetInCU: 0x164182, offset: 0x164182, size: 0x8, addend: 0x0, symName: __ZN5Eigen9DenseBaseINS_3MapINS_6MatrixIfLi1ELin1ELi1ELi1ELi3EEELi0ENS_6StrideILi0ELi0EEEEEEC2Ev, symObjAddr: 0x11390, symBinAddr: 0x10001567C, symSize: 0x14 }
  - { offsetInCU: 0x1641AC, offset: 0x1641AC, size: 0x8, addend: 0x0, symName: __ZN5Eigen6StrideILi0ELi0EEC2ERKS1_, symObjAddr: 0x113A4, symBinAddr: 0x100015690, symSize: 0x58 }
  - { offsetInCU: 0x1641E4, offset: 0x1641E4, size: 0x8, addend: 0x0, symName: __ZNK5Eigen6StrideILi0ELi0EE5outerEv, symObjAddr: 0x113FC, symBinAddr: 0x1000156E8, symSize: 0x20 }
  - { offsetInCU: 0x16420A, offset: 0x16420A, size: 0x8, addend: 0x0, symName: __ZNK5Eigen6StrideILi0ELi0EE5innerEv, symObjAddr: 0x1141C, symBinAddr: 0x100015708, symSize: 0x20 }
  - { offsetInCU: 0x164230, offset: 0x164230, size: 0x8, addend: 0x0, symName: __ZN5Eigen8internal19variable_if_dynamicIlLi0EE5valueEv, symObjAddr: 0x1143C, symBinAddr: 0x100015728, symSize: 0x8 }
  - { offsetInCU: 0x164244, offset: 0x164244, size: 0x8, addend: 0x0, symName: __ZN5Eigen5BlockINS0_INS_6MatrixIfLi3ELi3ELi0ELi3ELi3EEELin1ELin1ELb0EEELin1ELin1ELb0EEC2ERS3_llll, symObjAddr: 0x11444, symBinAddr: 0x100015730, symSize: 0x154 }
  - { offsetInCU: 0x1642B4, offset: 0x1642B4, size: 0x8, addend: 0x0, symName: __ZN5Eigen9BlockImplINS_5BlockINS_6MatrixIfLi3ELi3ELi0ELi3ELi3EEELin1ELin1ELb0EEELin1ELin1ELb0ENS_5DenseEEC2ERS4_llll, symObjAddr: 0x11598, symBinAddr: 0x100015884, symSize: 0x54 }
  - { offsetInCU: 0x164324, offset: 0x164324, size: 0x8, addend: 0x0, symName: __ZN5Eigen8internal15BlockImpl_denseINS_5BlockINS_6MatrixIfLi3ELi3ELi0ELi3ELi3EEELin1ELin1ELb0EEELin1ELin1ELb0ELb1EEC2ERS5_llll, symObjAddr: 0x115EC, symBinAddr: 0x1000158D8, symSize: 0xD0 }
  - { offsetInCU: 0x164399, offset: 0x164399, size: 0x8, addend: 0x0, symName: __ZN5Eigen7MapBaseINS_5BlockINS_6MatrixIfLi3ELi3ELi0ELi3ELi3EEELin1ELin1ELb0EEELi1EE4dataEv, symObjAddr: 0x116BC, symBinAddr: 0x1000159A8, symSize: 0x18 }
  - { offsetInCU: 0x1643BF, offset: 0x1643BF, size: 0x8, addend: 0x0, symName: __ZN5Eigen7MapBaseINS_5BlockINS1_INS_6MatrixIfLi3ELi3ELi0ELi3ELi3EEELin1ELin1ELb0EEELin1ELin1ELb0EEELi1EEC2EPfll, symObjAddr: 0x116D4, symBinAddr: 0x1000159C0, symSize: 0x44 }
  - { offsetInCU: 0x164416, offset: 0x164416, size: 0x8, addend: 0x0, symName: __ZN5Eigen8internal15BlockImpl_denseINS_5BlockINS_6MatrixIfLi3ELi3ELi0ELi3ELi3EEELin1ELin1ELb0EEELin1ELin1ELb0ELb1EE4initEv, symObjAddr: 0x11718, symBinAddr: 0x100015A04, symSize: 0x34 }
  - { offsetInCU: 0x16443C, offset: 0x16443C, size: 0x8, addend: 0x0, symName: __ZN5Eigen7MapBaseINS_5BlockINS1_INS_6MatrixIfLi3ELi3ELi0ELi3ELi3EEELin1ELin1ELb0EEELin1ELin1ELb0EEELi0EEC2EPfll, symObjAddr: 0x1174C, symBinAddr: 0x100015A38, symSize: 0x110 }
  - { offsetInCU: 0x164490, offset: 0x164490, size: 0x8, addend: 0x0, symName: __ZN5Eigen10MatrixBaseINS_5BlockINS1_INS_6MatrixIfLi3ELi3ELi0ELi3ELi3EEELin1ELin1ELb0EEELin1ELin1ELb0EEEEC2Ev, symObjAddr: 0x1185C, symBinAddr: 0x100015B48, symSize: 0x2C }
  - { offsetInCU: 0x1644BA, offset: 0x1644BA, size: 0x8, addend: 0x0, symName: __ZNK5Eigen7MapBaseINS_5BlockINS1_INS_6MatrixIfLi3ELi3ELi0ELi3ELi3EEELin1ELin1ELb0EEELin1ELin1ELb0EEELi0EE11checkSanityIS5_EEvNS_8internal9enable_ifIXeqsr8internal6traitsIT_EE9AlignmentLi0EEPvE4typeE, symObjAddr: 0x11888, symBinAddr: 0x100015B74, symSize: 0x14 }
  - { offsetInCU: 0x1644F4, offset: 0x1644F4, size: 0x8, addend: 0x0, symName: __ZN5Eigen9DenseBaseINS_5BlockINS1_INS_6MatrixIfLi3ELi3ELi0ELi3ELi3EEELin1ELin1ELb0EEELin1ELin1ELb0EEEEC2Ev, symObjAddr: 0x1189C, symBinAddr: 0x100015B88, symSize: 0x14 }
  - { offsetInCU: 0x16451E, offset: 0x16451E, size: 0x8, addend: 0x0, symName: __ZNK5Eigen9DenseBaseINS_5BlockINS1_INS_6MatrixIfLi3ELi3ELi0ELi3ELi3EEELi3ELi1ELb1EEELin1ELi1ELb0EEEE9transposeEv, symObjAddr: 0x118B0, symBinAddr: 0x100015B9C, symSize: 0x34 }
  - { offsetInCU: 0x164546, offset: 0x164546, size: 0x8, addend: 0x0, symName: __ZN5Eigen9TransposeIKNS_5BlockINS1_INS_6MatrixIfLi3ELi3ELi0ELi3ELi3EEELi3ELi1ELb1EEELin1ELi1ELb0EEEEC1ERS6_, symObjAddr: 0x118E4, symBinAddr: 0x100015BD0, symSize: 0x34 }
  - { offsetInCU: 0x16457E, offset: 0x16457E, size: 0x8, addend: 0x0, symName: __ZN5Eigen9TransposeIKNS_5BlockINS1_INS_6MatrixIfLi3ELi3ELi0ELi3ELi3EEELi3ELi1ELb1EEELin1ELi1ELb0EEEEC2ERS6_, symObjAddr: 0x11918, symBinAddr: 0x100015C04, symSize: 0x40 }
  - { offsetInCU: 0x1645B6, offset: 0x1645B6, size: 0x8, addend: 0x0, symName: __ZN5Eigen13TransposeImplIKNS_5BlockINS1_INS_6MatrixIfLi3ELi3ELi0ELi3ELi3EEELi3ELi1ELb1EEELin1ELi1ELb0EEENS_5DenseEEC2Ev, symObjAddr: 0x11958, symBinAddr: 0x100015C44, symSize: 0x2C }
  - { offsetInCU: 0x1645E0, offset: 0x1645E0, size: 0x8, addend: 0x0, symName: __ZN5Eigen10MatrixBaseINS_9TransposeIKNS_5BlockINS2_INS_6MatrixIfLi3ELi3ELi0ELi3ELi3EEELi3ELi1ELb1EEELin1ELi1ELb0EEEEEEC2Ev, symObjAddr: 0x11984, symBinAddr: 0x100015C70, symSize: 0x2C }
  - { offsetInCU: 0x16460A, offset: 0x16460A, size: 0x8, addend: 0x0, symName: __ZN5Eigen9DenseBaseINS_9TransposeIKNS_5BlockINS2_INS_6MatrixIfLi3ELi3ELi0ELi3ELi3EEELi3ELi1ELb1EEELin1ELi1ELb0EEEEEEC2Ev, symObjAddr: 0x119B0, symBinAddr: 0x100015C9C, symSize: 0x14 }
  - { offsetInCU: 0x164634, offset: 0x164634, size: 0x8, addend: 0x0, symName: __ZNK5Eigen9EigenBaseINS_9TransposeIKNS_5BlockINS2_INS_6MatrixIfLi3ELi3ELi0ELi3ELi3EEELi3ELi1ELb1EEELin1ELi1ELb0EEEEEE7derivedEv, symObjAddr: 0x119C4, symBinAddr: 0x100015CB0, symSize: 0x14 }
  - { offsetInCU: 0x16465A, offset: 0x16465A, size: 0x8, addend: 0x0, symName: __ZNK5Eigen9EigenBaseINS_5BlockINS1_INS_6MatrixIfLi3ELi3ELi0ELi3ELi3EEELin1ELin1ELb0EEELin1ELin1ELb0EEEE7derivedEv, symObjAddr: 0x119D8, symBinAddr: 0x100015CC4, symSize: 0x14 }
  - { offsetInCU: 0x164680, offset: 0x164680, size: 0x8, addend: 0x0, symName: __ZN5Eigen7ProductINS_9TransposeIKNS_5BlockINS2_INS_6MatrixIfLi3ELi3ELi0ELi3ELi3EEELi3ELi1ELb1EEELin1ELi1ELb0EEEEENS2_INS2_IS4_Lin1ELin1ELb0EEELin1ELin1ELb0EEELi0EEC1ERKS8_RKSA_, symObjAddr: 0x119EC, symBinAddr: 0x100015CD8, symSize: 0x3C }
  - { offsetInCU: 0x1646C6, offset: 0x1646C6, size: 0x8, addend: 0x0, symName: __ZN5Eigen7ProductINS_9TransposeIKNS_5BlockINS2_INS_6MatrixIfLi3ELi3ELi0ELi3ELi3EEELi3ELi1ELb1EEELin1ELi1ELb0EEEEENS2_INS2_IS4_Lin1ELin1ELb0EEELin1ELin1ELb0EEELi0EEC2ERKS8_RKSA_, symObjAddr: 0x11A28, symBinAddr: 0x100015D14, symSize: 0xCC }
  - { offsetInCU: 0x164711, offset: 0x164711, size: 0x8, addend: 0x0, symName: __ZN5Eigen11ProductImplINS_9TransposeIKNS_5BlockINS2_INS_6MatrixIfLi3ELi3ELi0ELi3ELi3EEELi3ELi1ELb1EEELin1ELi1ELb0EEEEENS2_INS2_IS4_Lin1ELin1ELb0EEELin1ELin1ELb0EEELi0ENS_5DenseEEC2Ev, symObjAddr: 0x11AF4, symBinAddr: 0x100015DE0, symSize: 0x2C }
  - { offsetInCU: 0x16473D, offset: 0x16473D, size: 0x8, addend: 0x0, symName: __ZNK5Eigen9TransposeIKNS_5BlockINS1_INS_6MatrixIfLi3ELi3ELi0ELi3ELi3EEELi3ELi1ELb1EEELin1ELi1ELb0EEEE4colsEv, symObjAddr: 0x11B20, symBinAddr: 0x100015E0C, symSize: 0x24 }
  - { offsetInCU: 0x164763, offset: 0x164763, size: 0x8, addend: 0x0, symName: __ZNK5Eigen7MapBaseINS_5BlockINS1_INS_6MatrixIfLi3ELi3ELi0ELi3ELi3EEELin1ELin1ELb0EEELin1ELin1ELb0EEELi0EE4rowsEv, symObjAddr: 0x11B44, symBinAddr: 0x100015E30, symSize: 0x28 }
  - { offsetInCU: 0x16478E, offset: 0x16478E, size: 0x8, addend: 0x0, symName: __ZN5Eigen8internal18dense_product_baseINS_9TransposeIKNS_5BlockINS3_INS_6MatrixIfLi3ELi3ELi0ELi3ELi3EEELi3ELi1ELb1EEELin1ELi1ELb0EEEEENS3_INS3_IS5_Lin1ELin1ELb0EEELin1ELin1ELb0EEELi0ELi3EEC2Ev, symObjAddr: 0x11B6C, symBinAddr: 0x100015E58, symSize: 0x2C }
  - { offsetInCU: 0x1647BA, offset: 0x1647BA, size: 0x8, addend: 0x0, symName: __ZN5Eigen10MatrixBaseINS_7ProductINS_9TransposeIKNS_5BlockINS3_INS_6MatrixIfLi3ELi3ELi0ELi3ELi3EEELi3ELi1ELb1EEELin1ELi1ELb0EEEEENS3_INS3_IS5_Lin1ELin1ELb0EEELin1ELin1ELb0EEELi0EEEEC2Ev, symObjAddr: 0x11B98, symBinAddr: 0x100015E84, symSize: 0x2C }
  - { offsetInCU: 0x1647E4, offset: 0x1647E4, size: 0x8, addend: 0x0, symName: __ZN5Eigen9DenseBaseINS_7ProductINS_9TransposeIKNS_5BlockINS3_INS_6MatrixIfLi3ELi3ELi0ELi3ELi3EEELi3ELi1ELb1EEELin1ELi1ELb0EEEEENS3_INS3_IS5_Lin1ELin1ELb0EEELin1ELin1ELb0EEELi0EEEEC2Ev, symObjAddr: 0x11BC4, symBinAddr: 0x100015EB0, symSize: 0x14 }
  - { offsetInCU: 0x16480E, offset: 0x16480E, size: 0x8, addend: 0x0, symName: __ZN5Eigen9EigenBaseINS_3MapINS_6MatrixIfLi1ELin1ELi1ELi1ELi3EEELi0ENS_6StrideILi0ELi0EEEEEE7derivedEv, symObjAddr: 0x11BD8, symBinAddr: 0x100015EC4, symSize: 0x14 }
  - { offsetInCU: 0x164834, offset: 0x164834, size: 0x8, addend: 0x0, symName: __ZN5Eigen7NoAliasINS_3MapINS_6MatrixIfLi1ELin1ELi1ELi1ELi3EEELi0ENS_6StrideILi0ELi0EEEEENS_10MatrixBaseEEC1ERS6_, symObjAddr: 0x11BEC, symBinAddr: 0x100015ED8, symSize: 0x34 }
  - { offsetInCU: 0x16486C, offset: 0x16486C, size: 0x8, addend: 0x0, symName: __ZN5Eigen7NoAliasINS_3MapINS_6MatrixIfLi1ELin1ELi1ELi1ELi3EEELi0ENS_6StrideILi0ELi0EEEEENS_10MatrixBaseEEC2ERS6_, symObjAddr: 0x11C20, symBinAddr: 0x100015F0C, symSize: 0x20 }
  - { offsetInCU: 0x1648A4, offset: 0x1648A4, size: 0x8, addend: 0x0, symName: __ZNK5Eigen9EigenBaseINS_7ProductINS_9TransposeIKNS_5BlockINS3_INS_6MatrixIfLi3ELi3ELi0ELi3ELi3EEELi3ELi1ELb1EEELin1ELi1ELb0EEEEENS3_INS3_IS5_Lin1ELin1ELb0EEELin1ELin1ELb0EEELi0EEEE7derivedEv, symObjAddr: 0x11C7C, symBinAddr: 0x100015F68, symSize: 0x14 }
  - { offsetInCU: 0x1648D4, offset: 0x1648D4, size: 0x8, addend: 0x0, symName: __ZN5Eigen8internal10AssignmentINS_3MapINS_6MatrixIfLi1ELin1ELi1ELi1ELi3EEELi0ENS_6StrideILi0ELi0EEEEENS_7ProductINS_9TransposeIKNS_5BlockINSA_INS3_IfLi3ELi3ELi0ELi3ELi3EEELi3ELi1ELb1EEELin1ELi1ELb0EEEEENSA_INSA_ISB_Lin1ELin1ELb0EEELin1ELin1ELb0EEELi0EEENS0_9assign_opIffEENS0_11Dense2DenseEvE3runERS7_RKSI_RKSK_, symObjAddr: 0x11C90, symBinAddr: 0x100015F7C, symSize: 0xB4 }
  - { offsetInCU: 0x16492C, offset: 0x16492C, size: 0x8, addend: 0x0, symName: __ZNK5Eigen7ProductINS_9TransposeIKNS_5BlockINS2_INS_6MatrixIfLi3ELi3ELi0ELi3ELi3EEELi3ELi1ELb1EEELin1ELi1ELb0EEEEENS2_INS2_IS4_Lin1ELin1ELb0EEELin1ELin1ELb0EEELi0EE4rowsEv, symObjAddr: 0x11D44, symBinAddr: 0x100016030, symSize: 0x24 }
  - { offsetInCU: 0x164952, offset: 0x164952, size: 0x8, addend: 0x0, symName: __ZNK5Eigen7ProductINS_9TransposeIKNS_5BlockINS2_INS_6MatrixIfLi3ELi3ELi0ELi3ELi3EEELi3ELi1ELb1EEELin1ELi1ELb0EEEEENS2_INS2_IS4_Lin1ELin1ELb0EEELin1ELin1ELb0EEELi0EE4colsEv, symObjAddr: 0x11D68, symBinAddr: 0x100016054, symSize: 0x28 }
  - { offsetInCU: 0x164978, offset: 0x164978, size: 0x8, addend: 0x0, symName: __ZNK5Eigen7MapBaseINS_3MapINS_6MatrixIfLi1ELin1ELi1ELi1ELi3EEELi0ENS_6StrideILi0ELi0EEEEELi0EE4rowsEv, symObjAddr: 0x11D90, symBinAddr: 0x10001607C, symSize: 0x20 }
  - { offsetInCU: 0x16499E, offset: 0x16499E, size: 0x8, addend: 0x0, symName: __ZNK5Eigen7MapBaseINS_3MapINS_6MatrixIfLi1ELin1ELi1ELi1ELi3EEELi0ENS_6StrideILi0ELi0EEEEELi0EE4colsEv, symObjAddr: 0x11DB0, symBinAddr: 0x10001609C, symSize: 0x28 }
  - { offsetInCU: 0x1649C4, offset: 0x1649C4, size: 0x8, addend: 0x0, symName: __ZN5Eigen9DenseBaseINS_3MapINS_6MatrixIfLi1ELin1ELi1ELi1ELi3EEELi0ENS_6StrideILi0ELi0EEEEEE6resizeEll, symObjAddr: 0x11DD8, symBinAddr: 0x1000160C4, symSize: 0xBC }
  - { offsetInCU: 0x164A08, offset: 0x164A08, size: 0x8, addend: 0x0, symName: __ZN5Eigen8internal20generic_product_implINS_9TransposeIKNS_5BlockINS3_INS_6MatrixIfLi3ELi3ELi0ELi3ELi3EEELi3ELi1ELb1EEELin1ELi1ELb0EEEEENS3_INS3_IS5_Lin1ELin1ELb0EEELin1ELin1ELb0EEENS_10DenseShapeESC_Li3EE6evalToINS_3MapINS4_IfLi1ELin1ELi1ELi1ELi3EEELi0ENS_6StrideILi0ELi0EEEEEEEvRT_RKS9_RKSB_, symObjAddr: 0x11E94, symBinAddr: 0x100016180, symSize: 0x68 }
  - { offsetInCU: 0x164A53, offset: 0x164A53, size: 0x8, addend: 0x0, symName: __ZNK5Eigen7ProductINS_9TransposeIKNS_5BlockINS2_INS_6MatrixIfLi3ELi3ELi0ELi3ELi3EEELi3ELi1ELb1EEELin1ELi1ELb0EEEEENS2_INS2_IS4_Lin1ELin1ELb0EEELin1ELin1ELb0EEELi0EE3lhsEv, symObjAddr: 0x11EFC, symBinAddr: 0x1000161E8, symSize: 0x14 }
  - { offsetInCU: 0x164A79, offset: 0x164A79, size: 0x8, addend: 0x0, symName: __ZNK5Eigen7ProductINS_9TransposeIKNS_5BlockINS2_INS_6MatrixIfLi3ELi3ELi0ELi3ELi3EEELi3ELi1ELb1EEELin1ELi1ELb0EEEEENS2_INS2_IS4_Lin1ELin1ELb0EEELin1ELin1ELb0EEELi0EE3rhsEv, symObjAddr: 0x11F10, symBinAddr: 0x1000161FC, symSize: 0x18 }
  - { offsetInCU: 0x164A9F, offset: 0x164A9F, size: 0x8, addend: 0x0, symName: __ZNK5Eigen9TransposeIKNS_5BlockINS1_INS_6MatrixIfLi3ELi3ELi0ELi3ELi3EEELi3ELi1ELb1EEELin1ELi1ELb0EEEE4rowsEv, symObjAddr: 0x11F28, symBinAddr: 0x100016214, symSize: 0x24 }
  - { offsetInCU: 0x164AC5, offset: 0x164AC5, size: 0x8, addend: 0x0, symName: __ZNK5Eigen7MapBaseINS_5BlockINS1_INS_6MatrixIfLi3ELi3ELi0ELi3ELi3EEELin1ELin1ELb0EEELin1ELin1ELb0EEELi0EE4colsEv, symObjAddr: 0x11F4C, symBinAddr: 0x100016238, symSize: 0x28 }
  - { offsetInCU: 0x164AEB, offset: 0x164AEB, size: 0x8, addend: 0x0, symName: __ZNK5Eigen9EigenBaseINS_3MapINS_6MatrixIfLi1ELin1ELi1ELi1ELi3EEELi0ENS_6StrideILi0ELi0EEEEEE4rowsEv, symObjAddr: 0x11F74, symBinAddr: 0x100016260, symSize: 0x38 }
  - { offsetInCU: 0x164B11, offset: 0x164B11, size: 0x8, addend: 0x0, symName: __ZNK5Eigen9EigenBaseINS_3MapINS_6MatrixIfLi1ELin1ELi1ELi1ELi3EEELi0ENS_6StrideILi0ELi0EEEEEE4colsEv, symObjAddr: 0x11FAC, symBinAddr: 0x100016298, symSize: 0x28 }
  - { offsetInCU: 0x164B37, offset: 0x164B37, size: 0x8, addend: 0x0, symName: __ZNK5Eigen9EigenBaseINS_3MapINS_6MatrixIfLi1ELin1ELi1ELi1ELi3EEELi0ENS_6StrideILi0ELi0EEEEEE7derivedEv, symObjAddr: 0x11FD4, symBinAddr: 0x1000162C0, symSize: 0x14 }
  - { offsetInCU: 0x164D10, offset: 0x164D10, size: 0x8, addend: 0x0, symName: __ZNK5Eigen10MatrixBaseINS_9TransposeIKNS_5BlockINS2_INS_6MatrixIfLi3ELi3ELi0ELi3ELi3EEELi3ELi1ELb1EEELin1ELi1ELb0EEEEEE11lazyProductINS2_INS2_IS4_Lin1ELin1ELb0EEELin1ELin1ELb0EEEEEKNS_7ProductIS8_T_Li1EEERKNS0_ISE_EE, symObjAddr: 0x12024, symBinAddr: 0x100016310, symSize: 0x48 }
  - { offsetInCU: 0x164D50, offset: 0x164D50, size: 0x8, addend: 0x0, symName: __ZN5Eigen8internal10AssignmentINS_3MapINS_6MatrixIfLi1ELin1ELi1ELi1ELi3EEELi0ENS_6StrideILi0ELi0EEEEENS_7ProductINS_9TransposeIKNS_5BlockINSA_INS3_IfLi3ELi3ELi0ELi3ELi3EEELi3ELi1ELb1EEELin1ELi1ELb0EEEEENSA_INSA_ISB_Lin1ELin1ELb0EEELin1ELin1ELb0EEELi1EEENS0_9assign_opIffEENS0_11Dense2DenseEvE3runERS7_RKSI_RKSK_, symObjAddr: 0x1206C, symBinAddr: 0x100016358, symSize: 0x40 }
  - { offsetInCU: 0x164E23, offset: 0x164E23, size: 0x8, addend: 0x0, symName: __ZN5Eigen8internal9evaluatorINS_7ProductINS_9TransposeIKNS_5BlockINS4_INS_6MatrixIfLi3ELi3ELi0ELi3ELi3EEELi3ELi1ELb1EEELin1ELi1ELb0EEEEENS4_INS4_IS6_Lin1ELin1ELb0EEELin1ELin1ELb0EEELi1EEEEC1ERKSD_, symObjAddr: 0x121A8, symBinAddr: 0x100016494, symSize: 0x34 }
  - { offsetInCU: 0x164E6A, offset: 0x164E6A, size: 0x8, addend: 0x0, symName: __ZN5Eigen8internal9evaluatorINS_3MapINS_6MatrixIfLi1ELin1ELi1ELi1ELi3EEELi0ENS_6StrideILi0ELi0EEEEEEC1ERKS7_, symObjAddr: 0x122D4, symBinAddr: 0x1000165C0, symSize: 0x34 }
  - { offsetInCU: 0x164EA3, offset: 0x164EA3, size: 0x8, addend: 0x0, symName: __ZNK5Eigen9EigenBaseINS_3MapINS_6MatrixIfLi1ELin1ELi1ELi1ELi3EEELi0ENS_6StrideILi0ELi0EEEEEE18const_cast_derivedEv, symObjAddr: 0x12308, symBinAddr: 0x1000165F4, symSize: 0x14 }
  - { offsetInCU: 0x164EF6, offset: 0x164EF6, size: 0x8, addend: 0x0, symName: __ZN5Eigen8internal31generic_dense_assignment_kernelINS0_9evaluatorINS_3MapINS_6MatrixIfLi1ELin1ELi1ELi1ELi3EEELi0ENS_6StrideILi0ELi0EEEEEEENS2_INS_7ProductINS_9TransposeIKNS_5BlockINSC_INS4_IfLi3ELi3ELi0ELi3ELi3EEELi3ELi1ELb1EEELin1ELi1ELb0EEEEENSC_INSC_ISD_Lin1ELin1ELb0EEELin1ELin1ELb0EEELi1EEEEENS0_9assign_opIffEELi0EEC1ERS9_RKSL_RKSN_RS8_, symObjAddr: 0x1231C, symBinAddr: 0x100016608, symSize: 0x4C }
  - { offsetInCU: 0x164F61, offset: 0x164F61, size: 0x8, addend: 0x0, symName: __ZN5Eigen8internal21dense_assignment_loopINS0_31generic_dense_assignment_kernelINS0_9evaluatorINS_3MapINS_6MatrixIfLi1ELin1ELi1ELi1ELi3EEELi0ENS_6StrideILi0ELi0EEEEEEENS3_INS_7ProductINS_9TransposeIKNS_5BlockINSD_INS5_IfLi3ELi3ELi0ELi3ELi3EEELi3ELi1ELb1EEELin1ELi1ELb0EEEEENSD_INSD_ISE_Lin1ELin1ELb0EEELin1ELin1ELb0EEELi1EEEEENS0_9assign_opIffEELi0EEELi1ELi0EE3runERSP_, symObjAddr: 0x12368, symBinAddr: 0x100016654, symSize: 0x68 }
  - { offsetInCU: 0x164FB1, offset: 0x164FB1, size: 0x8, addend: 0x0, symName: __ZN5Eigen8internal9evaluatorINS_3MapINS_6MatrixIfLi1ELin1ELi1ELi1ELi3EEELi0ENS_6StrideILi0ELi0EEEEEED1Ev, symObjAddr: 0x123D0, symBinAddr: 0x1000166BC, symSize: 0x2C }
  - { offsetInCU: 0x164FDE, offset: 0x164FDE, size: 0x8, addend: 0x0, symName: __ZN5Eigen8internal9evaluatorINS_7ProductINS_9TransposeIKNS_5BlockINS4_INS_6MatrixIfLi3ELi3ELi0ELi3ELi3EEELi3ELi1ELb1EEELin1ELi1ELb0EEEEENS4_INS4_IS6_Lin1ELin1ELb0EEELin1ELin1ELb0EEELi1EEEED1Ev, symObjAddr: 0x123FC, symBinAddr: 0x1000166E8, symSize: 0x2C }
  - { offsetInCU: 0x16500A, offset: 0x16500A, size: 0x8, addend: 0x0, symName: __ZN5Eigen8internal9evaluatorINS_7ProductINS_9TransposeIKNS_5BlockINS4_INS_6MatrixIfLi3ELi3ELi0ELi3ELi3EEELi3ELi1ELb1EEELin1ELi1ELb0EEEEENS4_INS4_IS6_Lin1ELin1ELb0EEELin1ELin1ELb0EEELi1EEEEC2ERKSD_, symObjAddr: 0x12428, symBinAddr: 0x100016714, symSize: 0x34 }
  - { offsetInCU: 0x165042, offset: 0x165042, size: 0x8, addend: 0x0, symName: __ZN5Eigen8internal17product_evaluatorINS_7ProductINS_9TransposeIKNS_5BlockINS4_INS_6MatrixIfLi3ELi3ELi0ELi3ELi3EEELi3ELi1ELb1EEELin1ELi1ELb0EEEEENS4_INS4_IS6_Lin1ELin1ELb0EEELin1ELin1ELb0EEELi1EEELi3ENS_10DenseShapeESE_ffEC2ERKSD_, symObjAddr: 0x1245C, symBinAddr: 0x100016748, symSize: 0x124 }
  - { offsetInCU: 0x16507B, offset: 0x16507B, size: 0x8, addend: 0x0, symName: __ZN5Eigen8internal14evaluator_baseINS_7ProductINS_9TransposeIKNS_5BlockINS4_INS_6MatrixIfLi3ELi3ELi0ELi3ELi3EEELi3ELi1ELb1EEELin1ELi1ELb0EEEEENS4_INS4_IS6_Lin1ELin1ELb0EEELin1ELin1ELb0EEELi1EEEEC2Ev, symObjAddr: 0x12580, symBinAddr: 0x10001686C, symSize: 0x14 }
  - { offsetInCU: 0x1650A5, offset: 0x1650A5, size: 0x8, addend: 0x0, symName: __ZNK5Eigen7ProductINS_9TransposeIKNS_5BlockINS2_INS_6MatrixIfLi3ELi3ELi0ELi3ELi3EEELi3ELi1ELb1EEELin1ELi1ELb0EEEEENS2_INS2_IS4_Lin1ELin1ELb0EEELin1ELin1ELb0EEELi1EE3lhsEv, symObjAddr: 0x12594, symBinAddr: 0x100016880, symSize: 0x14 }
  - { offsetInCU: 0x1650CB, offset: 0x1650CB, size: 0x8, addend: 0x0, symName: __ZNK5Eigen7ProductINS_9TransposeIKNS_5BlockINS2_INS_6MatrixIfLi3ELi3ELi0ELi3ELi3EEELi3ELi1ELb1EEELin1ELi1ELb0EEEEENS2_INS2_IS4_Lin1ELin1ELb0EEELin1ELin1ELb0EEELi1EE3rhsEv, symObjAddr: 0x125A8, symBinAddr: 0x100016894, symSize: 0x18 }
  - { offsetInCU: 0x1650F1, offset: 0x1650F1, size: 0x8, addend: 0x0, symName: __ZN5Eigen8internal9evaluatorINS_9TransposeIKNS_5BlockINS3_INS_6MatrixIfLi3ELi3ELi0ELi3ELi3EEELi3ELi1ELb1EEELin1ELi1ELb0EEEEEEC1ERKS9_, symObjAddr: 0x125C0, symBinAddr: 0x1000168AC, symSize: 0x34 }
  - { offsetInCU: 0x165129, offset: 0x165129, size: 0x8, addend: 0x0, symName: __ZN5Eigen8internal9evaluatorINS_5BlockINS2_INS_6MatrixIfLi3ELi3ELi0ELi3ELi3EEELin1ELin1ELb0EEELin1ELin1ELb0EEEEC1ERKS6_, symObjAddr: 0x125F4, symBinAddr: 0x1000168E0, symSize: 0x34 }
  - { offsetInCU: 0x165162, offset: 0x165162, size: 0x8, addend: 0x0, symName: __ZN5Eigen8internal9evaluatorINS_5BlockINS2_INS_6MatrixIfLi3ELi3ELi0ELi3ELi3EEELin1ELin1ELb0EEELin1ELin1ELb0EEEED1Ev, symObjAddr: 0x12628, symBinAddr: 0x100016914, symSize: 0x2C }
  - { offsetInCU: 0x16518F, offset: 0x16518F, size: 0x8, addend: 0x0, symName: __ZN5Eigen8internal9evaluatorINS_9TransposeIKNS_5BlockINS3_INS_6MatrixIfLi3ELi3ELi0ELi3ELi3EEELi3ELi1ELb1EEELin1ELi1ELb0EEEEEED1Ev, symObjAddr: 0x12654, symBinAddr: 0x100016940, symSize: 0x2C }
  - { offsetInCU: 0x1651BB, offset: 0x1651BB, size: 0x8, addend: 0x0, symName: __ZN5Eigen8internal14evaluator_baseINS_7ProductINS_9TransposeIKNS_5BlockINS4_INS_6MatrixIfLi3ELi3ELi0ELi3ELi3EEELi3ELi1ELb1EEELin1ELi1ELb0EEEEENS4_INS4_IS6_Lin1ELin1ELb0EEELin1ELin1ELb0EEELi1EEEED2Ev, symObjAddr: 0x12680, symBinAddr: 0x10001696C, symSize: 0x14 }
  - { offsetInCU: 0x1651E5, offset: 0x1651E5, size: 0x8, addend: 0x0, symName: __ZN5Eigen8internal9evaluatorINS_9TransposeIKNS_5BlockINS3_INS_6MatrixIfLi3ELi3ELi0ELi3ELi3EEELi3ELi1ELb1EEELin1ELi1ELb0EEEEEEC2ERKS9_, symObjAddr: 0x12694, symBinAddr: 0x100016980, symSize: 0x34 }
  - { offsetInCU: 0x16521D, offset: 0x16521D, size: 0x8, addend: 0x0, symName: __ZN5Eigen8internal15unary_evaluatorINS_9TransposeIKNS_5BlockINS3_INS_6MatrixIfLi3ELi3ELi0ELi3ELi3EEELi3ELi1ELb1EEELin1ELi1ELb0EEEEENS0_10IndexBasedEfEC2ERKS9_, symObjAddr: 0x126C8, symBinAddr: 0x1000169B4, symSize: 0x74 }
  - { offsetInCU: 0x165256, offset: 0x165256, size: 0x8, addend: 0x0, symName: __ZN5Eigen8internal14evaluator_baseINS_9TransposeIKNS_5BlockINS3_INS_6MatrixIfLi3ELi3ELi0ELi3ELi3EEELi3ELi1ELb1EEELin1ELi1ELb0EEEEEEC2Ev, symObjAddr: 0x1273C, symBinAddr: 0x100016A28, symSize: 0x14 }
  - { offsetInCU: 0x165280, offset: 0x165280, size: 0x8, addend: 0x0, symName: __ZNK5Eigen9TransposeIKNS_5BlockINS1_INS_6MatrixIfLi3ELi3ELi0ELi3ELi3EEELi3ELi1ELb1EEELin1ELi1ELb0EEEE16nestedExpressionEv, symObjAddr: 0x12750, symBinAddr: 0x100016A3C, symSize: 0x14 }
  - { offsetInCU: 0x1652A6, offset: 0x1652A6, size: 0x8, addend: 0x0, symName: __ZN5Eigen8internal9evaluatorIKNS_5BlockINS2_INS_6MatrixIfLi3ELi3ELi0ELi3ELi3EEELi3ELi1ELb1EEELin1ELi1ELb0EEEEC1ERS7_, symObjAddr: 0x12764, symBinAddr: 0x100016A50, symSize: 0x34 }
  - { offsetInCU: 0x1652DE, offset: 0x1652DE, size: 0x8, addend: 0x0, symName: __ZN5Eigen8internal14evaluator_baseINS_9TransposeIKNS_5BlockINS3_INS_6MatrixIfLi3ELi3ELi0ELi3ELi3EEELi3ELi1ELb1EEELin1ELi1ELb0EEEEEED2Ev, symObjAddr: 0x12798, symBinAddr: 0x100016A84, symSize: 0x14 }
  - { offsetInCU: 0x165308, offset: 0x165308, size: 0x8, addend: 0x0, symName: __ZN5Eigen8internal9evaluatorIKNS_5BlockINS2_INS_6MatrixIfLi3ELi3ELi0ELi3ELi3EEELi3ELi1ELb1EEELin1ELi1ELb0EEEEC2ERS7_, symObjAddr: 0x127AC, symBinAddr: 0x100016A98, symSize: 0x34 }
  - { offsetInCU: 0x165340, offset: 0x165340, size: 0x8, addend: 0x0, symName: __ZN5Eigen8internal9evaluatorINS_5BlockINS2_INS_6MatrixIfLi3ELi3ELi0ELi3ELi3EEELin1ELin1ELb0EEELin1ELin1ELb0EEEEC2ERKS6_, symObjAddr: 0x127E0, symBinAddr: 0x100016ACC, symSize: 0x34 }
  - { offsetInCU: 0x165379, offset: 0x165379, size: 0x8, addend: 0x0, symName: __ZN5Eigen8internal15block_evaluatorINS_5BlockINS_6MatrixIfLi3ELi3ELi0ELi3ELi3EEELin1ELin1ELb0EEELin1ELin1ELb0ELb1EEC2ERKNS2_IS5_Lin1ELin1ELb0EEE, symObjAddr: 0x12814, symBinAddr: 0x100016B00, symSize: 0xDC }
  - { offsetInCU: 0x1653B2, offset: 0x1653B2, size: 0x8, addend: 0x0, symName: __ZN5Eigen8internal17mapbase_evaluatorINS_5BlockINS2_INS_6MatrixIfLi3ELi3ELi0ELi3ELi3EEELin1ELin1ELb0EEELin1ELin1ELb0EEENS3_IfLin1ELin1ELi0ELi3ELi3EEEEC2ERKS6_, symObjAddr: 0x128F0, symBinAddr: 0x100016BDC, symSize: 0xB4 }
  - { offsetInCU: 0x1653EB, offset: 0x1653EB, size: 0x8, addend: 0x0, symName: __ZNK5Eigen7MapBaseINS_5BlockINS1_INS_6MatrixIfLi3ELi3ELi0ELi3ELi3EEELin1ELin1ELb0EEELin1ELin1ELb0EEELi1EE4dataEv, symObjAddr: 0x129A4, symBinAddr: 0x100016C90, symSize: 0x18 }
  - { offsetInCU: 0x165411, offset: 0x165411, size: 0x8, addend: 0x0, symName: __ZN5Eigen8internal17mapbase_evaluatorINS_5BlockINS2_INS_6MatrixIfLi3ELi3ELi0ELi3ELi3EEELin1ELin1ELb0EEELin1ELin1ELb0EEENS3_IfLin1ELin1ELi0ELi3ELi3EEEED2Ev, symObjAddr: 0x129BC, symBinAddr: 0x100016CA8, symSize: 0x2C }
  - { offsetInCU: 0x16543E, offset: 0x16543E, size: 0x8, addend: 0x0, symName: __ZN5Eigen8internal14evaluator_baseINS_5BlockINS2_INS_6MatrixIfLi3ELi3ELi0ELi3ELi3EEELin1ELin1ELb0EEELin1ELin1ELb0EEEEC2Ev, symObjAddr: 0x129E8, symBinAddr: 0x100016CD4, symSize: 0x14 }
  - { offsetInCU: 0x165468, offset: 0x165468, size: 0x8, addend: 0x0, symName: __ZNK5Eigen8internal15BlockImpl_denseINS_5BlockINS_6MatrixIfLi3ELi3ELi0ELi3ELi3EEELin1ELin1ELb0EEELin1ELin1ELb0ELb1EE11innerStrideEv, symObjAddr: 0x129FC, symBinAddr: 0x100016CE8, symSize: 0x28 }
  - { offsetInCU: 0x16548E, offset: 0x16548E, size: 0x8, addend: 0x0, symName: __ZNK5Eigen8internal15BlockImpl_denseINS_5BlockINS_6MatrixIfLi3ELi3ELi0ELi3ELi3EEELin1ELin1ELb0EEELin1ELin1ELb0ELb1EE11outerStrideEv, symObjAddr: 0x12A24, symBinAddr: 0x100016D10, symSize: 0x28 }
  - { offsetInCU: 0x1654B4, offset: 0x1654B4, size: 0x8, addend: 0x0, symName: __ZN5Eigen8internal14evaluator_baseINS_5BlockINS2_INS_6MatrixIfLi3ELi3ELi0ELi3ELi3EEELin1ELin1ELb0EEELin1ELin1ELb0EEEED2Ev, symObjAddr: 0x12A4C, symBinAddr: 0x100016D38, symSize: 0x14 }
  - { offsetInCU: 0x1654DE, offset: 0x1654DE, size: 0x8, addend: 0x0, symName: __ZN5Eigen8internal9evaluatorINS_5BlockINS2_INS_6MatrixIfLi3ELi3ELi0ELi3ELi3EEELin1ELin1ELb0EEELin1ELin1ELb0EEEED2Ev, symObjAddr: 0x12A60, symBinAddr: 0x100016D4C, symSize: 0x2C }
  - { offsetInCU: 0x16550B, offset: 0x16550B, size: 0x8, addend: 0x0, symName: __ZN5Eigen8internal15block_evaluatorINS_5BlockINS_6MatrixIfLi3ELi3ELi0ELi3ELi3EEELin1ELin1ELb0EEELin1ELin1ELb0ELb1EED2Ev, symObjAddr: 0x12A8C, symBinAddr: 0x100016D78, symSize: 0x2C }
  - { offsetInCU: 0x165538, offset: 0x165538, size: 0x8, addend: 0x0, symName: __ZN5Eigen8internal9evaluatorINS_9TransposeIKNS_5BlockINS3_INS_6MatrixIfLi3ELi3ELi0ELi3ELi3EEELi3ELi1ELb1EEELin1ELi1ELb0EEEEEED2Ev, symObjAddr: 0x12AB8, symBinAddr: 0x100016DA4, symSize: 0x2C }
  - { offsetInCU: 0x165564, offset: 0x165564, size: 0x8, addend: 0x0, symName: __ZN5Eigen8internal15unary_evaluatorINS_9TransposeIKNS_5BlockINS3_INS_6MatrixIfLi3ELi3ELi0ELi3ELi3EEELi3ELi1ELb1EEELin1ELi1ELb0EEEEENS0_10IndexBasedEfED2Ev, symObjAddr: 0x12AE4, symBinAddr: 0x100016DD0, symSize: 0x34 }
  - { offsetInCU: 0x165590, offset: 0x165590, size: 0x8, addend: 0x0, symName: __ZN5Eigen8internal9evaluatorIKNS_5BlockINS2_INS_6MatrixIfLi3ELi3ELi0ELi3ELi3EEELi3ELi1ELb1EEELin1ELi1ELb0EEEED1Ev, symObjAddr: 0x12B18, symBinAddr: 0x100016E04, symSize: 0x2C }
  - { offsetInCU: 0x1655BC, offset: 0x1655BC, size: 0x8, addend: 0x0, symName: __ZN5Eigen8internal9evaluatorIKNS_5BlockINS2_INS_6MatrixIfLi3ELi3ELi0ELi3ELi3EEELi3ELi1ELb1EEELin1ELi1ELb0EEEED2Ev, symObjAddr: 0x12B44, symBinAddr: 0x100016E30, symSize: 0x2C }
  - { offsetInCU: 0x1655E8, offset: 0x1655E8, size: 0x8, addend: 0x0, symName: __ZNK5Eigen7ProductINS_9TransposeIKNS_5BlockINS2_INS_6MatrixIfLi3ELi3ELi0ELi3ELi3EEELi3ELi1ELb1EEELin1ELi1ELb0EEEEENS2_INS2_IS4_Lin1ELin1ELb0EEELin1ELin1ELb0EEELi1EE4rowsEv, symObjAddr: 0x12B70, symBinAddr: 0x100016E5C, symSize: 0x24 }
  - { offsetInCU: 0x16560E, offset: 0x16560E, size: 0x8, addend: 0x0, symName: __ZNK5Eigen7ProductINS_9TransposeIKNS_5BlockINS2_INS_6MatrixIfLi3ELi3ELi0ELi3ELi3EEELi3ELi1ELb1EEELin1ELi1ELb0EEEEENS2_INS2_IS4_Lin1ELin1ELb0EEELin1ELin1ELb0EEELi1EE4colsEv, symObjAddr: 0x12B94, symBinAddr: 0x100016E80, symSize: 0x28 }
  - { offsetInCU: 0x165634, offset: 0x165634, size: 0x8, addend: 0x0, symName: __ZN5Eigen8internal9evaluatorINS_3MapINS_6MatrixIfLi1ELin1ELi1ELi1ELi3EEELi0ENS_6StrideILi0ELi0EEEEEEC2ERKS7_, symObjAddr: 0x12BBC, symBinAddr: 0x100016EA8, symSize: 0x34 }
  - { offsetInCU: 0x16566D, offset: 0x16566D, size: 0x8, addend: 0x0, symName: __ZN5Eigen8internal17mapbase_evaluatorINS_3MapINS_6MatrixIfLi1ELin1ELi1ELi1ELi3EEELi0ENS_6StrideILi0ELi0EEEEES4_EC2ERKS7_, symObjAddr: 0x12BF0, symBinAddr: 0x100016EDC, symSize: 0xC0 }
  - { offsetInCU: 0x1656A6, offset: 0x1656A6, size: 0x8, addend: 0x0, symName: __ZN5Eigen8internal14evaluator_baseINS_3MapINS_6MatrixIfLi1ELin1ELi1ELi1ELi3EEELi0ENS_6StrideILi0ELi0EEEEEEC2Ev, symObjAddr: 0x12CB0, symBinAddr: 0x100016F9C, symSize: 0x14 }
  - { offsetInCU: 0x1656D0, offset: 0x1656D0, size: 0x8, addend: 0x0, symName: __ZNK5Eigen7MapBaseINS_3MapINS_6MatrixIfLi1ELin1ELi1ELi1ELi3EEELi0ENS_6StrideILi0ELi0EEEEELi1EE4dataEv, symObjAddr: 0x12CC4, symBinAddr: 0x100016FB0, symSize: 0x18 }
  - { offsetInCU: 0x1656F6, offset: 0x1656F6, size: 0x8, addend: 0x0, symName: __ZNK5Eigen3MapINS_6MatrixIfLi1ELin1ELi1ELi1ELi3EEELi0ENS_6StrideILi0ELi0EEEE11innerStrideEv, symObjAddr: 0x12CDC, symBinAddr: 0x100016FC8, symSize: 0x14 }
  - { offsetInCU: 0x16571C, offset: 0x16571C, size: 0x8, addend: 0x0, symName: __ZNK5Eigen3MapINS_6MatrixIfLi1ELin1ELi1ELi1ELi3EEELi0ENS_6StrideILi0ELi0EEEE11outerStrideEv, symObjAddr: 0x12CF0, symBinAddr: 0x100016FDC, symSize: 0x44 }
  - { offsetInCU: 0x165742, offset: 0x165742, size: 0x8, addend: 0x0, symName: __ZN5Eigen8internal14evaluator_baseINS_3MapINS_6MatrixIfLi1ELin1ELi1ELi1ELi3EEELi0ENS_6StrideILi0ELi0EEEEEED2Ev, symObjAddr: 0x12D34, symBinAddr: 0x100017020, symSize: 0x14 }
  - { offsetInCU: 0x16576C, offset: 0x16576C, size: 0x8, addend: 0x0, symName: __ZNK5Eigen9EigenBaseINS_3MapINS_6MatrixIfLi1ELin1ELi1ELi1ELi3EEELi0ENS_6StrideILi0ELi0EEEEEE4sizeEv, symObjAddr: 0x12D48, symBinAddr: 0x100017034, symSize: 0x44 }
  - { offsetInCU: 0x165792, offset: 0x165792, size: 0x8, addend: 0x0, symName: __ZN5Eigen8internal31generic_dense_assignment_kernelINS0_9evaluatorINS_3MapINS_6MatrixIfLi1ELin1ELi1ELi1ELi3EEELi0ENS_6StrideILi0ELi0EEEEEEENS2_INS_7ProductINS_9TransposeIKNS_5BlockINSC_INS4_IfLi3ELi3ELi0ELi3ELi3EEELi3ELi1ELb1EEELin1ELi1ELb0EEEEENSC_INSC_ISD_Lin1ELin1ELb0EEELin1ELin1ELb0EEELi1EEEEENS0_9assign_opIffEELi0EEC2ERS9_RKSL_RKSN_RS8_, symObjAddr: 0x12D8C, symBinAddr: 0x100017078, symSize: 0x44 }
  - { offsetInCU: 0x1657F8, offset: 0x1657F8, size: 0x8, addend: 0x0, symName: __ZNK5Eigen8internal31generic_dense_assignment_kernelINS0_9evaluatorINS_3MapINS_6MatrixIfLi1ELin1ELi1ELi1ELi3EEELi0ENS_6StrideILi0ELi0EEEEEEENS2_INS_7ProductINS_9TransposeIKNS_5BlockINSC_INS4_IfLi3ELi3ELi0ELi3ELi3EEELi3ELi1ELb1EEELin1ELi1ELb0EEEEENSC_INSC_ISD_Lin1ELin1ELb0EEELin1ELin1ELb0EEELi1EEEEENS0_9assign_opIffEELi0EE4sizeEv, symObjAddr: 0x12DD0, symBinAddr: 0x1000170BC, symSize: 0x28 }
  - { offsetInCU: 0x16581E, offset: 0x16581E, size: 0x8, addend: 0x0, symName: __ZN5Eigen8internal31generic_dense_assignment_kernelINS0_9evaluatorINS_3MapINS_6MatrixIfLi1ELin1ELi1ELi1ELi3EEELi0ENS_6StrideILi0ELi0EEEEEEENS2_INS_7ProductINS_9TransposeIKNS_5BlockINSC_INS4_IfLi3ELi3ELi0ELi3ELi3EEELi3ELi1ELb1EEELin1ELi1ELb0EEEEENSC_INSC_ISD_Lin1ELin1ELb0EEELin1ELin1ELb0EEELi1EEEEENS0_9assign_opIffEELi0EE11assignCoeffEl, symObjAddr: 0x12DF8, symBinAddr: 0x1000170E4, symSize: 0x64 }
  - { offsetInCU: 0x165853, offset: 0x165853, size: 0x8, addend: 0x0, symName: __ZN5Eigen8internal17mapbase_evaluatorINS_3MapINS_6MatrixIfLi1ELin1ELi1ELi1ELi3EEELi0ENS_6StrideILi0ELi0EEEEES4_E8coeffRefEl, symObjAddr: 0x12E5C, symBinAddr: 0x100017148, symSize: 0x48 }
  - { offsetInCU: 0x165888, offset: 0x165888, size: 0x8, addend: 0x0, symName: __ZNK5Eigen8internal17product_evaluatorINS_7ProductINS_9TransposeIKNS_5BlockINS4_INS_6MatrixIfLi3ELi3ELi0ELi3ELi3EEELi3ELi1ELb1EEELin1ELi1ELb0EEEEENS4_INS4_IS6_Lin1ELin1ELb0EEELin1ELin1ELb0EEELi1EEELi3ENS_10DenseShapeESE_ffE5coeffEl, symObjAddr: 0x12EA4, symBinAddr: 0x100017190, symSize: 0x90 }
  - { offsetInCU: 0x1658DB, offset: 0x1658DB, size: 0x8, addend: 0x0, symName: __ZNK5Eigen9DenseBaseINS_9TransposeIKNS_5BlockINS2_INS_6MatrixIfLi3ELi3ELi0ELi3ELi3EEELi3ELi1ELb1EEELin1ELi1ELb0EEEEEE3rowEl, symObjAddr: 0x12F34, symBinAddr: 0x100017220, symSize: 0x3C }
  - { offsetInCU: 0x165910, offset: 0x165910, size: 0x8, addend: 0x0, symName: __ZNK5Eigen9DenseBaseINS_5BlockIKNS_9TransposeIKNS1_INS1_INS_6MatrixIfLi3ELi3ELi0ELi3ELi3EEELi3ELi1ELb1EEELin1ELi1ELb0EEEEELi1ELin1ELb1EEEE9transposeEv, symObjAddr: 0x12F70, symBinAddr: 0x10001725C, symSize: 0x34 }
  - { offsetInCU: 0x165938, offset: 0x165938, size: 0x8, addend: 0x0, symName: __ZNK5Eigen10MatrixBaseINS_9TransposeIKNS_5BlockIKNS1_IKNS2_INS2_INS_6MatrixIfLi3ELi3ELi0ELi3ELi3EEELi3ELi1ELb1EEELin1ELi1ELb0EEEEELi1ELin1ELb1EEEEEE12cwiseProductINS2_IKNS2_INS2_IS4_Lin1ELin1ELb0EEELin1ELin1ELb0EEELin1ELi1ELb1EEEEEKNS_13CwiseBinaryOpINS_8internal17scalar_product_opIfNSK_6traitsIT_E6ScalarEEEKSC_KSN_EERKNS0_ISN_EE, symObjAddr: 0x12FA4, symBinAddr: 0x100017290, symSize: 0x60 }
  - { offsetInCU: 0x165975, offset: 0x165975, size: 0x8, addend: 0x0, symName: __ZNK5Eigen9DenseBaseINS_5BlockINS1_INS_6MatrixIfLi3ELi3ELi0ELi3ELi3EEELin1ELin1ELb0EEELin1ELin1ELb0EEEE3colEl, symObjAddr: 0x13004, symBinAddr: 0x1000172F0, symSize: 0x3C }
  - { offsetInCU: 0x1659AA, offset: 0x1659AA, size: 0x8, addend: 0x0, symName: __ZNK5Eigen9DenseBaseINS_13CwiseBinaryOpINS_8internal17scalar_product_opIffEEKNS_9TransposeIKNS_5BlockIKNS5_IKNS6_INS6_INS_6MatrixIfLi3ELi3ELi0ELi3ELi3EEELi3ELi1ELb1EEELin1ELi1ELb0EEEEELi1ELin1ELb1EEEEEKNS6_IKNS6_INS6_IS8_Lin1ELin1ELb0EEELin1ELin1ELb0EEELin1ELi1ELb1EEEEEE3sumEv, symObjAddr: 0x13040, symBinAddr: 0x10001732C, symSize: 0x74 }
  - { offsetInCU: 0x1659D3, offset: 0x1659D3, size: 0x8, addend: 0x0, symName: __ZN5Eigen5BlockIKNS_9TransposeIKNS0_INS0_INS_6MatrixIfLi3ELi3ELi0ELi3ELi3EEELi3ELi1ELb1EEELin1ELi1ELb0EEEEELi1ELin1ELb1EEC1ERS8_l, symObjAddr: 0x130B4, symBinAddr: 0x1000173A0, symSize: 0x3C }
  - { offsetInCU: 0x165A19, offset: 0x165A19, size: 0x8, addend: 0x0, symName: __ZN5Eigen5BlockIKNS_9TransposeIKNS0_INS0_INS_6MatrixIfLi3ELi3ELi0ELi3ELi3EEELi3ELi1ELb1EEELin1ELi1ELb0EEEEELi1ELin1ELb1EEC2ERS8_l, symObjAddr: 0x130F0, symBinAddr: 0x1000173DC, symSize: 0xCC }
  - { offsetInCU: 0x165A5F, offset: 0x165A5F, size: 0x8, addend: 0x0, symName: __ZN5Eigen9BlockImplIKNS_9TransposeIKNS_5BlockINS2_INS_6MatrixIfLi3ELi3ELi0ELi3ELi3EEELi3ELi1ELb1EEELin1ELi1ELb0EEEEELi1ELin1ELb1ENS_5DenseEEC2ERS9_l, symObjAddr: 0x131BC, symBinAddr: 0x1000174A8, symSize: 0x3C }
  - { offsetInCU: 0x165AA5, offset: 0x165AA5, size: 0x8, addend: 0x0, symName: __ZN5Eigen8internal15BlockImpl_denseIKNS_9TransposeIKNS_5BlockINS3_INS_6MatrixIfLi3ELi3ELi0ELi3ELi3EEELi3ELi1ELb1EEELin1ELi1ELb0EEEEELi1ELin1ELb1ELb1EEC2ERSA_l, symObjAddr: 0x131F8, symBinAddr: 0x1000174E4, symSize: 0xB8 }
  - { offsetInCU: 0x165AED, offset: 0x165AED, size: 0x8, addend: 0x0, symName: __ZNK5Eigen13TransposeImplIKNS_5BlockINS1_INS_6MatrixIfLi3ELi3ELi0ELi3ELi3EEELi3ELi1ELb1EEELin1ELi1ELb0EEENS_5DenseEE4dataEv, symObjAddr: 0x132B0, symBinAddr: 0x10001759C, symSize: 0x2C }
  - { offsetInCU: 0x165B13, offset: 0x165B13, size: 0x8, addend: 0x0, symName: __ZNK5Eigen13TransposeImplIKNS_5BlockINS1_INS_6MatrixIfLi3ELi3ELi0ELi3ELi3EEELi3ELi1ELb1EEELin1ELi1ELb0EEENS_5DenseEE11outerStrideEv, symObjAddr: 0x132DC, symBinAddr: 0x1000175C8, symSize: 0x2C }
  - { offsetInCU: 0x165B39, offset: 0x165B39, size: 0x8, addend: 0x0, symName: __ZN5Eigen7MapBaseINS_5BlockIKNS_9TransposeIKNS1_INS1_INS_6MatrixIfLi3ELi3ELi0ELi3ELi3EEELi3ELi1ELb1EEELin1ELi1ELb0EEEEELi1ELin1ELb1EEELi0EEC2EPKfll, symObjAddr: 0x13308, symBinAddr: 0x1000175F4, symSize: 0x130 }
  - { offsetInCU: 0x165B8D, offset: 0x165B8D, size: 0x8, addend: 0x0, symName: __ZN5Eigen8internal15BlockImpl_denseIKNS_9TransposeIKNS_5BlockINS3_INS_6MatrixIfLi3ELi3ELi0ELi3ELi3EEELi3ELi1ELb1EEELin1ELi1ELb0EEEEELi1ELin1ELb1ELb1EE4initEv, symObjAddr: 0x13438, symBinAddr: 0x100017724, symSize: 0x34 }
  - { offsetInCU: 0x165BB3, offset: 0x165BB3, size: 0x8, addend: 0x0, symName: __ZN5Eigen10MatrixBaseINS_5BlockIKNS_9TransposeIKNS1_INS1_INS_6MatrixIfLi3ELi3ELi0ELi3ELi3EEELi3ELi1ELb1EEELin1ELi1ELb0EEEEELi1ELin1ELb1EEEEC2Ev, symObjAddr: 0x1346C, symBinAddr: 0x100017758, symSize: 0x2C }
  - { offsetInCU: 0x165BDD, offset: 0x165BDD, size: 0x8, addend: 0x0, symName: __ZNK5Eigen7MapBaseINS_5BlockIKNS_9TransposeIKNS1_INS1_INS_6MatrixIfLi3ELi3ELi0ELi3ELi3EEELi3ELi1ELb1EEELin1ELi1ELb0EEEEELi1ELin1ELb1EEELi0EE11checkSanityISA_EEvNS_8internal9enable_ifIXeqsr8internal6traitsIT_EE9AlignmentLi0EEPvE4typeE, symObjAddr: 0x13498, symBinAddr: 0x100017784, symSize: 0x14 }
  - { offsetInCU: 0x165C17, offset: 0x165C17, size: 0x8, addend: 0x0, symName: __ZN5Eigen9DenseBaseINS_5BlockIKNS_9TransposeIKNS1_INS1_INS_6MatrixIfLi3ELi3ELi0ELi3ELi3EEELi3ELi1ELb1EEELin1ELi1ELb0EEEEELi1ELin1ELb1EEEEC2Ev, symObjAddr: 0x134AC, symBinAddr: 0x100017798, symSize: 0x14 }
  - { offsetInCU: 0x165C41, offset: 0x165C41, size: 0x8, addend: 0x0, symName: __ZNK5Eigen9EigenBaseINS_5BlockIKNS_9TransposeIKNS1_INS1_INS_6MatrixIfLi3ELi3ELi0ELi3ELi3EEELi3ELi1ELb1EEELin1ELi1ELb0EEEEELi1ELin1ELb1EEEE7derivedEv, symObjAddr: 0x134C0, symBinAddr: 0x1000177AC, symSize: 0x14 }
  - { offsetInCU: 0x165C67, offset: 0x165C67, size: 0x8, addend: 0x0, symName: __ZN5Eigen9TransposeIKNS_5BlockIKNS0_IKNS1_INS1_INS_6MatrixIfLi3ELi3ELi0ELi3ELi3EEELi3ELi1ELb1EEELin1ELi1ELb0EEEEELi1ELin1ELb1EEEEC1ERSA_, symObjAddr: 0x134D4, symBinAddr: 0x1000177C0, symSize: 0x34 }
  - { offsetInCU: 0x165C9F, offset: 0x165C9F, size: 0x8, addend: 0x0, symName: __ZN5Eigen9TransposeIKNS_5BlockIKNS0_IKNS1_INS1_INS_6MatrixIfLi3ELi3ELi0ELi3ELi3EEELi3ELi1ELb1EEELin1ELi1ELb0EEEEELi1ELin1ELb1EEEEC2ERSA_, symObjAddr: 0x13508, symBinAddr: 0x1000177F4, symSize: 0x40 }
  - { offsetInCU: 0x165CD7, offset: 0x165CD7, size: 0x8, addend: 0x0, symName: __ZN5Eigen13TransposeImplIKNS_5BlockIKNS_9TransposeIKNS1_INS1_INS_6MatrixIfLi3ELi3ELi0ELi3ELi3EEELi3ELi1ELb1EEELin1ELi1ELb0EEEEELi1ELin1ELb1EEENS_5DenseEEC2Ev, symObjAddr: 0x13548, symBinAddr: 0x100017834, symSize: 0x2C }
  - { offsetInCU: 0x165D01, offset: 0x165D01, size: 0x8, addend: 0x0, symName: __ZN5Eigen10MatrixBaseINS_9TransposeIKNS_5BlockIKNS1_IKNS2_INS2_INS_6MatrixIfLi3ELi3ELi0ELi3ELi3EEELi3ELi1ELb1EEELin1ELi1ELb0EEEEELi1ELin1ELb1EEEEEEC2Ev, symObjAddr: 0x13574, symBinAddr: 0x100017860, symSize: 0x2C }
  - { offsetInCU: 0x165D2B, offset: 0x165D2B, size: 0x8, addend: 0x0, symName: __ZN5Eigen9DenseBaseINS_9TransposeIKNS_5BlockIKNS1_IKNS2_INS2_INS_6MatrixIfLi3ELi3ELi0ELi3ELi3EEELi3ELi1ELb1EEELin1ELi1ELb0EEEEELi1ELin1ELb1EEEEEEC2Ev, symObjAddr: 0x135A0, symBinAddr: 0x10001788C, symSize: 0x14 }
  - { offsetInCU: 0x165D55, offset: 0x165D55, size: 0x8, addend: 0x0, symName: __ZNK5Eigen9EigenBaseINS_9TransposeIKNS_5BlockIKNS1_IKNS2_INS2_INS_6MatrixIfLi3ELi3ELi0ELi3ELi3EEELi3ELi1ELb1EEELin1ELi1ELb0EEEEELi1ELin1ELb1EEEEEE7derivedEv, symObjAddr: 0x135B4, symBinAddr: 0x1000178A0, symSize: 0x14 }
  - { offsetInCU: 0x165D7B, offset: 0x165D7B, size: 0x8, addend: 0x0, symName: __ZNK5Eigen9EigenBaseINS_5BlockIKNS1_INS1_INS_6MatrixIfLi3ELi3ELi0ELi3ELi3EEELin1ELin1ELb0EEELin1ELin1ELb0EEELin1ELi1ELb1EEEE7derivedEv, symObjAddr: 0x135C8, symBinAddr: 0x1000178B4, symSize: 0x14 }
  - { offsetInCU: 0x165DA1, offset: 0x165DA1, size: 0x8, addend: 0x0, symName: __ZN5Eigen8internal17scalar_product_opIffEC1Ev, symObjAddr: 0x135DC, symBinAddr: 0x1000178C8, symSize: 0x2C }
  - { offsetInCU: 0x165DCB, offset: 0x165DCB, size: 0x8, addend: 0x0, symName: __ZN5Eigen13CwiseBinaryOpINS_8internal17scalar_product_opIffEEKNS_9TransposeIKNS_5BlockIKNS4_IKNS5_INS5_INS_6MatrixIfLi3ELi3ELi0ELi3ELi3EEELi3ELi1ELb1EEELin1ELi1ELb0EEEEELi1ELin1ELb1EEEEEKNS5_IKNS5_INS5_IS7_Lin1ELin1ELb0EEELin1ELin1ELb0EEELin1ELi1ELb1EEEEC1ERSG_RSL_RKS3_, symObjAddr: 0x13608, symBinAddr: 0x1000178F4, symSize: 0x44 }
  - { offsetInCU: 0x165E1F, offset: 0x165E1F, size: 0x8, addend: 0x0, symName: __ZN5Eigen8internal17scalar_product_opIffEC2Ev, symObjAddr: 0x1364C, symBinAddr: 0x100017938, symSize: 0x14 }
  - { offsetInCU: 0x165E49, offset: 0x165E49, size: 0x8, addend: 0x0, symName: __ZN5Eigen13CwiseBinaryOpINS_8internal17scalar_product_opIffEEKNS_9TransposeIKNS_5BlockIKNS4_IKNS5_INS5_INS_6MatrixIfLi3ELi3ELi0ELi3ELi3EEELi3ELi1ELb1EEELin1ELi1ELb0EEEEELi1ELin1ELb1EEEEEKNS5_IKNS5_INS5_IS7_Lin1ELin1ELb0EEELin1ELin1ELb0EEELin1ELi1ELb1EEEEC2ERSG_RSL_RKS3_, symObjAddr: 0x13660, symBinAddr: 0x10001794C, symSize: 0x100 }
  - { offsetInCU: 0x165EA2, offset: 0x165EA2, size: 0x8, addend: 0x0, symName: __ZN5Eigen17CwiseBinaryOpImplINS_8internal17scalar_product_opIffEEKNS_9TransposeIKNS_5BlockIKNS4_IKNS5_INS5_INS_6MatrixIfLi3ELi3ELi0ELi3ELi3EEELi3ELi1ELb1EEELin1ELi1ELb0EEEEELi1ELin1ELb1EEEEEKNS5_IKNS5_INS5_IS7_Lin1ELin1ELb0EEELin1ELin1ELb0EEELin1ELi1ELb1EEENS_5DenseEEC2Ev, symObjAddr: 0x13760, symBinAddr: 0x100017A4C, symSize: 0x2C }
  - { offsetInCU: 0x165ECE, offset: 0x165ECE, size: 0x8, addend: 0x0, symName: __ZN5Eigen8internal17scalar_product_opIffEC1ERKS2_, symObjAddr: 0x1378C, symBinAddr: 0x100017A78, symSize: 0x34 }
  - { offsetInCU: 0x165F03, offset: 0x165F03, size: 0x8, addend: 0x0, symName: __ZNK5Eigen9TransposeIKNS_5BlockIKNS0_IKNS1_INS1_INS_6MatrixIfLi3ELi3ELi0ELi3ELi3EEELi3ELi1ELb1EEELin1ELi1ELb0EEEEELi1ELin1ELb1EEEE4rowsEv, symObjAddr: 0x137C0, symBinAddr: 0x100017AAC, symSize: 0x24 }
  - { offsetInCU: 0x165F29, offset: 0x165F29, size: 0x8, addend: 0x0, symName: __ZNK5Eigen7MapBaseINS_5BlockIKNS1_INS1_INS_6MatrixIfLi3ELi3ELi0ELi3ELi3EEELin1ELin1ELb0EEELin1ELin1ELb0EEELin1ELi1ELb1EEELi0EE4rowsEv, symObjAddr: 0x137E4, symBinAddr: 0x100017AD0, symSize: 0x28 }
  - { offsetInCU: 0x165F4F, offset: 0x165F4F, size: 0x8, addend: 0x0, symName: __ZNK5Eigen9TransposeIKNS_5BlockIKNS0_IKNS1_INS1_INS_6MatrixIfLi3ELi3ELi0ELi3ELi3EEELi3ELi1ELb1EEELin1ELi1ELb0EEEEELi1ELin1ELb1EEEE4colsEv, symObjAddr: 0x1380C, symBinAddr: 0x100017AF8, symSize: 0x24 }
  - { offsetInCU: 0x165F75, offset: 0x165F75, size: 0x8, addend: 0x0, symName: __ZNK5Eigen7MapBaseINS_5BlockIKNS1_INS1_INS_6MatrixIfLi3ELi3ELi0ELi3ELi3EEELin1ELin1ELb0EEELin1ELin1ELb0EEELin1ELi1ELb1EEELi0EE4colsEv, symObjAddr: 0x13830, symBinAddr: 0x100017B1C, symSize: 0x20 }
  - { offsetInCU: 0x165F9B, offset: 0x165F9B, size: 0x8, addend: 0x0, symName: __ZN5Eigen10MatrixBaseINS_13CwiseBinaryOpINS_8internal17scalar_product_opIffEEKNS_9TransposeIKNS_5BlockIKNS5_IKNS6_INS6_INS_6MatrixIfLi3ELi3ELi0ELi3ELi3EEELi3ELi1ELb1EEELin1ELi1ELb0EEEEELi1ELin1ELb1EEEEEKNS6_IKNS6_INS6_IS8_Lin1ELin1ELb0EEELin1ELin1ELb0EEELin1ELi1ELb1EEEEEEC2Ev, symObjAddr: 0x13850, symBinAddr: 0x100017B3C, symSize: 0x2C }
  - { offsetInCU: 0x165FC5, offset: 0x165FC5, size: 0x8, addend: 0x0, symName: __ZN5Eigen9DenseBaseINS_13CwiseBinaryOpINS_8internal17scalar_product_opIffEEKNS_9TransposeIKNS_5BlockIKNS5_IKNS6_INS6_INS_6MatrixIfLi3ELi3ELi0ELi3ELi3EEELi3ELi1ELb1EEELin1ELi1ELb0EEEEELi1ELin1ELb1EEEEEKNS6_IKNS6_INS6_IS8_Lin1ELin1ELb0EEELin1ELin1ELb0EEELin1ELi1ELb1EEEEEEC2Ev, symObjAddr: 0x1387C, symBinAddr: 0x100017B68, symSize: 0x14 }
  - { offsetInCU: 0x165FEF, offset: 0x165FEF, size: 0x8, addend: 0x0, symName: __ZN5Eigen8internal17scalar_product_opIffEC2ERKS2_, symObjAddr: 0x13890, symBinAddr: 0x100017B7C, symSize: 0x18 }
  - { offsetInCU: 0x166024, offset: 0x166024, size: 0x8, addend: 0x0, symName: __ZNK5Eigen7MapBaseINS_5BlockIKNS_9TransposeIKNS1_INS1_INS_6MatrixIfLi3ELi3ELi0ELi3ELi3EEELi3ELi1ELb1EEELin1ELi1ELb0EEEEELi1ELin1ELb1EEELi0EE4colsEv, symObjAddr: 0x138A8, symBinAddr: 0x100017B94, symSize: 0x28 }
  - { offsetInCU: 0x16604A, offset: 0x16604A, size: 0x8, addend: 0x0, symName: __ZNK5Eigen7MapBaseINS_5BlockIKNS_9TransposeIKNS1_INS1_INS_6MatrixIfLi3ELi3ELi0ELi3ELi3EEELi3ELi1ELb1EEELin1ELi1ELb0EEEEELi1ELin1ELb1EEELi0EE4rowsEv, symObjAddr: 0x138D0, symBinAddr: 0x100017BBC, symSize: 0x20 }
  - { offsetInCU: 0x166070, offset: 0x166070, size: 0x8, addend: 0x0, symName: __ZN5Eigen5BlockIKNS0_INS0_INS_6MatrixIfLi3ELi3ELi0ELi3ELi3EEELin1ELin1ELb0EEELin1ELin1ELb0EEELin1ELi1ELb1EEC1ERS5_l, symObjAddr: 0x138F0, symBinAddr: 0x100017BDC, symSize: 0x3C }
  - { offsetInCU: 0x1660B6, offset: 0x1660B6, size: 0x8, addend: 0x0, symName: __ZN5Eigen5BlockIKNS0_INS0_INS_6MatrixIfLi3ELi3ELi0ELi3ELi3EEELin1ELin1ELb0EEELin1ELin1ELb0EEELin1ELi1ELb1EEC2ERS5_l, symObjAddr: 0x1392C, symBinAddr: 0x100017C18, symSize: 0xAC }
  - { offsetInCU: 0x1660FC, offset: 0x1660FC, size: 0x8, addend: 0x0, symName: __ZN5Eigen9BlockImplIKNS_5BlockINS1_INS_6MatrixIfLi3ELi3ELi0ELi3ELi3EEELin1ELin1ELb0EEELin1ELin1ELb0EEELin1ELi1ELb1ENS_5DenseEEC2ERS6_l, symObjAddr: 0x139D8, symBinAddr: 0x100017CC4, symSize: 0x3C }
  - { offsetInCU: 0x166142, offset: 0x166142, size: 0x8, addend: 0x0, symName: __ZN5Eigen8internal15BlockImpl_denseIKNS_5BlockINS2_INS_6MatrixIfLi3ELi3ELi0ELi3ELi3EEELin1ELin1ELb0EEELin1ELin1ELb0EEELin1ELi1ELb1ELb1EEC2ERS7_l, symObjAddr: 0x13A14, symBinAddr: 0x100017D00, symSize: 0xB8 }
  - { offsetInCU: 0x16618A, offset: 0x16618A, size: 0x8, addend: 0x0, symName: __ZN5Eigen7MapBaseINS_5BlockIKNS1_INS1_INS_6MatrixIfLi3ELi3ELi0ELi3ELi3EEELin1ELin1ELb0EEELin1ELin1ELb0EEELin1ELi1ELb1EEELi0EEC2EPKfll, symObjAddr: 0x13ACC, symBinAddr: 0x100017DB8, symSize: 0x11C }
  - { offsetInCU: 0x1661DE, offset: 0x1661DE, size: 0x8, addend: 0x0, symName: __ZN5Eigen8internal15BlockImpl_denseIKNS_5BlockINS2_INS_6MatrixIfLi3ELi3ELi0ELi3ELi3EEELin1ELin1ELb0EEELin1ELin1ELb0EEELin1ELi1ELb1ELb1EE4initEv, symObjAddr: 0x13BE8, symBinAddr: 0x100017ED4, symSize: 0x34 }
  - { offsetInCU: 0x166204, offset: 0x166204, size: 0x8, addend: 0x0, symName: __ZN5Eigen10MatrixBaseINS_5BlockIKNS1_INS1_INS_6MatrixIfLi3ELi3ELi0ELi3ELi3EEELin1ELin1ELb0EEELin1ELin1ELb0EEELin1ELi1ELb1EEEEC2Ev, symObjAddr: 0x13C1C, symBinAddr: 0x100017F08, symSize: 0x2C }
  - { offsetInCU: 0x16622E, offset: 0x16622E, size: 0x8, addend: 0x0, symName: __ZNK5Eigen7MapBaseINS_5BlockIKNS1_INS1_INS_6MatrixIfLi3ELi3ELi0ELi3ELi3EEELin1ELin1ELb0EEELin1ELin1ELb0EEELin1ELi1ELb1EEELi0EE11checkSanityIS7_EEvNS_8internal9enable_ifIXeqsr8internal6traitsIT_EE9AlignmentLi0EEPvE4typeE, symObjAddr: 0x13C48, symBinAddr: 0x100017F34, symSize: 0x14 }
  - { offsetInCU: 0x166268, offset: 0x166268, size: 0x8, addend: 0x0, symName: __ZN5Eigen9DenseBaseINS_5BlockIKNS1_INS1_INS_6MatrixIfLi3ELi3ELi0ELi3ELi3EEELin1ELin1ELb0EEELin1ELin1ELb0EEELin1ELi1ELb1EEEEC2Ev, symObjAddr: 0x13C5C, symBinAddr: 0x100017F48, symSize: 0x14 }
  - { offsetInCU: 0x166292, offset: 0x166292, size: 0x8, addend: 0x0, symName: __ZNK5Eigen9EigenBaseINS_13CwiseBinaryOpINS_8internal17scalar_product_opIffEEKNS_9TransposeIKNS_5BlockIKNS5_IKNS6_INS6_INS_6MatrixIfLi3ELi3ELi0ELi3ELi3EEELi3ELi1ELb1EEELin1ELi1ELb0EEEEELi1ELin1ELb1EEEEEKNS6_IKNS6_INS6_IS8_Lin1ELin1ELb0EEELin1ELin1ELb0EEELin1ELi1ELb1EEEEEE4sizeEv, symObjAddr: 0x13C70, symBinAddr: 0x100017F5C, symSize: 0x44 }
  - { offsetInCU: 0x1662B8, offset: 0x1662B8, size: 0x8, addend: 0x0, symName: __ZNK5Eigen9EigenBaseINS_13CwiseBinaryOpINS_8internal17scalar_product_opIffEEKNS_9TransposeIKNS_5BlockIKNS5_IKNS6_INS6_INS_6MatrixIfLi3ELi3ELi0ELi3ELi3EEELi3ELi1ELb1EEELin1ELi1ELb0EEEEELi1ELin1ELb1EEEEEKNS6_IKNS6_INS6_IS8_Lin1ELin1ELb0EEELin1ELin1ELb0EEELin1ELi1ELb1EEEEEE7derivedEv, symObjAddr: 0x13CB4, symBinAddr: 0x100017FA0, symSize: 0x14 }
  - { offsetInCU: 0x1662DE, offset: 0x1662DE, size: 0x8, addend: 0x0, symName: __ZNK5Eigen9DenseBaseINS_13CwiseBinaryOpINS_8internal17scalar_product_opIffEEKNS_9TransposeIKNS_5BlockIKNS5_IKNS6_INS6_INS_6MatrixIfLi3ELi3ELi0ELi3ELi3EEELi3ELi1ELb1EEELin1ELi1ELb0EEEEELi1ELin1ELb1EEEEEKNS6_IKNS6_INS6_IS8_Lin1ELin1ELb0EEELin1ELin1ELb0EEELin1ELi1ELb1EEEEEE5reduxINS2_13scalar_sum_opIffEEEEfRKT_, symObjAddr: 0x13CC8, symBinAddr: 0x100017FB4, symSize: 0x10C }
  - { offsetInCU: 0x16633A, offset: 0x16633A, size: 0x8, addend: 0x0, symName: __ZNK5Eigen9EigenBaseINS_13CwiseBinaryOpINS_8internal17scalar_product_opIffEEKNS_9TransposeIKNS_5BlockIKNS5_IKNS6_INS6_INS_6MatrixIfLi3ELi3ELi0ELi3ELi3EEELi3ELi1ELb1EEELin1ELi1ELb0EEEEELi1ELin1ELb1EEEEEKNS6_IKNS6_INS6_IS8_Lin1ELin1ELb0EEELin1ELin1ELb0EEELin1ELi1ELb1EEEEEE4rowsEv, symObjAddr: 0x13DD4, symBinAddr: 0x1000180C0, symSize: 0x38 }
  - { offsetInCU: 0x166360, offset: 0x166360, size: 0x8, addend: 0x0, symName: __ZNK5Eigen9EigenBaseINS_13CwiseBinaryOpINS_8internal17scalar_product_opIffEEKNS_9TransposeIKNS_5BlockIKNS5_IKNS6_INS6_INS_6MatrixIfLi3ELi3ELi0ELi3ELi3EEELi3ELi1ELb1EEELin1ELi1ELb0EEEEELi1ELin1ELb1EEEEEKNS6_IKNS6_INS6_IS8_Lin1ELin1ELb0EEELin1ELin1ELb0EEELin1ELi1ELb1EEEEEE4colsEv, symObjAddr: 0x13E0C, symBinAddr: 0x1000180F8, symSize: 0x38 }
  - { offsetInCU: 0x166386, offset: 0x166386, size: 0x8, addend: 0x0, symName: __ZNK5Eigen13CwiseBinaryOpINS_8internal17scalar_product_opIffEEKNS_9TransposeIKNS_5BlockIKNS4_IKNS5_INS5_INS_6MatrixIfLi3ELi3ELi0ELi3ELi3EEELi3ELi1ELb1EEELin1ELi1ELb0EEEEELi1ELin1ELb1EEEEEKNS5_IKNS5_INS5_IS7_Lin1ELin1ELb0EEELin1ELin1ELb0EEELin1ELi1ELb1EEEE4rowsEv, symObjAddr: 0x13E44, symBinAddr: 0x100018130, symSize: 0x28 }
  - { offsetInCU: 0x1663AC, offset: 0x1663AC, size: 0x8, addend: 0x0, symName: __ZNK5Eigen13CwiseBinaryOpINS_8internal17scalar_product_opIffEEKNS_9TransposeIKNS_5BlockIKNS4_IKNS5_INS5_INS_6MatrixIfLi3ELi3ELi0ELi3ELi3EEELi3ELi1ELb1EEELin1ELi1ELb0EEEEELi1ELin1ELb1EEEEEKNS5_IKNS5_INS5_IS7_Lin1ELin1ELb0EEELin1ELin1ELb0EEELin1ELi1ELb1EEEE4colsEv, symObjAddr: 0x13E6C, symBinAddr: 0x100018158, symSize: 0x24 }
  - { offsetInCU: 0x1664B3, offset: 0x1664B3, size: 0x8, addend: 0x0, symName: __ZN5Eigen8internal15redux_evaluatorINS_13CwiseBinaryOpINS0_17scalar_product_opIffEEKNS_9TransposeIKNS_5BlockIKNS5_IKNS6_INS6_INS_6MatrixIfLi3ELi3ELi0ELi3ELi3EEELi3ELi1ELb1EEELin1ELi1ELb0EEEEELi1ELin1ELb1EEEEEKNS6_IKNS6_INS6_IS8_Lin1ELin1ELb0EEELin1ELin1ELb0EEELin1ELi1ELb1EEEEEEC1ERKSN_, symObjAddr: 0x13E90, symBinAddr: 0x10001817C, symSize: 0x34 }
  - { offsetInCU: 0x1664F1, offset: 0x1664F1, size: 0x8, addend: 0x0, symName: __ZN5Eigen8internal10redux_implINS0_13scalar_sum_opIffEENS0_15redux_evaluatorINS_13CwiseBinaryOpINS0_17scalar_product_opIffEEKNS_9TransposeIKNS_5BlockIKNS8_IKNS9_INS9_INS_6MatrixIfLi3ELi3ELi0ELi3ELi3EEELi3ELi1ELb1EEELin1ELi1ELb0EEEEELi1ELin1ELb1EEEEEKNS9_IKNS9_INS9_ISB_Lin1ELin1ELb0EEELin1ELin1ELb0EEELin1ELi1ELb1EEEEEEELi3ELi0EE3runISQ_EEfRKSR_RKS3_RKT_, symObjAddr: 0x13EC4, symBinAddr: 0x1000181B0, symSize: 0x3A4 }
  - { offsetInCU: 0x16666E, offset: 0x16666E, size: 0x8, addend: 0x0, symName: __ZN5Eigen8internal15redux_evaluatorINS_13CwiseBinaryOpINS0_17scalar_product_opIffEEKNS_9TransposeIKNS_5BlockIKNS5_IKNS6_INS6_INS_6MatrixIfLi3ELi3ELi0ELi3ELi3EEELi3ELi1ELb1EEELin1ELi1ELb0EEEEELi1ELin1ELb1EEEEEKNS6_IKNS6_INS6_IS8_Lin1ELin1ELb0EEELin1ELin1ELb0EEELin1ELi1ELb1EEEEEED1Ev, symObjAddr: 0x14268, symBinAddr: 0x100018554, symSize: 0x2C }
  - { offsetInCU: 0x16669B, offset: 0x16669B, size: 0x8, addend: 0x0, symName: __ZN5Eigen8internal15redux_evaluatorINS_13CwiseBinaryOpINS0_17scalar_product_opIffEEKNS_9TransposeIKNS_5BlockIKNS5_IKNS6_INS6_INS_6MatrixIfLi3ELi3ELi0ELi3ELi3EEELi3ELi1ELb1EEELin1ELi1ELb0EEEEELi1ELin1ELb1EEEEEKNS6_IKNS6_INS6_IS8_Lin1ELin1ELb0EEELin1ELin1ELb0EEELin1ELi1ELb1EEEEEEC2ERKSN_, symObjAddr: 0x14294, symBinAddr: 0x100018580, symSize: 0x34 }
  - { offsetInCU: 0x1666D4, offset: 0x1666D4, size: 0x8, addend: 0x0, symName: __ZN5Eigen8internal9evaluatorINS_13CwiseBinaryOpINS0_17scalar_product_opIffEEKNS_9TransposeIKNS_5BlockIKNS5_IKNS6_INS6_INS_6MatrixIfLi3ELi3ELi0ELi3ELi3EEELi3ELi1ELb1EEELin1ELi1ELb0EEEEELi1ELin1ELb1EEEEEKNS6_IKNS6_INS6_IS8_Lin1ELin1ELb0EEELin1ELin1ELb0EEELin1ELi1ELb1EEEEEEC2ERKSN_, symObjAddr: 0x142C8, symBinAddr: 0x1000185B4, symSize: 0x34 }
  - { offsetInCU: 0x16670D, offset: 0x16670D, size: 0x8, addend: 0x0, symName: __ZN5Eigen8internal16binary_evaluatorINS_13CwiseBinaryOpINS0_17scalar_product_opIffEEKNS_9TransposeIKNS_5BlockIKNS5_IKNS6_INS6_INS_6MatrixIfLi3ELi3ELi0ELi3ELi3EEELi3ELi1ELb1EEELin1ELi1ELb0EEEEELi1ELin1ELb1EEEEEKNS6_IKNS6_INS6_IS8_Lin1ELin1ELb0EEELin1ELin1ELb0EEELin1ELi1ELb1EEEEENS0_10IndexBasedESO_ffEC2ERKSN_, symObjAddr: 0x142FC, symBinAddr: 0x1000185E8, symSize: 0x64 }
  - { offsetInCU: 0x166746, offset: 0x166746, size: 0x8, addend: 0x0, symName: __ZN5Eigen8internal14evaluator_baseINS_13CwiseBinaryOpINS0_17scalar_product_opIffEEKNS_9TransposeIKNS_5BlockIKNS5_IKNS6_INS6_INS_6MatrixIfLi3ELi3ELi0ELi3ELi3EEELi3ELi1ELb1EEELin1ELi1ELb0EEEEELi1ELin1ELb1EEEEEKNS6_IKNS6_INS6_IS8_Lin1ELin1ELb0EEELin1ELin1ELb0EEELin1ELi1ELb1EEEEEEC2Ev, symObjAddr: 0x14360, symBinAddr: 0x10001864C, symSize: 0x14 }
  - { offsetInCU: 0x166770, offset: 0x166770, size: 0x8, addend: 0x0, symName: __ZN5Eigen8internal16binary_evaluatorINS_13CwiseBinaryOpINS0_17scalar_product_opIffEEKNS_9TransposeIKNS_5BlockIKNS5_IKNS6_INS6_INS_6MatrixIfLi3ELi3ELi0ELi3ELi3EEELi3ELi1ELb1EEELin1ELi1ELb0EEEEELi1ELin1ELb1EEEEEKNS6_IKNS6_INS6_IS8_Lin1ELin1ELb0EEELin1ELin1ELb0EEELin1ELi1ELb1EEEEENS0_10IndexBasedESO_ffE4DataC1ERKSN_, symObjAddr: 0x14374, symBinAddr: 0x100018660, symSize: 0x34 }
  - { offsetInCU: 0x1667A9, offset: 0x1667A9, size: 0x8, addend: 0x0, symName: __ZN5Eigen8internal14evaluator_baseINS_13CwiseBinaryOpINS0_17scalar_product_opIffEEKNS_9TransposeIKNS_5BlockIKNS5_IKNS6_INS6_INS_6MatrixIfLi3ELi3ELi0ELi3ELi3EEELi3ELi1ELb1EEELin1ELi1ELb0EEEEELi1ELin1ELb1EEEEEKNS6_IKNS6_INS6_IS8_Lin1ELin1ELb0EEELin1ELin1ELb0EEELin1ELi1ELb1EEEEEED2Ev, symObjAddr: 0x143A8, symBinAddr: 0x100018694, symSize: 0x14 }
  - { offsetInCU: 0x1667D3, offset: 0x1667D3, size: 0x8, addend: 0x0, symName: __ZN5Eigen8internal16binary_evaluatorINS_13CwiseBinaryOpINS0_17scalar_product_opIffEEKNS_9TransposeIKNS_5BlockIKNS5_IKNS6_INS6_INS_6MatrixIfLi3ELi3ELi0ELi3ELi3EEELi3ELi1ELb1EEELin1ELi1ELb0EEEEELi1ELin1ELb1EEEEEKNS6_IKNS6_INS6_IS8_Lin1ELin1ELb0EEELin1ELin1ELb0EEELin1ELi1ELb1EEEEENS0_10IndexBasedESO_ffE4DataC2ERKSN_, symObjAddr: 0x143BC, symBinAddr: 0x1000186A8, symSize: 0xA8 }
  - { offsetInCU: 0x16680C, offset: 0x16680C, size: 0x8, addend: 0x0, symName: __ZNK5Eigen13CwiseBinaryOpINS_8internal17scalar_product_opIffEEKNS_9TransposeIKNS_5BlockIKNS4_IKNS5_INS5_INS_6MatrixIfLi3ELi3ELi0ELi3ELi3EEELi3ELi1ELb1EEELin1ELi1ELb0EEEEELi1ELin1ELb1EEEEEKNS5_IKNS5_INS5_IS7_Lin1ELin1ELb0EEELin1ELin1ELb0EEELin1ELi1ELb1EEEE7functorEv, symObjAddr: 0x14464, symBinAddr: 0x100018750, symSize: 0x18 }
  - { offsetInCU: 0x166832, offset: 0x166832, size: 0x8, addend: 0x0, symName: __ZNK5Eigen13CwiseBinaryOpINS_8internal17scalar_product_opIffEEKNS_9TransposeIKNS_5BlockIKNS4_IKNS5_INS5_INS_6MatrixIfLi3ELi3ELi0ELi3ELi3EEELi3ELi1ELb1EEELin1ELi1ELb0EEEEELi1ELin1ELb1EEEEEKNS5_IKNS5_INS5_IS7_Lin1ELin1ELb0EEELin1ELin1ELb0EEELin1ELi1ELb1EEEE3lhsEv, symObjAddr: 0x1447C, symBinAddr: 0x100018768, symSize: 0x14 }
  - { offsetInCU: 0x166858, offset: 0x166858, size: 0x8, addend: 0x0, symName: __ZN5Eigen8internal9evaluatorIKNS_9TransposeIKNS_5BlockIKNS2_IKNS3_INS3_INS_6MatrixIfLi3ELi3ELi0ELi3ELi3EEELi3ELi1ELb1EEELin1ELi1ELb0EEEEELi1ELin1ELb1EEEEEEC1ERSE_, symObjAddr: 0x14490, symBinAddr: 0x10001877C, symSize: 0x34 }
  - { offsetInCU: 0x166890, offset: 0x166890, size: 0x8, addend: 0x0, symName: __ZNK5Eigen13CwiseBinaryOpINS_8internal17scalar_product_opIffEEKNS_9TransposeIKNS_5BlockIKNS4_IKNS5_INS5_INS_6MatrixIfLi3ELi3ELi0ELi3ELi3EEELi3ELi1ELb1EEELin1ELi1ELb0EEEEELi1ELin1ELb1EEEEEKNS5_IKNS5_INS5_IS7_Lin1ELin1ELb0EEELin1ELin1ELb0EEELin1ELi1ELb1EEEE3rhsEv, symObjAddr: 0x144C4, symBinAddr: 0x1000187B0, symSize: 0x18 }
  - { offsetInCU: 0x1668B6, offset: 0x1668B6, size: 0x8, addend: 0x0, symName: __ZN5Eigen8internal9evaluatorIKNS_5BlockIKNS2_INS2_INS_6MatrixIfLi3ELi3ELi0ELi3ELi3EEELin1ELin1ELb0EEELin1ELin1ELb0EEELin1ELi1ELb1EEEEC1ERS9_, symObjAddr: 0x144DC, symBinAddr: 0x1000187C8, symSize: 0x34 }
  - { offsetInCU: 0x1668EE, offset: 0x1668EE, size: 0x8, addend: 0x0, symName: __ZN5Eigen8internal9evaluatorIKNS_9TransposeIKNS_5BlockIKNS2_IKNS3_INS3_INS_6MatrixIfLi3ELi3ELi0ELi3ELi3EEELi3ELi1ELb1EEELin1ELi1ELb0EEEEELi1ELin1ELb1EEEEEED1Ev, symObjAddr: 0x14510, symBinAddr: 0x1000187FC, symSize: 0x2C }
  - { offsetInCU: 0x16691A, offset: 0x16691A, size: 0x8, addend: 0x0, symName: __ZN5Eigen8internal9evaluatorIKNS_9TransposeIKNS_5BlockIKNS2_IKNS3_INS3_INS_6MatrixIfLi3ELi3ELi0ELi3ELi3EEELi3ELi1ELb1EEELin1ELi1ELb0EEEEELi1ELin1ELb1EEEEEEC2ERSE_, symObjAddr: 0x1453C, symBinAddr: 0x100018828, symSize: 0x34 }
  - { offsetInCU: 0x166952, offset: 0x166952, size: 0x8, addend: 0x0, symName: __ZN5Eigen8internal9evaluatorINS_9TransposeIKNS_5BlockIKNS2_IKNS3_INS3_INS_6MatrixIfLi3ELi3ELi0ELi3ELi3EEELi3ELi1ELb1EEELin1ELi1ELb0EEEEELi1ELin1ELb1EEEEEEC2ERKSD_, symObjAddr: 0x14570, symBinAddr: 0x10001885C, symSize: 0x34 }
  - { offsetInCU: 0x16698A, offset: 0x16698A, size: 0x8, addend: 0x0, symName: __ZN5Eigen8internal15unary_evaluatorINS_9TransposeIKNS_5BlockIKNS2_IKNS3_INS3_INS_6MatrixIfLi3ELi3ELi0ELi3ELi3EEELi3ELi1ELb1EEELin1ELi1ELb0EEEEELi1ELin1ELb1EEEEENS0_10IndexBasedEfEC2ERKSD_, symObjAddr: 0x145A4, symBinAddr: 0x100018890, symSize: 0x74 }
  - { offsetInCU: 0x1669C3, offset: 0x1669C3, size: 0x8, addend: 0x0, symName: __ZN5Eigen8internal14evaluator_baseINS_9TransposeIKNS_5BlockIKNS2_IKNS3_INS3_INS_6MatrixIfLi3ELi3ELi0ELi3ELi3EEELi3ELi1ELb1EEELin1ELi1ELb0EEEEELi1ELin1ELb1EEEEEEC2Ev, symObjAddr: 0x14618, symBinAddr: 0x100018904, symSize: 0x14 }
  - { offsetInCU: 0x1669ED, offset: 0x1669ED, size: 0x8, addend: 0x0, symName: __ZNK5Eigen9TransposeIKNS_5BlockIKNS0_IKNS1_INS1_INS_6MatrixIfLi3ELi3ELi0ELi3ELi3EEELi3ELi1ELb1EEELin1ELi1ELb0EEEEELi1ELin1ELb1EEEE16nestedExpressionEv, symObjAddr: 0x1462C, symBinAddr: 0x100018918, symSize: 0x14 }
  - { offsetInCU: 0x166A13, offset: 0x166A13, size: 0x8, addend: 0x0, symName: __ZN5Eigen8internal9evaluatorIKNS_5BlockIKNS_9TransposeIKNS2_INS2_INS_6MatrixIfLi3ELi3ELi0ELi3ELi3EEELi3ELi1ELb1EEELin1ELi1ELb0EEEEELi1ELin1ELb1EEEEC1ERSC_, symObjAddr: 0x14640, symBinAddr: 0x10001892C, symSize: 0x34 }
  - { offsetInCU: 0x166A4B, offset: 0x166A4B, size: 0x8, addend: 0x0, symName: __ZN5Eigen8internal14evaluator_baseINS_9TransposeIKNS_5BlockIKNS2_IKNS3_INS3_INS_6MatrixIfLi3ELi3ELi0ELi3ELi3EEELi3ELi1ELb1EEELin1ELi1ELb0EEEEELi1ELin1ELb1EEEEEED2Ev, symObjAddr: 0x14674, symBinAddr: 0x100018960, symSize: 0x14 }
  - { offsetInCU: 0x166A75, offset: 0x166A75, size: 0x8, addend: 0x0, symName: __ZN5Eigen8internal9evaluatorIKNS_5BlockIKNS_9TransposeIKNS2_INS2_INS_6MatrixIfLi3ELi3ELi0ELi3ELi3EEELi3ELi1ELb1EEELin1ELi1ELb0EEEEELi1ELin1ELb1EEEEC2ERSC_, symObjAddr: 0x14688, symBinAddr: 0x100018974, symSize: 0x34 }
  - { offsetInCU: 0x166AAD, offset: 0x166AAD, size: 0x8, addend: 0x0, symName: __ZN5Eigen8internal9evaluatorINS_5BlockIKNS_9TransposeIKNS2_INS2_INS_6MatrixIfLi3ELi3ELi0ELi3ELi3EEELi3ELi1ELb1EEELin1ELi1ELb0EEEEELi1ELin1ELb1EEEEC2ERKSB_, symObjAddr: 0x146BC, symBinAddr: 0x1000189A8, symSize: 0x34 }
  - { offsetInCU: 0x166AE6, offset: 0x166AE6, size: 0x8, addend: 0x0, symName: __ZN5Eigen8internal15block_evaluatorIKNS_9TransposeIKNS_5BlockINS3_INS_6MatrixIfLi3ELi3ELi0ELi3ELi3EEELi3ELi1ELb1EEELin1ELi1ELb0EEEEELi1ELin1ELb1ELb1EEC2ERKNS3_ISA_Li1ELin1ELb1EEE, symObjAddr: 0x146F0, symBinAddr: 0x1000189DC, symSize: 0xDC }
  - { offsetInCU: 0x166B1F, offset: 0x166B1F, size: 0x8, addend: 0x0, symName: __ZN5Eigen8internal17mapbase_evaluatorINS_5BlockIKNS_9TransposeIKNS2_INS2_INS_6MatrixIfLi3ELi3ELi0ELi3ELi3EEELi3ELi1ELb1EEELin1ELi1ELb0EEEEELi1ELin1ELb1EEENS4_IfLi1ELin1ELi1ELi1ELi3EEEEC2ERKSB_, symObjAddr: 0x147CC, symBinAddr: 0x100018AB8, symSize: 0xB4 }
  - { offsetInCU: 0x166B58, offset: 0x166B58, size: 0x8, addend: 0x0, symName: __ZNK5Eigen7MapBaseINS_5BlockIKNS_9TransposeIKNS1_INS1_INS_6MatrixIfLi3ELi3ELi0ELi3ELi3EEELi3ELi1ELb1EEELin1ELi1ELb0EEEEELi1ELin1ELb1EEELi0EE4dataEv, symObjAddr: 0x14880, symBinAddr: 0x100018B6C, symSize: 0x18 }
  - { offsetInCU: 0x166B7E, offset: 0x166B7E, size: 0x8, addend: 0x0, symName: __ZN5Eigen8internal17mapbase_evaluatorINS_5BlockIKNS_9TransposeIKNS2_INS2_INS_6MatrixIfLi3ELi3ELi0ELi3ELi3EEELi3ELi1ELb1EEELin1ELi1ELb0EEEEELi1ELin1ELb1EEENS4_IfLi1ELin1ELi1ELi1ELi3EEEED2Ev, symObjAddr: 0x14898, symBinAddr: 0x100018B84, symSize: 0x2C }
  - { offsetInCU: 0x166BAB, offset: 0x166BAB, size: 0x8, addend: 0x0, symName: __ZN5Eigen8internal14evaluator_baseINS_5BlockIKNS_9TransposeIKNS2_INS2_INS_6MatrixIfLi3ELi3ELi0ELi3ELi3EEELi3ELi1ELb1EEELin1ELi1ELb0EEEEELi1ELin1ELb1EEEEC2Ev, symObjAddr: 0x148C4, symBinAddr: 0x100018BB0, symSize: 0x14 }
  - { offsetInCU: 0x166BD5, offset: 0x166BD5, size: 0x8, addend: 0x0, symName: __ZNK5Eigen8internal15BlockImpl_denseIKNS_9TransposeIKNS_5BlockINS3_INS_6MatrixIfLi3ELi3ELi0ELi3ELi3EEELi3ELi1ELb1EEELin1ELi1ELb0EEEEELi1ELin1ELb1ELb1EE11innerStrideEv, symObjAddr: 0x148D8, symBinAddr: 0x100018BC4, symSize: 0x38 }
  - { offsetInCU: 0x166BFB, offset: 0x166BFB, size: 0x8, addend: 0x0, symName: __ZNK5Eigen8internal15BlockImpl_denseIKNS_9TransposeIKNS_5BlockINS3_INS_6MatrixIfLi3ELi3ELi0ELi3ELi3EEELi3ELi1ELb1EEELin1ELi1ELb0EEEEELi1ELin1ELb1ELb1EE11outerStrideEv, symObjAddr: 0x14910, symBinAddr: 0x100018BFC, symSize: 0x28 }
  - { offsetInCU: 0x166C21, offset: 0x166C21, size: 0x8, addend: 0x0, symName: __ZN5Eigen8internal14evaluator_baseINS_5BlockIKNS_9TransposeIKNS2_INS2_INS_6MatrixIfLi3ELi3ELi0ELi3ELi3EEELi3ELi1ELb1EEELin1ELi1ELb0EEEEELi1ELin1ELb1EEEED2Ev, symObjAddr: 0x14938, symBinAddr: 0x100018C24, symSize: 0x14 }
  - { offsetInCU: 0x166C4B, offset: 0x166C4B, size: 0x8, addend: 0x0, symName: __ZNK5Eigen13TransposeImplIKNS_5BlockINS1_INS_6MatrixIfLi3ELi3ELi0ELi3ELi3EEELi3ELi1ELb1EEELin1ELi1ELb0EEENS_5DenseEE11innerStrideEv, symObjAddr: 0x1494C, symBinAddr: 0x100018C38, symSize: 0x2C }
  - { offsetInCU: 0x166C71, offset: 0x166C71, size: 0x8, addend: 0x0, symName: __ZN5Eigen8internal9evaluatorIKNS_5BlockIKNS2_INS2_INS_6MatrixIfLi3ELi3ELi0ELi3ELi3EEELin1ELin1ELb0EEELin1ELin1ELb0EEELin1ELi1ELb1EEEEC2ERS9_, symObjAddr: 0x14978, symBinAddr: 0x100018C64, symSize: 0x34 }
  - { offsetInCU: 0x166CA9, offset: 0x166CA9, size: 0x8, addend: 0x0, symName: __ZN5Eigen8internal9evaluatorINS_5BlockIKNS2_INS2_INS_6MatrixIfLi3ELi3ELi0ELi3ELi3EEELin1ELin1ELb0EEELin1ELin1ELb0EEELin1ELi1ELb1EEEEC2ERKS8_, symObjAddr: 0x149AC, symBinAddr: 0x100018C98, symSize: 0x34 }
  - { offsetInCU: 0x166CE2, offset: 0x166CE2, size: 0x8, addend: 0x0, symName: __ZN5Eigen8internal15block_evaluatorIKNS_5BlockINS2_INS_6MatrixIfLi3ELi3ELi0ELi3ELi3EEELin1ELin1ELb0EEELin1ELin1ELb0EEELin1ELi1ELb1ELb1EEC2ERKNS2_IS7_Lin1ELi1ELb1EEE, symObjAddr: 0x149E0, symBinAddr: 0x100018CCC, symSize: 0xDC }
  - { offsetInCU: 0x166D1B, offset: 0x166D1B, size: 0x8, addend: 0x0, symName: __ZN5Eigen8internal17mapbase_evaluatorINS_5BlockIKNS2_INS2_INS_6MatrixIfLi3ELi3ELi0ELi3ELi3EEELin1ELin1ELb0EEELin1ELin1ELb0EEELin1ELi1ELb1EEENS3_IfLin1ELi1ELi0ELi3ELi1EEEEC2ERKS8_, symObjAddr: 0x14ABC, symBinAddr: 0x100018DA8, symSize: 0xB4 }
  - { offsetInCU: 0x166D54, offset: 0x166D54, size: 0x8, addend: 0x0, symName: __ZNK5Eigen7MapBaseINS_5BlockIKNS1_INS1_INS_6MatrixIfLi3ELi3ELi0ELi3ELi3EEELin1ELin1ELb0EEELin1ELin1ELb0EEELin1ELi1ELb1EEELi0EE4dataEv, symObjAddr: 0x14B70, symBinAddr: 0x100018E5C, symSize: 0x18 }
  - { offsetInCU: 0x166D7A, offset: 0x166D7A, size: 0x8, addend: 0x0, symName: __ZN5Eigen8internal17mapbase_evaluatorINS_5BlockIKNS2_INS2_INS_6MatrixIfLi3ELi3ELi0ELi3ELi3EEELin1ELin1ELb0EEELin1ELin1ELb0EEELin1ELi1ELb1EEENS3_IfLin1ELi1ELi0ELi3ELi1EEEED2Ev, symObjAddr: 0x14B88, symBinAddr: 0x100018E74, symSize: 0x2C }
  - { offsetInCU: 0x166DA7, offset: 0x166DA7, size: 0x8, addend: 0x0, symName: __ZN5Eigen8internal14evaluator_baseINS_5BlockIKNS2_INS2_INS_6MatrixIfLi3ELi3ELi0ELi3ELi3EEELin1ELin1ELb0EEELin1ELin1ELb0EEELin1ELi1ELb1EEEEC2Ev, symObjAddr: 0x14BB4, symBinAddr: 0x100018EA0, symSize: 0x14 }
  - { offsetInCU: 0x166DD1, offset: 0x166DD1, size: 0x8, addend: 0x0, symName: __ZNK5Eigen8internal15BlockImpl_denseIKNS_5BlockINS2_INS_6MatrixIfLi3ELi3ELi0ELi3ELi3EEELin1ELin1ELb0EEELin1ELin1ELb0EEELin1ELi1ELb1ELb1EE11innerStrideEv, symObjAddr: 0x14BC8, symBinAddr: 0x100018EB4, symSize: 0x28 }
  - { offsetInCU: 0x166DF7, offset: 0x166DF7, size: 0x8, addend: 0x0, symName: __ZNK5Eigen8internal15BlockImpl_denseIKNS_5BlockINS2_INS_6MatrixIfLi3ELi3ELi0ELi3ELi3EEELin1ELin1ELb0EEELin1ELin1ELb0EEELin1ELi1ELb1ELb1EE11outerStrideEv, symObjAddr: 0x14BF0, symBinAddr: 0x100018EDC, symSize: 0x28 }
  - { offsetInCU: 0x166E1D, offset: 0x166E1D, size: 0x8, addend: 0x0, symName: __ZN5Eigen8internal14evaluator_baseINS_5BlockIKNS2_INS2_INS_6MatrixIfLi3ELi3ELi0ELi3ELi3EEELin1ELin1ELb0EEELin1ELin1ELb0EEELin1ELi1ELb1EEEED2Ev, symObjAddr: 0x14C18, symBinAddr: 0x100018F04, symSize: 0x14 }
  - { offsetInCU: 0x166E47, offset: 0x166E47, size: 0x8, addend: 0x0, symName: __ZN5Eigen8internal9evaluatorIKNS_9TransposeIKNS_5BlockIKNS2_IKNS3_INS3_INS_6MatrixIfLi3ELi3ELi0ELi3ELi3EEELi3ELi1ELb1EEELin1ELi1ELb0EEEEELi1ELin1ELb1EEEEEED2Ev, symObjAddr: 0x14C2C, symBinAddr: 0x100018F18, symSize: 0x2C }
  - { offsetInCU: 0x166E73, offset: 0x166E73, size: 0x8, addend: 0x0, symName: __ZN5Eigen8internal9evaluatorINS_9TransposeIKNS_5BlockIKNS2_IKNS3_INS3_INS_6MatrixIfLi3ELi3ELi0ELi3ELi3EEELi3ELi1ELb1EEELin1ELi1ELb0EEEEELi1ELin1ELb1EEEEEED2Ev, symObjAddr: 0x14C58, symBinAddr: 0x100018F44, symSize: 0x2C }
  - { offsetInCU: 0x166E9F, offset: 0x166E9F, size: 0x8, addend: 0x0, symName: __ZN5Eigen8internal15unary_evaluatorINS_9TransposeIKNS_5BlockIKNS2_IKNS3_INS3_INS_6MatrixIfLi3ELi3ELi0ELi3ELi3EEELi3ELi1ELb1EEELin1ELi1ELb0EEEEELi1ELin1ELb1EEEEENS0_10IndexBasedEfED2Ev, symObjAddr: 0x14C84, symBinAddr: 0x100018F70, symSize: 0x34 }
  - { offsetInCU: 0x166ECB, offset: 0x166ECB, size: 0x8, addend: 0x0, symName: __ZN5Eigen8internal9evaluatorIKNS_5BlockIKNS_9TransposeIKNS2_INS2_INS_6MatrixIfLi3ELi3ELi0ELi3ELi3EEELi3ELi1ELb1EEELin1ELi1ELb0EEEEELi1ELin1ELb1EEEED1Ev, symObjAddr: 0x14CB8, symBinAddr: 0x100018FA4, symSize: 0x2C }
  - { offsetInCU: 0x166EF7, offset: 0x166EF7, size: 0x8, addend: 0x0, symName: __ZN5Eigen8internal9evaluatorIKNS_5BlockIKNS_9TransposeIKNS2_INS2_INS_6MatrixIfLi3ELi3ELi0ELi3ELi3EEELi3ELi1ELb1EEELin1ELi1ELb0EEEEELi1ELin1ELb1EEEED2Ev, symObjAddr: 0x14CE4, symBinAddr: 0x100018FD0, symSize: 0x2C }
  - { offsetInCU: 0x166F23, offset: 0x166F23, size: 0x8, addend: 0x0, symName: __ZN5Eigen8internal9evaluatorINS_5BlockIKNS_9TransposeIKNS2_INS2_INS_6MatrixIfLi3ELi3ELi0ELi3ELi3EEELi3ELi1ELb1EEELin1ELi1ELb0EEEEELi1ELin1ELb1EEEED2Ev, symObjAddr: 0x14D10, symBinAddr: 0x100018FFC, symSize: 0x2C }
  - { offsetInCU: 0x166F50, offset: 0x166F50, size: 0x8, addend: 0x0, symName: __ZN5Eigen8internal15block_evaluatorIKNS_9TransposeIKNS_5BlockINS3_INS_6MatrixIfLi3ELi3ELi0ELi3ELi3EEELi3ELi1ELb1EEELin1ELi1ELb0EEEEELi1ELin1ELb1ELb1EED2Ev, symObjAddr: 0x14D3C, symBinAddr: 0x100019028, symSize: 0x2C }
  - { offsetInCU: 0x166F7D, offset: 0x166F7D, size: 0x8, addend: 0x0, symName: __ZNK5Eigen8internal16binary_evaluatorINS_13CwiseBinaryOpINS0_17scalar_product_opIffEEKNS_9TransposeIKNS_5BlockIKNS5_IKNS6_INS6_INS_6MatrixIfLi3ELi3ELi0ELi3ELi3EEELi3ELi1ELb1EEELin1ELi1ELb0EEEEELi1ELin1ELb1EEEEEKNS6_IKNS6_INS6_IS8_Lin1ELin1ELb0EEELin1ELin1ELb0EEELin1ELi1ELb1EEEEENS0_10IndexBasedESO_ffE6packetILi0E19__simd128_float32_tEET0_l, symObjAddr: 0x14D8C, symBinAddr: 0x100019078, symSize: 0x70 }
  - { offsetInCU: 0x166FC5, offset: 0x166FC5, size: 0x8, addend: 0x0, symName: __ZNK5Eigen8internal16binary_evaluatorINS_13CwiseBinaryOpINS0_17scalar_product_opIffEEKNS_9TransposeIKNS_5BlockIKNS5_IKNS6_INS6_INS_6MatrixIfLi3ELi3ELi0ELi3ELi3EEELi3ELi1ELb1EEELin1ELi1ELb0EEEEELi1ELin1ELb1EEEEEKNS6_IKNS6_INS6_IS8_Lin1ELin1ELb0EEELin1ELin1ELb0EEELin1ELi1ELb1EEEEENS0_10IndexBasedESO_ffE5coeffEl, symObjAddr: 0x14DFC, symBinAddr: 0x1000190E8, symSize: 0x70 }
  - { offsetInCU: 0x166FFA, offset: 0x166FFA, size: 0x8, addend: 0x0, symName: __ZN5Eigen8internal18first_aligned_implILi16ENS_13CwiseBinaryOpINS0_17scalar_product_opIffEEKNS_9TransposeIKNS_5BlockIKNS5_IKNS6_INS6_INS_6MatrixIfLi3ELi3ELi0ELi3ELi3EEELi3ELi1ELb1EEELin1ELi1ELb0EEEEELi1ELin1ELb1EEEEEKNS6_IKNS6_INS6_IS8_Lin1ELin1ELb0EEELin1ELin1ELb0EEELin1ELi1ELb1EEEEELb1EE3runERKSN_, symObjAddr: 0x14E94, symBinAddr: 0x100019180, symSize: 0x14 }
  - { offsetInCU: 0x16701A, offset: 0x16701A, size: 0x8, addend: 0x0, symName: __ZNK5Eigen8internal16binary_evaluatorINS_13CwiseBinaryOpINS0_17scalar_product_opIffEEKNS_9TransposeIKNS_5BlockIKNS5_IKNS6_INS6_INS_6MatrixIfLi3ELi3ELi0ELi3ELi3EEELi3ELi1ELb1EEELin1ELi1ELb0EEEEELi1ELin1ELb1EEEEEKNS6_IKNS6_INS6_IS8_Lin1ELin1ELb0EEELin1ELin1ELb0EEELin1ELi1ELb1EEEEENS0_10IndexBasedESO_ffE4Data4funcEv, symObjAddr: 0x14EA8, symBinAddr: 0x100019194, symSize: 0x14 }
  - { offsetInCU: 0x167040, offset: 0x167040, size: 0x8, addend: 0x0, symName: __ZNK5Eigen8internal17scalar_product_opIffE8packetOpI19__simd128_float32_tEET_RKS5_S7_, symObjAddr: 0x14EBC, symBinAddr: 0x1000191A8, symSize: 0x30 }
  - { offsetInCU: 0x16708B, offset: 0x16708B, size: 0x8, addend: 0x0, symName: __ZNK5Eigen8internal15unary_evaluatorINS_9TransposeIKNS_5BlockIKNS2_IKNS3_INS3_INS_6MatrixIfLi3ELi3ELi0ELi3ELi3EEELi3ELi1ELb1EEELin1ELi1ELb0EEEEELi1ELin1ELb1EEEEENS0_10IndexBasedEfE6packetILi0E19__simd128_float32_tEET0_l, symObjAddr: 0x14EEC, symBinAddr: 0x1000191D8, symSize: 0x2C }
  - { offsetInCU: 0x1670D3, offset: 0x1670D3, size: 0x8, addend: 0x0, symName: __ZNK5Eigen8internal17mapbase_evaluatorINS_5BlockIKNS2_INS2_INS_6MatrixIfLi3ELi3ELi0ELi3ELi3EEELin1ELin1ELb0EEELin1ELin1ELb0EEELin1ELi1ELb1EEENS3_IfLin1ELi1ELi0ELi3ELi1EEEE6packetILi0E19__simd128_float32_tEET0_l, symObjAddr: 0x14F18, symBinAddr: 0x100019204, symSize: 0x54 }
  - { offsetInCU: 0x167139, offset: 0x167139, size: 0x8, addend: 0x0, symName: __ZNK5Eigen8internal17mapbase_evaluatorINS_5BlockIKNS_9TransposeIKNS2_INS2_INS_6MatrixIfLi3ELi3ELi0ELi3ELi3EEELi3ELi1ELb1EEELin1ELi1ELb0EEEEELi1ELin1ELb1EEENS4_IfLi1ELin1ELi1ELi1ELi3EEEE6packetILi0E19__simd128_float32_tEET0_l, symObjAddr: 0x14F6C, symBinAddr: 0x100019258, symSize: 0x54 }
  - { offsetInCU: 0x16719F, offset: 0x16719F, size: 0x8, addend: 0x0, symName: __ZNK5Eigen8internal17scalar_product_opIffEclERKfS4_, symObjAddr: 0x14FC0, symBinAddr: 0x1000192AC, symSize: 0x2C }
  - { offsetInCU: 0x1671E1, offset: 0x1671E1, size: 0x8, addend: 0x0, symName: __ZNK5Eigen8internal15unary_evaluatorINS_9TransposeIKNS_5BlockIKNS2_IKNS3_INS3_INS_6MatrixIfLi3ELi3ELi0ELi3ELi3EEELi3ELi1ELb1EEELin1ELi1ELb0EEEEELi1ELin1ELb1EEEEENS0_10IndexBasedEfE5coeffEl, symObjAddr: 0x14FEC, symBinAddr: 0x1000192D8, symSize: 0x2C }
  - { offsetInCU: 0x167216, offset: 0x167216, size: 0x8, addend: 0x0, symName: __ZNK5Eigen8internal17mapbase_evaluatorINS_5BlockIKNS2_INS2_INS_6MatrixIfLi3ELi3ELi0ELi3ELi3EEELin1ELin1ELb0EEELin1ELin1ELb0EEELin1ELi1ELb1EEENS3_IfLin1ELi1ELi0ELi3ELi1EEEE5coeffEl, symObjAddr: 0x15018, symBinAddr: 0x100019304, symSize: 0x48 }
  - { offsetInCU: 0x16724B, offset: 0x16724B, size: 0x8, addend: 0x0, symName: __ZNK5Eigen8internal17mapbase_evaluatorINS_5BlockIKNS_9TransposeIKNS2_INS2_INS_6MatrixIfLi3ELi3ELi0ELi3ELi3EEELi3ELi1ELb1EEELin1ELi1ELb0EEEEELi1ELin1ELb1EEENS4_IfLi1ELin1ELi1ELi1ELi3EEEE5coeffEl, symObjAddr: 0x15060, symBinAddr: 0x10001934C, symSize: 0x48 }
  - { offsetInCU: 0x167280, offset: 0x167280, size: 0x8, addend: 0x0, symName: __ZN5Eigen8internal15redux_evaluatorINS_13CwiseBinaryOpINS0_17scalar_product_opIffEEKNS_9TransposeIKNS_5BlockIKNS5_IKNS6_INS6_INS_6MatrixIfLi3ELi3ELi0ELi3ELi3EEELi3ELi1ELb1EEELin1ELi1ELb0EEEEELi1ELin1ELb1EEEEEKNS6_IKNS6_INS6_IS8_Lin1ELin1ELb0EEELin1ELin1ELb0EEELin1ELi1ELb1EEEEEED2Ev, symObjAddr: 0x150A8, symBinAddr: 0x100019394, symSize: 0x2C }
  - { offsetInCU: 0x1672AD, offset: 0x1672AD, size: 0x8, addend: 0x0, symName: __ZN5Eigen8internal9evaluatorINS_13CwiseBinaryOpINS0_17scalar_product_opIffEEKNS_9TransposeIKNS_5BlockIKNS5_IKNS6_INS6_INS_6MatrixIfLi3ELi3ELi0ELi3ELi3EEELi3ELi1ELb1EEELin1ELi1ELb0EEEEELi1ELin1ELb1EEEEEKNS6_IKNS6_INS6_IS8_Lin1ELin1ELb0EEELin1ELin1ELb0EEELin1ELi1ELb1EEEEEED2Ev, symObjAddr: 0x150D4, symBinAddr: 0x1000193C0, symSize: 0x2C }
  - { offsetInCU: 0x1672DA, offset: 0x1672DA, size: 0x8, addend: 0x0, symName: __ZN5Eigen8internal16binary_evaluatorINS_13CwiseBinaryOpINS0_17scalar_product_opIffEEKNS_9TransposeIKNS_5BlockIKNS5_IKNS6_INS6_INS_6MatrixIfLi3ELi3ELi0ELi3ELi3EEELi3ELi1ELb1EEELin1ELi1ELb0EEEEELi1ELin1ELb1EEEEEKNS6_IKNS6_INS6_IS8_Lin1ELin1ELb0EEELin1ELin1ELb0EEELin1ELi1ELb1EEEEENS0_10IndexBasedESO_ffED2Ev, symObjAddr: 0x15100, symBinAddr: 0x1000193EC, symSize: 0x34 }
  - { offsetInCU: 0x167306, offset: 0x167306, size: 0x8, addend: 0x0, symName: __ZN5Eigen8internal16binary_evaluatorINS_13CwiseBinaryOpINS0_17scalar_product_opIffEEKNS_9TransposeIKNS_5BlockIKNS5_IKNS6_INS6_INS_6MatrixIfLi3ELi3ELi0ELi3ELi3EEELi3ELi1ELb1EEELin1ELi1ELb0EEEEELi1ELin1ELb1EEEEEKNS6_IKNS6_INS6_IS8_Lin1ELin1ELb0EEELin1ELin1ELb0EEELin1ELi1ELb1EEEEENS0_10IndexBasedESO_ffE4DataD1Ev, symObjAddr: 0x15134, symBinAddr: 0x100019420, symSize: 0x2C }
  - { offsetInCU: 0x167333, offset: 0x167333, size: 0x8, addend: 0x0, symName: __ZN5Eigen8internal16binary_evaluatorINS_13CwiseBinaryOpINS0_17scalar_product_opIffEEKNS_9TransposeIKNS_5BlockIKNS5_IKNS6_INS6_INS_6MatrixIfLi3ELi3ELi0ELi3ELi3EEELi3ELi1ELb1EEELin1ELi1ELb0EEEEELi1ELin1ELb1EEEEEKNS6_IKNS6_INS6_IS8_Lin1ELin1ELb0EEELin1ELin1ELb0EEELin1ELi1ELb1EEEEENS0_10IndexBasedESO_ffE4DataD2Ev, symObjAddr: 0x15160, symBinAddr: 0x10001944C, symSize: 0x3C }
  - { offsetInCU: 0x167360, offset: 0x167360, size: 0x8, addend: 0x0, symName: __ZN5Eigen8internal9evaluatorIKNS_5BlockIKNS2_INS2_INS_6MatrixIfLi3ELi3ELi0ELi3ELi3EEELin1ELin1ELb0EEELin1ELin1ELb0EEELin1ELi1ELb1EEEED1Ev, symObjAddr: 0x1519C, symBinAddr: 0x100019488, symSize: 0x2C }
  - { offsetInCU: 0x16738C, offset: 0x16738C, size: 0x8, addend: 0x0, symName: __ZN5Eigen8internal9evaluatorIKNS_5BlockIKNS2_INS2_INS_6MatrixIfLi3ELi3ELi0ELi3ELi3EEELin1ELin1ELb0EEELin1ELin1ELb0EEELin1ELi1ELb1EEEED2Ev, symObjAddr: 0x151C8, symBinAddr: 0x1000194B4, symSize: 0x2C }
  - { offsetInCU: 0x1673B8, offset: 0x1673B8, size: 0x8, addend: 0x0, symName: __ZN5Eigen8internal9evaluatorINS_5BlockIKNS2_INS2_INS_6MatrixIfLi3ELi3ELi0ELi3ELi3EEELin1ELin1ELb0EEELin1ELin1ELb0EEELin1ELi1ELb1EEEED2Ev, symObjAddr: 0x151F4, symBinAddr: 0x1000194E0, symSize: 0x2C }
  - { offsetInCU: 0x1673E5, offset: 0x1673E5, size: 0x8, addend: 0x0, symName: __ZN5Eigen8internal15block_evaluatorIKNS_5BlockINS2_INS_6MatrixIfLi3ELi3ELi0ELi3ELi3EEELin1ELin1ELb0EEELin1ELin1ELb0EEELin1ELi1ELb1ELb1EED2Ev, symObjAddr: 0x15220, symBinAddr: 0x10001950C, symSize: 0x2C }
  - { offsetInCU: 0x167412, offset: 0x167412, size: 0x8, addend: 0x0, symName: __ZN5Eigen8internal9evaluatorINS_3MapINS_6MatrixIfLi1ELin1ELi1ELi1ELi3EEELi0ENS_6StrideILi0ELi0EEEEEED2Ev, symObjAddr: 0x1524C, symBinAddr: 0x100019538, symSize: 0x2C }
  - { offsetInCU: 0x16743F, offset: 0x16743F, size: 0x8, addend: 0x0, symName: __ZN5Eigen8internal17mapbase_evaluatorINS_3MapINS_6MatrixIfLi1ELin1ELi1ELi1ELi3EEELi0ENS_6StrideILi0ELi0EEEEES4_ED2Ev, symObjAddr: 0x15278, symBinAddr: 0x100019564, symSize: 0x2C }
  - { offsetInCU: 0x16746C, offset: 0x16746C, size: 0x8, addend: 0x0, symName: __ZN5Eigen8internal9evaluatorINS_7ProductINS_9TransposeIKNS_5BlockINS4_INS_6MatrixIfLi3ELi3ELi0ELi3ELi3EEELi3ELi1ELb1EEELin1ELi1ELb0EEEEENS4_INS4_IS6_Lin1ELin1ELb0EEELin1ELin1ELb0EEELi1EEEED2Ev, symObjAddr: 0x152A4, symBinAddr: 0x100019590, symSize: 0x2C }
  - { offsetInCU: 0x167498, offset: 0x167498, size: 0x8, addend: 0x0, symName: __ZN5Eigen8internal17product_evaluatorINS_7ProductINS_9TransposeIKNS_5BlockINS4_INS_6MatrixIfLi3ELi3ELi0ELi3ELi3EEELi3ELi1ELb1EEELin1ELi1ELb0EEEEENS4_INS4_IS6_Lin1ELin1ELb0EEELin1ELin1ELb0EEELi1EEELi3ENS_10DenseShapeESE_ffED2Ev, symObjAddr: 0x152D0, symBinAddr: 0x1000195BC, symSize: 0x44 }
  - { offsetInCU: 0x1674C4, offset: 0x1674C4, size: 0x8, addend: 0x0, symName: __ZN5Eigen7ProductINS_9TransposeIKNS_5BlockINS2_INS_6MatrixIfLi3ELi3ELi0ELi3ELi3EEELi3ELi1ELb1EEELin1ELi1ELb0EEEEENS2_INS2_IS4_Lin1ELin1ELb0EEELin1ELin1ELb0EEELi1EEC1ERKS8_RKSA_, symObjAddr: 0x15314, symBinAddr: 0x100019600, symSize: 0x3C }
  - { offsetInCU: 0x16750A, offset: 0x16750A, size: 0x8, addend: 0x0, symName: __ZN5Eigen7ProductINS_9TransposeIKNS_5BlockINS2_INS_6MatrixIfLi3ELi3ELi0ELi3ELi3EEELi3ELi1ELb1EEELin1ELi1ELb0EEEEENS2_INS2_IS4_Lin1ELin1ELb0EEELin1ELin1ELb0EEELi1EEC2ERKS8_RKSA_, symObjAddr: 0x15350, symBinAddr: 0x10001963C, symSize: 0xCC }
  - { offsetInCU: 0x167555, offset: 0x167555, size: 0x8, addend: 0x0, symName: __ZN5Eigen11ProductImplINS_9TransposeIKNS_5BlockINS2_INS_6MatrixIfLi3ELi3ELi0ELi3ELi3EEELi3ELi1ELb1EEELin1ELi1ELb0EEEEENS2_INS2_IS4_Lin1ELin1ELb0EEELin1ELin1ELb0EEELi1ENS_5DenseEEC2Ev, symObjAddr: 0x1541C, symBinAddr: 0x100019708, symSize: 0x2C }
  - { offsetInCU: 0x167586, offset: 0x167586, size: 0x8, addend: 0x0, symName: __ZN5Eigen8internal18dense_product_baseINS_9TransposeIKNS_5BlockINS3_INS_6MatrixIfLi3ELi3ELi0ELi3ELi3EEELi3ELi1ELb1EEELin1ELi1ELb0EEEEENS3_INS3_IS5_Lin1ELin1ELb0EEELin1ELin1ELb0EEELi1ELi3EEC2Ev, symObjAddr: 0x15448, symBinAddr: 0x100019734, symSize: 0x2C }
  - { offsetInCU: 0x1675B2, offset: 0x1675B2, size: 0x8, addend: 0x0, symName: __ZN5Eigen10MatrixBaseINS_7ProductINS_9TransposeIKNS_5BlockINS3_INS_6MatrixIfLi3ELi3ELi0ELi3ELi3EEELi3ELi1ELb1EEELin1ELi1ELb0EEEEENS3_INS3_IS5_Lin1ELin1ELb0EEELin1ELin1ELb0EEELi1EEEEC2Ev, symObjAddr: 0x15474, symBinAddr: 0x100019760, symSize: 0x2C }
  - { offsetInCU: 0x1675DC, offset: 0x1675DC, size: 0x8, addend: 0x0, symName: __ZN5Eigen9DenseBaseINS_7ProductINS_9TransposeIKNS_5BlockINS3_INS_6MatrixIfLi3ELi3ELi0ELi3ELi3EEELi3ELi1ELb1EEELin1ELi1ELb0EEEEENS3_INS3_IS5_Lin1ELin1ELb0EEELin1ELin1ELb0EEELi1EEEEC2Ev, symObjAddr: 0x154A0, symBinAddr: 0x10001978C, symSize: 0x14 }
  - { offsetInCU: 0x167606, offset: 0x167606, size: 0x8, addend: 0x0, symName: __ZN5Eigen5BlockINS0_INS_6MatrixIfLi3ELi3ELi0ELi3ELi3EEELin1ELin1ELb0EEELi1ELin1ELb0EEC1ERS3_l, symObjAddr: 0x154B4, symBinAddr: 0x1000197A0, symSize: 0x3C }
  - { offsetInCU: 0x16764C, offset: 0x16764C, size: 0x8, addend: 0x0, symName: __ZN5Eigen5BlockINS0_INS_6MatrixIfLi3ELi3ELi0ELi3ELi3EEELin1ELin1ELb0EEELi1ELin1ELb0EEC2ERS3_l, symObjAddr: 0x154F0, symBinAddr: 0x1000197DC, symSize: 0xCC }
  - { offsetInCU: 0x167692, offset: 0x167692, size: 0x8, addend: 0x0, symName: __ZN5Eigen9BlockImplINS_5BlockINS_6MatrixIfLi3ELi3ELi0ELi3ELi3EEELin1ELin1ELb0EEELi1ELin1ELb0ENS_5DenseEEC2ERS4_l, symObjAddr: 0x155BC, symBinAddr: 0x1000198A8, symSize: 0x3C }
  - { offsetInCU: 0x1676D8, offset: 0x1676D8, size: 0x8, addend: 0x0, symName: __ZN5Eigen8internal15BlockImpl_denseINS_5BlockINS_6MatrixIfLi3ELi3ELi0ELi3ELi3EEELin1ELin1ELb0EEELi1ELin1ELb0ELb1EEC2ERS5_l, symObjAddr: 0x155F8, symBinAddr: 0x1000198E4, symSize: 0xB8 }
  - { offsetInCU: 0x167720, offset: 0x167720, size: 0x8, addend: 0x0, symName: __ZN5Eigen7MapBaseINS_5BlockINS1_INS_6MatrixIfLi3ELi3ELi0ELi3ELi3EEELin1ELin1ELb0EEELi1ELin1ELb0EEELi1EEC2EPfll, symObjAddr: 0x156B0, symBinAddr: 0x10001999C, symSize: 0x44 }
  - { offsetInCU: 0x167777, offset: 0x167777, size: 0x8, addend: 0x0, symName: __ZN5Eigen8internal15BlockImpl_denseINS_5BlockINS_6MatrixIfLi3ELi3ELi0ELi3ELi3EEELin1ELin1ELb0EEELi1ELin1ELb0ELb1EE4initEv, symObjAddr: 0x156F4, symBinAddr: 0x1000199E0, symSize: 0x34 }
  - { offsetInCU: 0x16779D, offset: 0x16779D, size: 0x8, addend: 0x0, symName: __ZN5Eigen7MapBaseINS_5BlockINS1_INS_6MatrixIfLi3ELi3ELi0ELi3ELi3EEELin1ELin1ELb0EEELi1ELin1ELb0EEELi0EEC2EPfll, symObjAddr: 0x15728, symBinAddr: 0x100019A14, symSize: 0x130 }
  - { offsetInCU: 0x1677F1, offset: 0x1677F1, size: 0x8, addend: 0x0, symName: __ZN5Eigen10MatrixBaseINS_5BlockINS1_INS_6MatrixIfLi3ELi3ELi0ELi3ELi3EEELin1ELin1ELb0EEELi1ELin1ELb0EEEEC2Ev, symObjAddr: 0x15858, symBinAddr: 0x100019B44, symSize: 0x2C }
  - { offsetInCU: 0x16781B, offset: 0x16781B, size: 0x8, addend: 0x0, symName: __ZNK5Eigen7MapBaseINS_5BlockINS1_INS_6MatrixIfLi3ELi3ELi0ELi3ELi3EEELin1ELin1ELb0EEELi1ELin1ELb0EEELi0EE11checkSanityIS5_EEvNS_8internal9enable_ifIXeqsr8internal6traitsIT_EE9AlignmentLi0EEPvE4typeE, symObjAddr: 0x15884, symBinAddr: 0x100019B70, symSize: 0x14 }
  - { offsetInCU: 0x167855, offset: 0x167855, size: 0x8, addend: 0x0, symName: __ZN5Eigen9DenseBaseINS_5BlockINS1_INS_6MatrixIfLi3ELi3ELi0ELi3ELi3EEELin1ELin1ELb0EEELi1ELin1ELb0EEEEC2Ev, symObjAddr: 0x15898, symBinAddr: 0x100019B84, symSize: 0x14 }
  - { offsetInCU: 0x16787F, offset: 0x16787F, size: 0x8, addend: 0x0, symName: __ZNK5Eigen9EigenBaseINS_5BlockINS1_INS_6MatrixIfLi3ELi3ELi0ELi3ELi3EEELin1ELin1ELb0EEELi1ELin1ELb0EEEE7derivedEv, symObjAddr: 0x158E4, symBinAddr: 0x100019BD0, symSize: 0x14 }
  - { offsetInCU: 0x1678A5, offset: 0x1678A5, size: 0x8, addend: 0x0, symName: __ZN5Eigen8internal13add_assign_opIffEC1Ev, symObjAddr: 0x158F8, symBinAddr: 0x100019BE4, symSize: 0x2C }
  - { offsetInCU: 0x1678CF, offset: 0x1678CF, size: 0x8, addend: 0x0, symName: __ZN5Eigen8internal10AssignmentINS_3MapINS_6MatrixIfLi1ELin1ELi1ELi1ELi3EEELi0ENS_6StrideILi0ELi0EEEEENS_5BlockINS8_INS3_IfLi3ELi3ELi0ELi3ELi3EEELin1ELin1ELb0EEELi1ELin1ELb0EEENS0_13add_assign_opIffEENS0_11Dense2DenseEvE3runERS7_RKSB_RKSD_, symObjAddr: 0x15960, symBinAddr: 0x100019C4C, symSize: 0x40 }
  - { offsetInCU: 0x16792F, offset: 0x16792F, size: 0x8, addend: 0x0, symName: __ZN5Eigen8internal9evaluatorINS_5BlockINS2_INS_6MatrixIfLi3ELi3ELi0ELi3ELi3EEELin1ELin1ELb0EEELi1ELin1ELb0EEEEC1ERKS6_, symObjAddr: 0x15A8C, symBinAddr: 0x100019D78, symSize: 0x34 }
  - { offsetInCU: 0x167995, offset: 0x167995, size: 0x8, addend: 0x0, symName: __ZN5Eigen8internal31generic_dense_assignment_kernelINS0_9evaluatorINS_3MapINS_6MatrixIfLi1ELin1ELi1ELi1ELi3EEELi0ENS_6StrideILi0ELi0EEEEEEENS2_INS_5BlockINSA_INS4_IfLi3ELi3ELi0ELi3ELi3EEELin1ELin1ELb0EEELi1ELin1ELb0EEEEENS0_13add_assign_opIffEELi0EEC1ERS9_RKSE_RKSG_RS8_, symObjAddr: 0x15B74, symBinAddr: 0x100019E60, symSize: 0x4C }
  - { offsetInCU: 0x167A00, offset: 0x167A00, size: 0x8, addend: 0x0, symName: __ZN5Eigen8internal21dense_assignment_loopINS0_31generic_dense_assignment_kernelINS0_9evaluatorINS_3MapINS_6MatrixIfLi1ELin1ELi1ELi1ELi3EEELi0ENS_6StrideILi0ELi0EEEEEEENS3_INS_5BlockINSB_INS5_IfLi3ELi3ELi0ELi3ELi3EEELin1ELin1ELb0EEELi1ELin1ELb0EEEEENS0_13add_assign_opIffEELi0EEELi1ELi0EE3runERSI_, symObjAddr: 0x15BC0, symBinAddr: 0x100019EAC, symSize: 0x68 }
  - { offsetInCU: 0x167A50, offset: 0x167A50, size: 0x8, addend: 0x0, symName: __ZN5Eigen8internal9evaluatorINS_5BlockINS2_INS_6MatrixIfLi3ELi3ELi0ELi3ELi3EEELin1ELin1ELb0EEELi1ELin1ELb0EEEED1Ev, symObjAddr: 0x15C28, symBinAddr: 0x100019F14, symSize: 0x2C }
  - { offsetInCU: 0x167A7D, offset: 0x167A7D, size: 0x8, addend: 0x0, symName: __ZN5Eigen8internal9evaluatorINS_5BlockINS2_INS_6MatrixIfLi3ELi3ELi0ELi3ELi3EEELin1ELin1ELb0EEELi1ELin1ELb0EEEEC2ERKS6_, symObjAddr: 0x15C54, symBinAddr: 0x100019F40, symSize: 0x34 }
  - { offsetInCU: 0x167AB6, offset: 0x167AB6, size: 0x8, addend: 0x0, symName: __ZN5Eigen8internal15block_evaluatorINS_5BlockINS_6MatrixIfLi3ELi3ELi0ELi3ELi3EEELin1ELin1ELb0EEELi1ELin1ELb0ELb1EEC2ERKNS2_IS5_Li1ELin1ELb0EEE, symObjAddr: 0x15C88, symBinAddr: 0x100019F74, symSize: 0xDC }
  - { offsetInCU: 0x167AEF, offset: 0x167AEF, size: 0x8, addend: 0x0, symName: __ZN5Eigen8internal17mapbase_evaluatorINS_5BlockINS2_INS_6MatrixIfLi3ELi3ELi0ELi3ELi3EEELin1ELin1ELb0EEELi1ELin1ELb0EEENS3_IfLi1ELin1ELi1ELi1ELi3EEEEC2ERKS6_, symObjAddr: 0x15D64, symBinAddr: 0x10001A050, symSize: 0xB4 }
  - { offsetInCU: 0x167B28, offset: 0x167B28, size: 0x8, addend: 0x0, symName: __ZNK5Eigen7MapBaseINS_5BlockINS1_INS_6MatrixIfLi3ELi3ELi0ELi3ELi3EEELin1ELin1ELb0EEELi1ELin1ELb0EEELi1EE4dataEv, symObjAddr: 0x15E18, symBinAddr: 0x10001A104, symSize: 0x18 }
  - { offsetInCU: 0x167B4E, offset: 0x167B4E, size: 0x8, addend: 0x0, symName: __ZN5Eigen8internal17mapbase_evaluatorINS_5BlockINS2_INS_6MatrixIfLi3ELi3ELi0ELi3ELi3EEELin1ELin1ELb0EEELi1ELin1ELb0EEENS3_IfLi1ELin1ELi1ELi1ELi3EEEED2Ev, symObjAddr: 0x15E30, symBinAddr: 0x10001A11C, symSize: 0x2C }
  - { offsetInCU: 0x167B7B, offset: 0x167B7B, size: 0x8, addend: 0x0, symName: __ZN5Eigen8internal14evaluator_baseINS_5BlockINS2_INS_6MatrixIfLi3ELi3ELi0ELi3ELi3EEELin1ELin1ELb0EEELi1ELin1ELb0EEEEC2Ev, symObjAddr: 0x15E5C, symBinAddr: 0x10001A148, symSize: 0x14 }
  - { offsetInCU: 0x167BA5, offset: 0x167BA5, size: 0x8, addend: 0x0, symName: __ZNK5Eigen8internal15BlockImpl_denseINS_5BlockINS_6MatrixIfLi3ELi3ELi0ELi3ELi3EEELin1ELin1ELb0EEELi1ELin1ELb0ELb1EE11innerStrideEv, symObjAddr: 0x15E70, symBinAddr: 0x10001A15C, symSize: 0x28 }
  - { offsetInCU: 0x167BCB, offset: 0x167BCB, size: 0x8, addend: 0x0, symName: __ZNK5Eigen8internal15BlockImpl_denseINS_5BlockINS_6MatrixIfLi3ELi3ELi0ELi3ELi3EEELin1ELin1ELb0EEELi1ELin1ELb0ELb1EE11outerStrideEv, symObjAddr: 0x15E98, symBinAddr: 0x10001A184, symSize: 0x28 }
  - { offsetInCU: 0x167BF1, offset: 0x167BF1, size: 0x8, addend: 0x0, symName: __ZN5Eigen8internal14evaluator_baseINS_5BlockINS2_INS_6MatrixIfLi3ELi3ELi0ELi3ELi3EEELin1ELin1ELb0EEELi1ELin1ELb0EEEED2Ev, symObjAddr: 0x15EC0, symBinAddr: 0x10001A1AC, symSize: 0x14 }
  - { offsetInCU: 0x167C1B, offset: 0x167C1B, size: 0x8, addend: 0x0, symName: __ZNK5Eigen7MapBaseINS_5BlockINS1_INS_6MatrixIfLi3ELi3ELi0ELi3ELi3EEELin1ELin1ELb0EEELi1ELin1ELb0EEELi0EE4rowsEv, symObjAddr: 0x15ED4, symBinAddr: 0x10001A1C0, symSize: 0x20 }
  - { offsetInCU: 0x167C41, offset: 0x167C41, size: 0x8, addend: 0x0, symName: __ZNK5Eigen7MapBaseINS_5BlockINS1_INS_6MatrixIfLi3ELi3ELi0ELi3ELi3EEELin1ELin1ELb0EEELi1ELin1ELb0EEELi0EE4colsEv, symObjAddr: 0x15EF4, symBinAddr: 0x10001A1E0, symSize: 0x28 }
  - { offsetInCU: 0x167C67, offset: 0x167C67, size: 0x8, addend: 0x0, symName: __ZN5Eigen8internal31generic_dense_assignment_kernelINS0_9evaluatorINS_3MapINS_6MatrixIfLi1ELin1ELi1ELi1ELi3EEELi0ENS_6StrideILi0ELi0EEEEEEENS2_INS_5BlockINSA_INS4_IfLi3ELi3ELi0ELi3ELi3EEELin1ELin1ELb0EEELi1ELin1ELb0EEEEENS0_13add_assign_opIffEELi0EEC2ERS9_RKSE_RKSG_RS8_, symObjAddr: 0x15F1C, symBinAddr: 0x10001A208, symSize: 0x44 }
  - { offsetInCU: 0x167CCD, offset: 0x167CCD, size: 0x8, addend: 0x0, symName: __ZNK5Eigen8internal31generic_dense_assignment_kernelINS0_9evaluatorINS_3MapINS_6MatrixIfLi1ELin1ELi1ELi1ELi3EEELi0ENS_6StrideILi0ELi0EEEEEEENS2_INS_5BlockINSA_INS4_IfLi3ELi3ELi0ELi3ELi3EEELin1ELin1ELb0EEELi1ELin1ELb0EEEEENS0_13add_assign_opIffEELi0EE4sizeEv, symObjAddr: 0x15F60, symBinAddr: 0x10001A24C, symSize: 0x28 }
  - { offsetInCU: 0x167CF3, offset: 0x167CF3, size: 0x8, addend: 0x0, symName: __ZN5Eigen8internal31generic_dense_assignment_kernelINS0_9evaluatorINS_3MapINS_6MatrixIfLi1ELin1ELi1ELi1ELi3EEELi0ENS_6StrideILi0ELi0EEEEEEENS2_INS_5BlockINSA_INS4_IfLi3ELi3ELi0ELi3ELi3EEELin1ELin1ELb0EEELi1ELin1ELb0EEEEENS0_13add_assign_opIffEELi0EE11assignCoeffEl, symObjAddr: 0x15F88, symBinAddr: 0x10001A274, symSize: 0x60 }
  - { offsetInCU: 0x167D28, offset: 0x167D28, size: 0x8, addend: 0x0, symName: __ZNK5Eigen8internal13add_assign_opIffE11assignCoeffERfRKf, symObjAddr: 0x15FE8, symBinAddr: 0x10001A2D4, symSize: 0x30 }
  - { offsetInCU: 0x167D6A, offset: 0x167D6A, size: 0x8, addend: 0x0, symName: __ZNK5Eigen8internal17mapbase_evaluatorINS_5BlockINS2_INS_6MatrixIfLi3ELi3ELi0ELi3ELi3EEELin1ELin1ELb0EEELi1ELin1ELb0EEENS3_IfLi1ELin1ELi1ELi1ELi3EEEE5coeffEl, symObjAddr: 0x16018, symBinAddr: 0x10001A304, symSize: 0x48 }
  - { offsetInCU: 0x167D9F, offset: 0x167D9F, size: 0x8, addend: 0x0, symName: __ZN5Eigen8internal9evaluatorINS_5BlockINS2_INS_6MatrixIfLi3ELi3ELi0ELi3ELi3EEELin1ELin1ELb0EEELi1ELin1ELb0EEEED2Ev, symObjAddr: 0x16060, symBinAddr: 0x10001A34C, symSize: 0x2C }
  - { offsetInCU: 0x167DCC, offset: 0x167DCC, size: 0x8, addend: 0x0, symName: __ZN5Eigen8internal15block_evaluatorINS_5BlockINS_6MatrixIfLi3ELi3ELi0ELi3ELi3EEELin1ELin1ELb0EEELi1ELin1ELb0ELb1EED2Ev, symObjAddr: 0x1608C, symBinAddr: 0x10001A378, symSize: 0x2C }
  - { offsetInCU: 0x167DF9, offset: 0x167DF9, size: 0x8, addend: 0x0, symName: __ZN5Eigen8internal13add_assign_opIffEC2Ev, symObjAddr: 0x160B8, symBinAddr: 0x10001A3A4, symSize: 0x14 }
  - { offsetInCU: 0x167E23, offset: 0x167E23, size: 0x8, addend: 0x0, symName: __ZN5Eigen14CwiseNullaryOpINS_8internal18scalar_constant_opIfEEKNS_6MatrixIfLi1ELin1ELi1ELi1ELi3EEEEC1EllRKS3_, symObjAddr: 0x160CC, symBinAddr: 0x10001A3B8, symSize: 0x44 }
  - { offsetInCU: 0x167E77, offset: 0x167E77, size: 0x8, addend: 0x0, symName: __ZN5Eigen13CwiseBinaryOpINS_8internal17scalar_product_opIffEEKNS_14CwiseNullaryOpINS1_18scalar_constant_opIfEEKNS_6MatrixIfLi1ELin1ELi1ELi1ELi3EEEEEKNS_3MapIS8_Li0ENS_6StrideILi0ELi0EEEEEEC1ERSB_RSG_RKS3_, symObjAddr: 0x16110, symBinAddr: 0x10001A3FC, symSize: 0x44 }
  - { offsetInCU: 0x167ECB, offset: 0x167ECB, size: 0x8, addend: 0x0, symName: __ZN5Eigen14CwiseNullaryOpINS_8internal18scalar_constant_opIfEEKNS_6MatrixIfLi1ELin1ELi1ELi1ELi3EEEEC2EllRKS3_, symObjAddr: 0x16154, symBinAddr: 0x10001A440, symSize: 0xFC }
  - { offsetInCU: 0x167F1F, offset: 0x167F1F, size: 0x8, addend: 0x0, symName: __ZN5Eigen10MatrixBaseINS_14CwiseNullaryOpINS_8internal18scalar_constant_opIfEEKNS_6MatrixIfLi1ELin1ELi1ELi1ELi3EEEEEEC2Ev, symObjAddr: 0x16250, symBinAddr: 0x10001A53C, symSize: 0x2C }
  - { offsetInCU: 0x167F49, offset: 0x167F49, size: 0x8, addend: 0x0, symName: __ZN5Eigen9DenseBaseINS_14CwiseNullaryOpINS_8internal18scalar_constant_opIfEEKNS_6MatrixIfLi1ELin1ELi1ELi1ELi3EEEEEEC2Ev, symObjAddr: 0x1627C, symBinAddr: 0x10001A568, symSize: 0x14 }
  - { offsetInCU: 0x167F73, offset: 0x167F73, size: 0x8, addend: 0x0, symName: __ZN5Eigen13CwiseBinaryOpINS_8internal17scalar_product_opIffEEKNS_14CwiseNullaryOpINS1_18scalar_constant_opIfEEKNS_6MatrixIfLi1ELin1ELi1ELi1ELi3EEEEEKNS_3MapIS8_Li0ENS_6StrideILi0ELi0EEEEEEC2ERSB_RSG_RKS3_, symObjAddr: 0x16290, symBinAddr: 0x10001A57C, symSize: 0xFC }
  - { offsetInCU: 0x167FCC, offset: 0x167FCC, size: 0x8, addend: 0x0, symName: __ZN5Eigen17CwiseBinaryOpImplINS_8internal17scalar_product_opIffEEKNS_14CwiseNullaryOpINS1_18scalar_constant_opIfEEKNS_6MatrixIfLi1ELin1ELi1ELi1ELi3EEEEEKNS_3MapIS8_Li0ENS_6StrideILi0ELi0EEEEENS_5DenseEEC2Ev, symObjAddr: 0x1638C, symBinAddr: 0x10001A678, symSize: 0x2C }
  - { offsetInCU: 0x167FF8, offset: 0x167FF8, size: 0x8, addend: 0x0, symName: __ZN5Eigen14CwiseNullaryOpINS_8internal18scalar_constant_opIfEEKNS_6MatrixIfLi1ELin1ELi1ELi1ELi3EEEEC1ERKS7_, symObjAddr: 0x163B8, symBinAddr: 0x10001A6A4, symSize: 0x34 }
  - { offsetInCU: 0x16802D, offset: 0x16802D, size: 0x8, addend: 0x0, symName: __ZN5Eigen3MapINS_6MatrixIfLi1ELin1ELi1ELi1ELi3EEELi0ENS_6StrideILi0ELi0EEEEC1ERKS5_, symObjAddr: 0x163EC, symBinAddr: 0x10001A6D8, symSize: 0x34 }
  - { offsetInCU: 0x168062, offset: 0x168062, size: 0x8, addend: 0x0, symName: __ZNK5Eigen14CwiseNullaryOpINS_8internal18scalar_constant_opIfEEKNS_6MatrixIfLi1ELin1ELi1ELi1ELi3EEEE4rowsEv, symObjAddr: 0x16420, symBinAddr: 0x10001A70C, symSize: 0x20 }
  - { offsetInCU: 0x168088, offset: 0x168088, size: 0x8, addend: 0x0, symName: __ZNK5Eigen14CwiseNullaryOpINS_8internal18scalar_constant_opIfEEKNS_6MatrixIfLi1ELin1ELi1ELi1ELi3EEEE4colsEv, symObjAddr: 0x16440, symBinAddr: 0x10001A72C, symSize: 0x28 }
  - { offsetInCU: 0x1680AE, offset: 0x1680AE, size: 0x8, addend: 0x0, symName: __ZN5Eigen10MatrixBaseINS_13CwiseBinaryOpINS_8internal17scalar_product_opIffEEKNS_14CwiseNullaryOpINS2_18scalar_constant_opIfEEKNS_6MatrixIfLi1ELin1ELi1ELi1ELi3EEEEEKNS_3MapIS9_Li0ENS_6StrideILi0ELi0EEEEEEEEC2Ev, symObjAddr: 0x16468, symBinAddr: 0x10001A754, symSize: 0x2C }
  - { offsetInCU: 0x1680D8, offset: 0x1680D8, size: 0x8, addend: 0x0, symName: __ZN5Eigen9DenseBaseINS_13CwiseBinaryOpINS_8internal17scalar_product_opIffEEKNS_14CwiseNullaryOpINS2_18scalar_constant_opIfEEKNS_6MatrixIfLi1ELin1ELi1ELi1ELi3EEEEEKNS_3MapIS9_Li0ENS_6StrideILi0ELi0EEEEEEEEC2Ev, symObjAddr: 0x16494, symBinAddr: 0x10001A780, symSize: 0x14 }
  - { offsetInCU: 0x168102, offset: 0x168102, size: 0x8, addend: 0x0, symName: __ZN5Eigen14CwiseNullaryOpINS_8internal18scalar_constant_opIfEEKNS_6MatrixIfLi1ELin1ELi1ELi1ELi3EEEEC2ERKS7_, symObjAddr: 0x164A8, symBinAddr: 0x10001A794, symSize: 0x48 }
  - { offsetInCU: 0x168137, offset: 0x168137, size: 0x8, addend: 0x0, symName: __ZN5Eigen3MapINS_6MatrixIfLi1ELin1ELi1ELi1ELi3EEELi0ENS_6StrideILi0ELi0EEEEC2ERKS5_, symObjAddr: 0x164F0, symBinAddr: 0x10001A7DC, symSize: 0x50 }
  - { offsetInCU: 0x16816C, offset: 0x16816C, size: 0x8, addend: 0x0, symName: __ZN5Eigen9EigenBaseINS_5BlockINS1_INS_6MatrixIfLi3ELi3ELi0ELi3ELi3EEELin1ELin1ELb0EEELi1ELin1ELb0EEEE7derivedEv, symObjAddr: 0x16578, symBinAddr: 0x10001A864, symSize: 0x14 }
  - { offsetInCU: 0x168192, offset: 0x168192, size: 0x8, addend: 0x0, symName: __ZNK5Eigen9EigenBaseINS_13CwiseBinaryOpINS_8internal17scalar_product_opIffEEKNS_14CwiseNullaryOpINS2_18scalar_constant_opIfEEKNS_6MatrixIfLi1ELin1ELi1ELi1ELi3EEEEEKNS_3MapIS9_Li0ENS_6StrideILi0ELi0EEEEEEEE7derivedEv, symObjAddr: 0x1658C, symBinAddr: 0x10001A878, symSize: 0x14 }
  - { offsetInCU: 0x1681B8, offset: 0x1681B8, size: 0x8, addend: 0x0, symName: __ZN5Eigen8internal13sub_assign_opIffEC1Ev, symObjAddr: 0x165A0, symBinAddr: 0x10001A88C, symSize: 0x2C }
  - { offsetInCU: 0x1681E2, offset: 0x1681E2, size: 0x8, addend: 0x0, symName: __ZN5Eigen8internal10AssignmentINS_5BlockINS2_INS_6MatrixIfLi3ELi3ELi0ELi3ELi3EEELin1ELin1ELb0EEELi1ELin1ELb0EEENS_13CwiseBinaryOpINS0_17scalar_product_opIffEEKNS_14CwiseNullaryOpINS0_18scalar_constant_opIfEEKNS3_IfLi1ELin1ELi1ELi1ELi3EEEEEKNS_3MapISD_Li0ENS_6StrideILi0ELi0EEEEEEENS0_13sub_assign_opIffEENS0_11Dense2DenseEvE3runERS6_RKSM_RKSO_, symObjAddr: 0x16608, symBinAddr: 0x10001A8F4, symSize: 0x40 }
  - { offsetInCU: 0x16826F, offset: 0x16826F, size: 0x8, addend: 0x0, symName: __ZN5Eigen8internal9evaluatorINS_13CwiseBinaryOpINS0_17scalar_product_opIffEEKNS_14CwiseNullaryOpINS0_18scalar_constant_opIfEEKNS_6MatrixIfLi1ELin1ELi1ELi1ELi3EEEEEKNS_3MapIS9_Li0ENS_6StrideILi0ELi0EEEEEEEEC1ERKSI_, symObjAddr: 0x1673C, symBinAddr: 0x10001AA28, symSize: 0x34 }
  - { offsetInCU: 0x1682A8, offset: 0x1682A8, size: 0x8, addend: 0x0, symName: __ZNK5Eigen9EigenBaseINS_5BlockINS1_INS_6MatrixIfLi3ELi3ELi0ELi3ELi3EEELin1ELin1ELb0EEELi1ELin1ELb0EEEE18const_cast_derivedEv, symObjAddr: 0x16824, symBinAddr: 0x10001AB10, symSize: 0x14 }
  - { offsetInCU: 0x1682FB, offset: 0x1682FB, size: 0x8, addend: 0x0, symName: __ZN5Eigen8internal31generic_dense_assignment_kernelINS0_9evaluatorINS_5BlockINS3_INS_6MatrixIfLi3ELi3ELi0ELi3ELi3EEELin1ELin1ELb0EEELi1ELin1ELb0EEEEENS2_INS_13CwiseBinaryOpINS0_17scalar_product_opIffEEKNS_14CwiseNullaryOpINS0_18scalar_constant_opIfEEKNS4_IfLi1ELin1ELi1ELi1ELi3EEEEEKNS_3MapISF_Li0ENS_6StrideILi0ELi0EEEEEEEEENS0_13sub_assign_opIffEELi0EEC1ERS8_RKSP_RKSR_RS7_, symObjAddr: 0x16838, symBinAddr: 0x10001AB24, symSize: 0x4C }
  - { offsetInCU: 0x168366, offset: 0x168366, size: 0x8, addend: 0x0, symName: __ZN5Eigen8internal21dense_assignment_loopINS0_31generic_dense_assignment_kernelINS0_9evaluatorINS_5BlockINS4_INS_6MatrixIfLi3ELi3ELi0ELi3ELi3EEELin1ELin1ELb0EEELi1ELin1ELb0EEEEENS3_INS_13CwiseBinaryOpINS0_17scalar_product_opIffEEKNS_14CwiseNullaryOpINS0_18scalar_constant_opIfEEKNS5_IfLi1ELin1ELi1ELi1ELi3EEEEEKNS_3MapISG_Li0ENS_6StrideILi0ELi0EEEEEEEEENS0_13sub_assign_opIffEELi0EEELi1ELi0EE3runERST_, symObjAddr: 0x16884, symBinAddr: 0x10001AB70, symSize: 0x68 }
  - { offsetInCU: 0x1683B6, offset: 0x1683B6, size: 0x8, addend: 0x0, symName: __ZN5Eigen8internal9evaluatorINS_13CwiseBinaryOpINS0_17scalar_product_opIffEEKNS_14CwiseNullaryOpINS0_18scalar_constant_opIfEEKNS_6MatrixIfLi1ELin1ELi1ELi1ELi3EEEEEKNS_3MapIS9_Li0ENS_6StrideILi0ELi0EEEEEEEED1Ev, symObjAddr: 0x168EC, symBinAddr: 0x10001ABD8, symSize: 0x2C }
  - { offsetInCU: 0x1683E3, offset: 0x1683E3, size: 0x8, addend: 0x0, symName: __ZN5Eigen8internal9evaluatorINS_13CwiseBinaryOpINS0_17scalar_product_opIffEEKNS_14CwiseNullaryOpINS0_18scalar_constant_opIfEEKNS_6MatrixIfLi1ELin1ELi1ELi1ELi3EEEEEKNS_3MapIS9_Li0ENS_6StrideILi0ELi0EEEEEEEEC2ERKSI_, symObjAddr: 0x16918, symBinAddr: 0x10001AC04, symSize: 0x34 }
  - { offsetInCU: 0x16841C, offset: 0x16841C, size: 0x8, addend: 0x0, symName: __ZN5Eigen8internal16binary_evaluatorINS_13CwiseBinaryOpINS0_17scalar_product_opIffEEKNS_14CwiseNullaryOpINS0_18scalar_constant_opIfEEKNS_6MatrixIfLi1ELin1ELi1ELi1ELi3EEEEEKNS_3MapIS9_Li0ENS_6StrideILi0ELi0EEEEEEENS0_10IndexBasedESJ_ffEC2ERKSI_, symObjAddr: 0x1694C, symBinAddr: 0x10001AC38, symSize: 0x64 }
  - { offsetInCU: 0x168455, offset: 0x168455, size: 0x8, addend: 0x0, symName: __ZN5Eigen8internal14evaluator_baseINS_13CwiseBinaryOpINS0_17scalar_product_opIffEEKNS_14CwiseNullaryOpINS0_18scalar_constant_opIfEEKNS_6MatrixIfLi1ELin1ELi1ELi1ELi3EEEEEKNS_3MapIS9_Li0ENS_6StrideILi0ELi0EEEEEEEEC2Ev, symObjAddr: 0x169B0, symBinAddr: 0x10001AC9C, symSize: 0x14 }
  - { offsetInCU: 0x16847F, offset: 0x16847F, size: 0x8, addend: 0x0, symName: __ZN5Eigen8internal16binary_evaluatorINS_13CwiseBinaryOpINS0_17scalar_product_opIffEEKNS_14CwiseNullaryOpINS0_18scalar_constant_opIfEEKNS_6MatrixIfLi1ELin1ELi1ELi1ELi3EEEEEKNS_3MapIS9_Li0ENS_6StrideILi0ELi0EEEEEEENS0_10IndexBasedESJ_ffE4DataC1ERKSI_, symObjAddr: 0x169C4, symBinAddr: 0x10001ACB0, symSize: 0x34 }
  - { offsetInCU: 0x1684B8, offset: 0x1684B8, size: 0x8, addend: 0x0, symName: __ZN5Eigen8internal14evaluator_baseINS_13CwiseBinaryOpINS0_17scalar_product_opIffEEKNS_14CwiseNullaryOpINS0_18scalar_constant_opIfEEKNS_6MatrixIfLi1ELin1ELi1ELi1ELi3EEEEEKNS_3MapIS9_Li0ENS_6StrideILi0ELi0EEEEEEEED2Ev, symObjAddr: 0x169F8, symBinAddr: 0x10001ACE4, symSize: 0x14 }
  - { offsetInCU: 0x1684E2, offset: 0x1684E2, size: 0x8, addend: 0x0, symName: __ZN5Eigen8internal16binary_evaluatorINS_13CwiseBinaryOpINS0_17scalar_product_opIffEEKNS_14CwiseNullaryOpINS0_18scalar_constant_opIfEEKNS_6MatrixIfLi1ELin1ELi1ELi1ELi3EEEEEKNS_3MapIS9_Li0ENS_6StrideILi0ELi0EEEEEEENS0_10IndexBasedESJ_ffE4DataC2ERKSI_, symObjAddr: 0x16A0C, symBinAddr: 0x10001ACF8, symSize: 0xA8 }
  - { offsetInCU: 0x16851B, offset: 0x16851B, size: 0x8, addend: 0x0, symName: __ZNK5Eigen13CwiseBinaryOpINS_8internal17scalar_product_opIffEEKNS_14CwiseNullaryOpINS1_18scalar_constant_opIfEEKNS_6MatrixIfLi1ELin1ELi1ELi1ELi3EEEEEKNS_3MapIS8_Li0ENS_6StrideILi0ELi0EEEEEE7functorEv, symObjAddr: 0x16AB4, symBinAddr: 0x10001ADA0, symSize: 0x18 }
  - { offsetInCU: 0x168541, offset: 0x168541, size: 0x8, addend: 0x0, symName: __ZNK5Eigen13CwiseBinaryOpINS_8internal17scalar_product_opIffEEKNS_14CwiseNullaryOpINS1_18scalar_constant_opIfEEKNS_6MatrixIfLi1ELin1ELi1ELi1ELi3EEEEEKNS_3MapIS8_Li0ENS_6StrideILi0ELi0EEEEEE3lhsEv, symObjAddr: 0x16ACC, symBinAddr: 0x10001ADB8, symSize: 0x18 }
  - { offsetInCU: 0x168567, offset: 0x168567, size: 0x8, addend: 0x0, symName: __ZN5Eigen8internal9evaluatorIKNS_14CwiseNullaryOpINS0_18scalar_constant_opIfEEKNS_6MatrixIfLi1ELin1ELi1ELi1ELi3EEEEEEC1ERS9_, symObjAddr: 0x16AE4, symBinAddr: 0x10001ADD0, symSize: 0x34 }
  - { offsetInCU: 0x16859F, offset: 0x16859F, size: 0x8, addend: 0x0, symName: __ZNK5Eigen13CwiseBinaryOpINS_8internal17scalar_product_opIffEEKNS_14CwiseNullaryOpINS1_18scalar_constant_opIfEEKNS_6MatrixIfLi1ELin1ELi1ELi1ELi3EEEEEKNS_3MapIS8_Li0ENS_6StrideILi0ELi0EEEEEE3rhsEv, symObjAddr: 0x16B18, symBinAddr: 0x10001AE04, symSize: 0x18 }
  - { offsetInCU: 0x1685C5, offset: 0x1685C5, size: 0x8, addend: 0x0, symName: __ZN5Eigen8internal9evaluatorIKNS_3MapINS_6MatrixIfLi1ELin1ELi1ELi1ELi3EEELi0ENS_6StrideILi0ELi0EEEEEEC1ERS8_, symObjAddr: 0x16B30, symBinAddr: 0x10001AE1C, symSize: 0x34 }
  - { offsetInCU: 0x1685FD, offset: 0x1685FD, size: 0x8, addend: 0x0, symName: __ZN5Eigen8internal9evaluatorIKNS_14CwiseNullaryOpINS0_18scalar_constant_opIfEEKNS_6MatrixIfLi1ELin1ELi1ELi1ELi3EEEEEED1Ev, symObjAddr: 0x16B64, symBinAddr: 0x10001AE50, symSize: 0x2C }
  - { offsetInCU: 0x168629, offset: 0x168629, size: 0x8, addend: 0x0, symName: __ZN5Eigen8internal9evaluatorIKNS_14CwiseNullaryOpINS0_18scalar_constant_opIfEEKNS_6MatrixIfLi1ELin1ELi1ELi1ELi3EEEEEEC2ERS9_, symObjAddr: 0x16B90, symBinAddr: 0x10001AE7C, symSize: 0x34 }
  - { offsetInCU: 0x168661, offset: 0x168661, size: 0x8, addend: 0x0, symName: __ZN5Eigen8internal9evaluatorINS_14CwiseNullaryOpINS0_18scalar_constant_opIfEEKNS_6MatrixIfLi1ELin1ELi1ELi1ELi3EEEEEEC2ERKS8_, symObjAddr: 0x16BC4, symBinAddr: 0x10001AEB0, symSize: 0x74 }
  - { offsetInCU: 0x16869A, offset: 0x16869A, size: 0x8, addend: 0x0, symName: __ZN5Eigen8internal14evaluator_baseINS_14CwiseNullaryOpINS0_18scalar_constant_opIfEEKNS_6MatrixIfLi1ELin1ELi1ELi1ELi3EEEEEEC2Ev, symObjAddr: 0x16C38, symBinAddr: 0x10001AF24, symSize: 0x14 }
  - { offsetInCU: 0x1686C4, offset: 0x1686C4, size: 0x8, addend: 0x0, symName: __ZNK5Eigen14CwiseNullaryOpINS_8internal18scalar_constant_opIfEEKNS_6MatrixIfLi1ELin1ELi1ELi1ELi3EEEE7functorEv, symObjAddr: 0x16C4C, symBinAddr: 0x10001AF38, symSize: 0x18 }
  - { offsetInCU: 0x1686EA, offset: 0x1686EA, size: 0x8, addend: 0x0, symName: __ZN5Eigen8internal14evaluator_baseINS_14CwiseNullaryOpINS0_18scalar_constant_opIfEEKNS_6MatrixIfLi1ELin1ELi1ELi1ELi3EEEEEED2Ev, symObjAddr: 0x16C64, symBinAddr: 0x10001AF50, symSize: 0x14 }
  - { offsetInCU: 0x168714, offset: 0x168714, size: 0x8, addend: 0x0, symName: __ZN5Eigen8internal9evaluatorIKNS_3MapINS_6MatrixIfLi1ELin1ELi1ELi1ELi3EEELi0ENS_6StrideILi0ELi0EEEEEEC2ERS8_, symObjAddr: 0x16C78, symBinAddr: 0x10001AF64, symSize: 0x34 }
  - { offsetInCU: 0x16874C, offset: 0x16874C, size: 0x8, addend: 0x0, symName: __ZN5Eigen8internal9evaluatorIKNS_14CwiseNullaryOpINS0_18scalar_constant_opIfEEKNS_6MatrixIfLi1ELin1ELi1ELi1ELi3EEEEEED2Ev, symObjAddr: 0x16CAC, symBinAddr: 0x10001AF98, symSize: 0x2C }
  - { offsetInCU: 0x168778, offset: 0x168778, size: 0x8, addend: 0x0, symName: __ZN5Eigen8internal9evaluatorINS_14CwiseNullaryOpINS0_18scalar_constant_opIfEEKNS_6MatrixIfLi1ELin1ELi1ELi1ELi3EEEEEED2Ev, symObjAddr: 0x16CD8, symBinAddr: 0x10001AFC4, symSize: 0x2C }
  - { offsetInCU: 0x1687A4, offset: 0x1687A4, size: 0x8, addend: 0x0, symName: __ZNK5Eigen13CwiseBinaryOpINS_8internal17scalar_product_opIffEEKNS_14CwiseNullaryOpINS1_18scalar_constant_opIfEEKNS_6MatrixIfLi1ELin1ELi1ELi1ELi3EEEEEKNS_3MapIS8_Li0ENS_6StrideILi0ELi0EEEEEE4rowsEv, symObjAddr: 0x16D04, symBinAddr: 0x10001AFF0, symSize: 0x28 }
  - { offsetInCU: 0x1687CA, offset: 0x1687CA, size: 0x8, addend: 0x0, symName: __ZNK5Eigen13CwiseBinaryOpINS_8internal17scalar_product_opIffEEKNS_14CwiseNullaryOpINS1_18scalar_constant_opIfEEKNS_6MatrixIfLi1ELin1ELi1ELi1ELi3EEEEEKNS_3MapIS8_Li0ENS_6StrideILi0ELi0EEEEEE4colsEv, symObjAddr: 0x16D2C, symBinAddr: 0x10001B018, symSize: 0x28 }
  - { offsetInCU: 0x1687F0, offset: 0x1687F0, size: 0x8, addend: 0x0, symName: __ZN5Eigen8internal31generic_dense_assignment_kernelINS0_9evaluatorINS_5BlockINS3_INS_6MatrixIfLi3ELi3ELi0ELi3ELi3EEELin1ELin1ELb0EEELi1ELin1ELb0EEEEENS2_INS_13CwiseBinaryOpINS0_17scalar_product_opIffEEKNS_14CwiseNullaryOpINS0_18scalar_constant_opIfEEKNS4_IfLi1ELin1ELi1ELi1ELi3EEEEEKNS_3MapISF_Li0ENS_6StrideILi0ELi0EEEEEEEEENS0_13sub_assign_opIffEELi0EEC2ERS8_RKSP_RKSR_RS7_, symObjAddr: 0x16D54, symBinAddr: 0x10001B040, symSize: 0x44 }
  - { offsetInCU: 0x168856, offset: 0x168856, size: 0x8, addend: 0x0, symName: __ZNK5Eigen8internal31generic_dense_assignment_kernelINS0_9evaluatorINS_5BlockINS3_INS_6MatrixIfLi3ELi3ELi0ELi3ELi3EEELin1ELin1ELb0EEELi1ELin1ELb0EEEEENS2_INS_13CwiseBinaryOpINS0_17scalar_product_opIffEEKNS_14CwiseNullaryOpINS0_18scalar_constant_opIfEEKNS4_IfLi1ELin1ELi1ELi1ELi3EEEEEKNS_3MapISF_Li0ENS_6StrideILi0ELi0EEEEEEEEENS0_13sub_assign_opIffEELi0EE4sizeEv, symObjAddr: 0x16D98, symBinAddr: 0x10001B084, symSize: 0x28 }
  - { offsetInCU: 0x16887C, offset: 0x16887C, size: 0x8, addend: 0x0, symName: __ZN5Eigen8internal31generic_dense_assignment_kernelINS0_9evaluatorINS_5BlockINS3_INS_6MatrixIfLi3ELi3ELi0ELi3ELi3EEELin1ELin1ELb0EEELi1ELin1ELb0EEEEENS2_INS_13CwiseBinaryOpINS0_17scalar_product_opIffEEKNS_14CwiseNullaryOpINS0_18scalar_constant_opIfEEKNS4_IfLi1ELin1ELi1ELi1ELi3EEEEEKNS_3MapISF_Li0ENS_6StrideILi0ELi0EEEEEEEEENS0_13sub_assign_opIffEELi0EE11assignCoeffEl, symObjAddr: 0x16DC0, symBinAddr: 0x10001B0AC, symSize: 0x64 }
  - { offsetInCU: 0x1688B1, offset: 0x1688B1, size: 0x8, addend: 0x0, symName: __ZNK5Eigen9EigenBaseINS_5BlockINS1_INS_6MatrixIfLi3ELi3ELi0ELi3ELi3EEELin1ELin1ELb0EEELi1ELin1ELb0EEEE4sizeEv, symObjAddr: 0x16E24, symBinAddr: 0x10001B110, symSize: 0x44 }
  - { offsetInCU: 0x1688D7, offset: 0x1688D7, size: 0x8, addend: 0x0, symName: __ZNK5Eigen9EigenBaseINS_5BlockINS1_INS_6MatrixIfLi3ELi3ELi0ELi3ELi3EEELin1ELin1ELb0EEELi1ELin1ELb0EEEE4rowsEv, symObjAddr: 0x16E68, symBinAddr: 0x10001B154, symSize: 0x28 }
  - { offsetInCU: 0x1688FD, offset: 0x1688FD, size: 0x8, addend: 0x0, symName: __ZNK5Eigen9EigenBaseINS_5BlockINS1_INS_6MatrixIfLi3ELi3ELi0ELi3ELi3EEELin1ELin1ELb0EEELi1ELin1ELb0EEEE4colsEv, symObjAddr: 0x16E90, symBinAddr: 0x10001B17C, symSize: 0x28 }
  - { offsetInCU: 0x168923, offset: 0x168923, size: 0x8, addend: 0x0, symName: __ZNK5Eigen8internal13sub_assign_opIffE11assignCoeffERfRKf, symObjAddr: 0x16EB8, symBinAddr: 0x10001B1A4, symSize: 0x30 }
  - { offsetInCU: 0x168965, offset: 0x168965, size: 0x8, addend: 0x0, symName: __ZN5Eigen8internal17mapbase_evaluatorINS_5BlockINS2_INS_6MatrixIfLi3ELi3ELi0ELi3ELi3EEELin1ELin1ELb0EEELi1ELin1ELb0EEENS3_IfLi1ELin1ELi1ELi1ELi3EEEE8coeffRefEl, symObjAddr: 0x16EE8, symBinAddr: 0x10001B1D4, symSize: 0x48 }
  - { offsetInCU: 0x16899A, offset: 0x16899A, size: 0x8, addend: 0x0, symName: __ZNK5Eigen8internal16binary_evaluatorINS_13CwiseBinaryOpINS0_17scalar_product_opIffEEKNS_14CwiseNullaryOpINS0_18scalar_constant_opIfEEKNS_6MatrixIfLi1ELin1ELi1ELi1ELi3EEEEEKNS_3MapIS9_Li0ENS_6StrideILi0ELi0EEEEEEENS0_10IndexBasedESJ_ffE5coeffEl, symObjAddr: 0x16F30, symBinAddr: 0x10001B21C, symSize: 0x6C }
  - { offsetInCU: 0x1689CF, offset: 0x1689CF, size: 0x8, addend: 0x0, symName: __ZNK5Eigen8internal16binary_evaluatorINS_13CwiseBinaryOpINS0_17scalar_product_opIffEEKNS_14CwiseNullaryOpINS0_18scalar_constant_opIfEEKNS_6MatrixIfLi1ELin1ELi1ELi1ELi3EEEEEKNS_3MapIS9_Li0ENS_6StrideILi0ELi0EEEEEEENS0_10IndexBasedESJ_ffE4Data4funcEv, symObjAddr: 0x16F9C, symBinAddr: 0x10001B288, symSize: 0x14 }
  - { offsetInCU: 0x1689FF, offset: 0x1689FF, size: 0x8, addend: 0x0, symName: __ZNK5Eigen8internal9evaluatorINS_14CwiseNullaryOpINS0_18scalar_constant_opIfEEKNS_6MatrixIfLi1ELin1ELi1ELi1ELi3EEEEEE5coeffIlEEfT_, symObjAddr: 0x16FB0, symBinAddr: 0x10001B29C, symSize: 0x38 }
  - { offsetInCU: 0x168A3D, offset: 0x168A3D, size: 0x8, addend: 0x0, symName: __ZNK5Eigen8internal17mapbase_evaluatorINS_3MapINS_6MatrixIfLi1ELin1ELi1ELi1ELi3EEELi0ENS_6StrideILi0ELi0EEEEES4_E5coeffEl, symObjAddr: 0x16FE8, symBinAddr: 0x10001B2D4, symSize: 0x48 }
  - { offsetInCU: 0x168A72, offset: 0x168A72, size: 0x8, addend: 0x0, symName: __ZN5Eigen8internal9evaluatorINS_13CwiseBinaryOpINS0_17scalar_product_opIffEEKNS_14CwiseNullaryOpINS0_18scalar_constant_opIfEEKNS_6MatrixIfLi1ELin1ELi1ELi1ELi3EEEEEKNS_3MapIS9_Li0ENS_6StrideILi0ELi0EEEEEEEED2Ev, symObjAddr: 0x17030, symBinAddr: 0x10001B31C, symSize: 0x2C }
  - { offsetInCU: 0x168A9F, offset: 0x168A9F, size: 0x8, addend: 0x0, symName: __ZN5Eigen8internal16binary_evaluatorINS_13CwiseBinaryOpINS0_17scalar_product_opIffEEKNS_14CwiseNullaryOpINS0_18scalar_constant_opIfEEKNS_6MatrixIfLi1ELin1ELi1ELi1ELi3EEEEEKNS_3MapIS9_Li0ENS_6StrideILi0ELi0EEEEEEENS0_10IndexBasedESJ_ffED2Ev, symObjAddr: 0x1705C, symBinAddr: 0x10001B348, symSize: 0x34 }
  - { offsetInCU: 0x168ACB, offset: 0x168ACB, size: 0x8, addend: 0x0, symName: __ZN5Eigen8internal16binary_evaluatorINS_13CwiseBinaryOpINS0_17scalar_product_opIffEEKNS_14CwiseNullaryOpINS0_18scalar_constant_opIfEEKNS_6MatrixIfLi1ELin1ELi1ELi1ELi3EEEEEKNS_3MapIS9_Li0ENS_6StrideILi0ELi0EEEEEEENS0_10IndexBasedESJ_ffE4DataD1Ev, symObjAddr: 0x17090, symBinAddr: 0x10001B37C, symSize: 0x2C }
  - { offsetInCU: 0x168AF8, offset: 0x168AF8, size: 0x8, addend: 0x0, symName: __ZN5Eigen8internal16binary_evaluatorINS_13CwiseBinaryOpINS0_17scalar_product_opIffEEKNS_14CwiseNullaryOpINS0_18scalar_constant_opIfEEKNS_6MatrixIfLi1ELin1ELi1ELi1ELi3EEEEEKNS_3MapIS9_Li0ENS_6StrideILi0ELi0EEEEEEENS0_10IndexBasedESJ_ffE4DataD2Ev, symObjAddr: 0x170BC, symBinAddr: 0x10001B3A8, symSize: 0x3C }
  - { offsetInCU: 0x168B25, offset: 0x168B25, size: 0x8, addend: 0x0, symName: __ZN5Eigen8internal9evaluatorIKNS_3MapINS_6MatrixIfLi1ELin1ELi1ELi1ELi3EEELi0ENS_6StrideILi0ELi0EEEEEED1Ev, symObjAddr: 0x170F8, symBinAddr: 0x10001B3E4, symSize: 0x2C }
  - { offsetInCU: 0x168B51, offset: 0x168B51, size: 0x8, addend: 0x0, symName: __ZN5Eigen8internal9evaluatorIKNS_3MapINS_6MatrixIfLi1ELin1ELi1ELi1ELi3EEELi0ENS_6StrideILi0ELi0EEEEEED2Ev, symObjAddr: 0x17124, symBinAddr: 0x10001B410, symSize: 0x2C }
  - { offsetInCU: 0x168B7D, offset: 0x168B7D, size: 0x8, addend: 0x0, symName: __ZN5Eigen8internal13sub_assign_opIffEC2Ev, symObjAddr: 0x17150, symBinAddr: 0x10001B43C, symSize: 0x14 }
  - { offsetInCU: 0x168BA7, offset: 0x168BA7, size: 0x8, addend: 0x0, symName: __ZN5Eigen13CwiseBinaryOpINS_8internal17scalar_product_opIffEEKNS_14CwiseNullaryOpINS1_18scalar_constant_opIfEEKNS_6MatrixIfLin1ELi1ELi0ELi3ELi1EEEEEKNS_5BlockINSC_INS7_IfLi3ELi3ELi0ELi3ELi3EEELi3ELi1ELb1EEELin1ELi1ELb0EEEEC1ERSB_RSG_RKS3_, symObjAddr: 0x17164, symBinAddr: 0x10001B450, symSize: 0x44 }
  - { offsetInCU: 0x168BFB, offset: 0x168BFB, size: 0x8, addend: 0x0, symName: __ZN5Eigen13CwiseBinaryOpINS_8internal17scalar_product_opIffEEKNS_14CwiseNullaryOpINS1_18scalar_constant_opIfEEKNS_6MatrixIfLin1ELi1ELi0ELi3ELi1EEEEEKNS_5BlockINSC_INS7_IfLi3ELi3ELi0ELi3ELi3EEELi3ELi1ELb1EEELin1ELi1ELb0EEEEC2ERSB_RSG_RKS3_, symObjAddr: 0x171A8, symBinAddr: 0x10001B494, symSize: 0x100 }
  - { offsetInCU: 0x168C54, offset: 0x168C54, size: 0x8, addend: 0x0, symName: __ZN5Eigen17CwiseBinaryOpImplINS_8internal17scalar_product_opIffEEKNS_14CwiseNullaryOpINS1_18scalar_constant_opIfEEKNS_6MatrixIfLin1ELi1ELi0ELi3ELi1EEEEEKNS_5BlockINSC_INS7_IfLi3ELi3ELi0ELi3ELi3EEELi3ELi1ELb1EEELin1ELi1ELb0EEENS_5DenseEEC2Ev, symObjAddr: 0x172A8, symBinAddr: 0x10001B594, symSize: 0x2C }
  - { offsetInCU: 0x168C80, offset: 0x168C80, size: 0x8, addend: 0x0, symName: __ZN5Eigen10MatrixBaseINS_13CwiseBinaryOpINS_8internal17scalar_product_opIffEEKNS_14CwiseNullaryOpINS2_18scalar_constant_opIfEEKNS_6MatrixIfLin1ELi1ELi0ELi3ELi1EEEEEKNS_5BlockINSD_INS8_IfLi3ELi3ELi0ELi3ELi3EEELi3ELi1ELb1EEELin1ELi1ELb0EEEEEEC2Ev, symObjAddr: 0x172D4, symBinAddr: 0x10001B5C0, symSize: 0x2C }
  - { offsetInCU: 0x168CAA, offset: 0x168CAA, size: 0x8, addend: 0x0, symName: __ZN5Eigen9DenseBaseINS_13CwiseBinaryOpINS_8internal17scalar_product_opIffEEKNS_14CwiseNullaryOpINS2_18scalar_constant_opIfEEKNS_6MatrixIfLin1ELi1ELi0ELi3ELi1EEEEEKNS_5BlockINSD_INS8_IfLi3ELi3ELi0ELi3ELi3EEELi3ELi1ELb1EEELin1ELi1ELb0EEEEEEC2Ev, symObjAddr: 0x17300, symBinAddr: 0x10001B5EC, symSize: 0x14 }
  - { offsetInCU: 0x168CD4, offset: 0x168CD4, size: 0x8, addend: 0x0, symName: __ZNK5Eigen9EigenBaseINS_13CwiseBinaryOpINS_8internal17scalar_product_opIffEEKNS_14CwiseNullaryOpINS2_18scalar_constant_opIfEEKNS_6MatrixIfLin1ELi1ELi0ELi3ELi1EEEEEKNS_5BlockINSD_INS8_IfLi3ELi3ELi0ELi3ELi3EEELi3ELi1ELb1EEELin1ELi1ELb0EEEEEE7derivedEv, symObjAddr: 0x17314, symBinAddr: 0x10001B600, symSize: 0x14 }
  - { offsetInCU: 0x168CFA, offset: 0x168CFA, size: 0x8, addend: 0x0, symName: __ZN5Eigen7ProductINS_13CwiseBinaryOpINS_8internal17scalar_product_opIffEEKNS_14CwiseNullaryOpINS2_18scalar_constant_opIfEEKNS_6MatrixIfLin1ELi1ELi0ELi3ELi1EEEEEKNS_5BlockINSD_INS8_IfLi3ELi3ELi0ELi3ELi3EEELi3ELi1ELb1EEELin1ELi1ELb0EEEEENS_3MapINS8_IfLi1ELin1ELi1ELi1ELi3EEELi0ENS_6StrideILi0ELi0EEEEELi0EEC1ERKSI_RKSN_, symObjAddr: 0x17328, symBinAddr: 0x10001B614, symSize: 0x3C }
  - { offsetInCU: 0x168D40, offset: 0x168D40, size: 0x8, addend: 0x0, symName: __ZN5Eigen7ProductINS_13CwiseBinaryOpINS_8internal17scalar_product_opIffEEKNS_14CwiseNullaryOpINS2_18scalar_constant_opIfEEKNS_6MatrixIfLin1ELi1ELi0ELi3ELi1EEEEEKNS_5BlockINSD_INS8_IfLi3ELi3ELi0ELi3ELi3EEELi3ELi1ELb1EEELin1ELi1ELb0EEEEENS_3MapINS8_IfLi1ELin1ELi1ELi1ELi3EEELi0ENS_6StrideILi0ELi0EEEEELi0EEC2ERKSI_RKSN_, symObjAddr: 0x17364, symBinAddr: 0x10001B650, symSize: 0xC4 }
  - { offsetInCU: 0x168D8B, offset: 0x168D8B, size: 0x8, addend: 0x0, symName: __ZN5Eigen11ProductImplINS_13CwiseBinaryOpINS_8internal17scalar_product_opIffEEKNS_14CwiseNullaryOpINS2_18scalar_constant_opIfEEKNS_6MatrixIfLin1ELi1ELi0ELi3ELi1EEEEEKNS_5BlockINSD_INS8_IfLi3ELi3ELi0ELi3ELi3EEELi3ELi1ELb1EEELin1ELi1ELb0EEEEENS_3MapINS8_IfLi1ELin1ELi1ELi1ELi3EEELi0ENS_6StrideILi0ELi0EEEEELi0ENS_5DenseEEC2Ev, symObjAddr: 0x17428, symBinAddr: 0x10001B714, symSize: 0x2C }
  - { offsetInCU: 0x168DB7, offset: 0x168DB7, size: 0x8, addend: 0x0, symName: __ZN5Eigen13CwiseBinaryOpINS_8internal17scalar_product_opIffEEKNS_14CwiseNullaryOpINS1_18scalar_constant_opIfEEKNS_6MatrixIfLin1ELi1ELi0ELi3ELi1EEEEEKNS_5BlockINSC_INS7_IfLi3ELi3ELi0ELi3ELi3EEELi3ELi1ELb1EEELin1ELi1ELb0EEEEC1ERKSH_, symObjAddr: 0x17454, symBinAddr: 0x10001B740, symSize: 0x34 }
  - { offsetInCU: 0x168DEC, offset: 0x168DEC, size: 0x8, addend: 0x0, symName: __ZNK5Eigen13CwiseBinaryOpINS_8internal17scalar_product_opIffEEKNS_14CwiseNullaryOpINS1_18scalar_constant_opIfEEKNS_6MatrixIfLin1ELi1ELi0ELi3ELi1EEEEEKNS_5BlockINSC_INS7_IfLi3ELi3ELi0ELi3ELi3EEELi3ELi1ELb1EEELin1ELi1ELb0EEEE4colsEv, symObjAddr: 0x17488, symBinAddr: 0x10001B774, symSize: 0x28 }
  - { offsetInCU: 0x168E17, offset: 0x168E17, size: 0x8, addend: 0x0, symName: __ZN5Eigen8internal18dense_product_baseINS_13CwiseBinaryOpINS0_17scalar_product_opIffEEKNS_14CwiseNullaryOpINS0_18scalar_constant_opIfEEKNS_6MatrixIfLin1ELi1ELi0ELi3ELi1EEEEEKNS_5BlockINSD_INS8_IfLi3ELi3ELi0ELi3ELi3EEELi3ELi1ELb1EEELin1ELi1ELb0EEEEENS_3MapINS8_IfLi1ELin1ELi1ELi1ELi3EEELi0ENS_6StrideILi0ELi0EEEEELi0ELi4EEC2Ev, symObjAddr: 0x174B0, symBinAddr: 0x10001B79C, symSize: 0x2C }
  - { offsetInCU: 0x168E43, offset: 0x168E43, size: 0x8, addend: 0x0, symName: __ZN5Eigen10MatrixBaseINS_7ProductINS_13CwiseBinaryOpINS_8internal17scalar_product_opIffEEKNS_14CwiseNullaryOpINS3_18scalar_constant_opIfEEKNS_6MatrixIfLin1ELi1ELi0ELi3ELi1EEEEEKNS_5BlockINSE_INS9_IfLi3ELi3ELi0ELi3ELi3EEELi3ELi1ELb1EEELin1ELi1ELb0EEEEENS_3MapINS9_IfLi1ELin1ELi1ELi1ELi3EEELi0ENS_6StrideILi0ELi0EEEEELi0EEEEC2Ev, symObjAddr: 0x174DC, symBinAddr: 0x10001B7C8, symSize: 0x2C }
  - { offsetInCU: 0x168E6D, offset: 0x168E6D, size: 0x8, addend: 0x0, symName: __ZN5Eigen9DenseBaseINS_7ProductINS_13CwiseBinaryOpINS_8internal17scalar_product_opIffEEKNS_14CwiseNullaryOpINS3_18scalar_constant_opIfEEKNS_6MatrixIfLin1ELi1ELi0ELi3ELi1EEEEEKNS_5BlockINSE_INS9_IfLi3ELi3ELi0ELi3ELi3EEELi3ELi1ELb1EEELin1ELi1ELb0EEEEENS_3MapINS9_IfLi1ELin1ELi1ELi1ELi3EEELi0ENS_6StrideILi0ELi0EEEEELi0EEEEC2Ev, symObjAddr: 0x17508, symBinAddr: 0x10001B7F4, symSize: 0x14 }
  - { offsetInCU: 0x168E97, offset: 0x168E97, size: 0x8, addend: 0x0, symName: __ZN5Eigen13CwiseBinaryOpINS_8internal17scalar_product_opIffEEKNS_14CwiseNullaryOpINS1_18scalar_constant_opIfEEKNS_6MatrixIfLin1ELi1ELi0ELi3ELi1EEEEEKNS_5BlockINSC_INS7_IfLi3ELi3ELi0ELi3ELi3EEELi3ELi1ELb1EEELin1ELi1ELb0EEEEC2ERKSH_, symObjAddr: 0x1751C, symBinAddr: 0x10001B808, symSize: 0x68 }
  - { offsetInCU: 0x168ECC, offset: 0x168ECC, size: 0x8, addend: 0x0, symName: __ZN5Eigen9EigenBaseINS_5BlockINS1_INS_6MatrixIfLi3ELi3ELi0ELi3ELi3EEELin1ELin1ELb0EEELin1ELin1ELb0EEEE7derivedEv, symObjAddr: 0x17584, symBinAddr: 0x10001B870, symSize: 0x14 }
  - { offsetInCU: 0x168EF2, offset: 0x168EF2, size: 0x8, addend: 0x0, symName: __ZN5Eigen7NoAliasINS_5BlockINS1_INS_6MatrixIfLi3ELi3ELi0ELi3ELi3EEELin1ELin1ELb0EEELin1ELin1ELb0EEENS_10MatrixBaseEEC1ERS5_, symObjAddr: 0x17598, symBinAddr: 0x10001B884, symSize: 0x34 }
  - { offsetInCU: 0x168F2A, offset: 0x168F2A, size: 0x8, addend: 0x0, symName: __ZN5Eigen7NoAliasINS_5BlockINS1_INS_6MatrixIfLi3ELi3ELi0ELi3ELi3EEELin1ELin1ELb0EEELin1ELin1ELb0EEENS_10MatrixBaseEEC2ERS5_, symObjAddr: 0x175CC, symBinAddr: 0x10001B8B8, symSize: 0x20 }
  - { offsetInCU: 0x168F62, offset: 0x168F62, size: 0x8, addend: 0x0, symName: __ZNK5Eigen9EigenBaseINS_7ProductINS_13CwiseBinaryOpINS_8internal17scalar_product_opIffEEKNS_14CwiseNullaryOpINS3_18scalar_constant_opIfEEKNS_6MatrixIfLin1ELi1ELi0ELi3ELi1EEEEEKNS_5BlockINSE_INS9_IfLi3ELi3ELi0ELi3ELi3EEELi3ELi1ELb1EEELin1ELi1ELb0EEEEENS_3MapINS9_IfLi1ELin1ELi1ELi1ELi3EEELi0ENS_6StrideILi0ELi0EEEEELi0EEEE7derivedEv, symObjAddr: 0x17628, symBinAddr: 0x10001B914, symSize: 0x14 }
  - { offsetInCU: 0x168F92, offset: 0x168F92, size: 0x8, addend: 0x0, symName: __ZN5Eigen8internal10AssignmentINS_5BlockINS2_INS_6MatrixIfLi3ELi3ELi0ELi3ELi3EEELin1ELin1ELb0EEELin1ELin1ELb0EEENS_7ProductINS_13CwiseBinaryOpINS0_17scalar_product_opIffEEKNS_14CwiseNullaryOpINS0_18scalar_constant_opIfEEKNS3_IfLin1ELi1ELi0ELi3ELi1EEEEEKNS2_INS2_IS4_Li3ELi1ELb1EEELin1ELi1ELb0EEEEENS_3MapINS3_IfLi1ELin1ELi1ELi1ELi3EEELi0ENS_6StrideILi0ELi0EEEEELi0EEENS0_13sub_assign_opIffEENS0_11Dense2DenseEvE3runERS6_RKSR_RKST_, symObjAddr: 0x1763C, symBinAddr: 0x10001B928, symSize: 0xE0 }
  - { offsetInCU: 0x168FCE, offset: 0x168FCE, size: 0x8, addend: 0x0, symName: __ZNK5Eigen7ProductINS_13CwiseBinaryOpINS_8internal17scalar_product_opIffEEKNS_14CwiseNullaryOpINS2_18scalar_constant_opIfEEKNS_6MatrixIfLin1ELi1ELi0ELi3ELi1EEEEEKNS_5BlockINSD_INS8_IfLi3ELi3ELi0ELi3ELi3EEELi3ELi1ELb1EEELin1ELi1ELb0EEEEENS_3MapINS8_IfLi1ELin1ELi1ELi1ELi3EEELi0ENS_6StrideILi0ELi0EEEEELi0EE4rowsEv, symObjAddr: 0x1771C, symBinAddr: 0x10001BA08, symSize: 0x24 }
  - { offsetInCU: 0x168FF4, offset: 0x168FF4, size: 0x8, addend: 0x0, symName: __ZNK5Eigen7ProductINS_13CwiseBinaryOpINS_8internal17scalar_product_opIffEEKNS_14CwiseNullaryOpINS2_18scalar_constant_opIfEEKNS_6MatrixIfLin1ELi1ELi0ELi3ELi1EEEEEKNS_5BlockINSD_INS8_IfLi3ELi3ELi0ELi3ELi3EEELi3ELi1ELb1EEELin1ELi1ELb0EEEEENS_3MapINS8_IfLi1ELin1ELi1ELi1ELi3EEELi0ENS_6StrideILi0ELi0EEEEELi0EE4colsEv, symObjAddr: 0x17740, symBinAddr: 0x10001BA2C, symSize: 0x28 }
  - { offsetInCU: 0x16901A, offset: 0x16901A, size: 0x8, addend: 0x0, symName: __ZN5Eigen8internal20generic_product_implINS_13CwiseBinaryOpINS0_17scalar_product_opIffEEKNS_14CwiseNullaryOpINS0_18scalar_constant_opIfEEKNS_6MatrixIfLin1ELi1ELi0ELi3ELi1EEEEEKNS_5BlockINSD_INS8_IfLi3ELi3ELi0ELi3ELi3EEELi3ELi1ELb1EEELin1ELi1ELb0EEEEENS_3MapINS8_IfLi1ELin1ELi1ELi1ELi3EEELi0ENS_6StrideILi0ELi0EEEEENS_10DenseShapeESO_Li3EE5subToINSD_INSD_ISE_Lin1ELin1ELb0EEELin1ELin1ELb0EEEEEvRT_RKSI_RKSN_, symObjAddr: 0x17768, symBinAddr: 0x10001BA54, symSize: 0x90 }
  - { offsetInCU: 0x169065, offset: 0x169065, size: 0x8, addend: 0x0, symName: __ZNK5Eigen7ProductINS_13CwiseBinaryOpINS_8internal17scalar_product_opIffEEKNS_14CwiseNullaryOpINS2_18scalar_constant_opIfEEKNS_6MatrixIfLin1ELi1ELi0ELi3ELi1EEEEEKNS_5BlockINSD_INS8_IfLi3ELi3ELi0ELi3ELi3EEELi3ELi1ELb1EEELin1ELi1ELb0EEEEENS_3MapINS8_IfLi1ELin1ELi1ELi1ELi3EEELi0ENS_6StrideILi0ELi0EEEEELi0EE3lhsEv, symObjAddr: 0x177F8, symBinAddr: 0x10001BAE4, symSize: 0x14 }
  - { offsetInCU: 0x16908B, offset: 0x16908B, size: 0x8, addend: 0x0, symName: __ZNK5Eigen7ProductINS_13CwiseBinaryOpINS_8internal17scalar_product_opIffEEKNS_14CwiseNullaryOpINS2_18scalar_constant_opIfEEKNS_6MatrixIfLin1ELi1ELi0ELi3ELi1EEEEEKNS_5BlockINSD_INS8_IfLi3ELi3ELi0ELi3ELi3EEELi3ELi1ELb1EEELin1ELi1ELb0EEEEENS_3MapINS8_IfLi1ELin1ELi1ELi1ELi3EEELi0ENS_6StrideILi0ELi0EEEEELi0EE3rhsEv, symObjAddr: 0x1780C, symBinAddr: 0x10001BAF8, symSize: 0x18 }
  - { offsetInCU: 0x1690B1, offset: 0x1690B1, size: 0x8, addend: 0x0, symName: __ZNK5Eigen13CwiseBinaryOpINS_8internal17scalar_product_opIffEEKNS_14CwiseNullaryOpINS1_18scalar_constant_opIfEEKNS_6MatrixIfLin1ELi1ELi0ELi3ELi1EEEEEKNS_5BlockINSC_INS7_IfLi3ELi3ELi0ELi3ELi3EEELi3ELi1ELb1EEELin1ELi1ELb0EEEE4rowsEv, symObjAddr: 0x17824, symBinAddr: 0x10001BB10, symSize: 0x28 }
  - { offsetInCU: 0x16928A, offset: 0x16928A, size: 0x8, addend: 0x0, symName: __ZNK5Eigen10MatrixBaseINS_13CwiseBinaryOpINS_8internal17scalar_product_opIffEEKNS_14CwiseNullaryOpINS2_18scalar_constant_opIfEEKNS_6MatrixIfLin1ELi1ELi0ELi3ELi1EEEEEKNS_5BlockINSD_INS8_IfLi3ELi3ELi0ELi3ELi3EEELi3ELi1ELb1EEELin1ELi1ELb0EEEEEE11lazyProductINS_3MapINS8_IfLi1ELin1ELi1ELi1ELi3EEELi0ENS_6StrideILi0ELi0EEEEEEEKNS_7ProductISI_T_Li1EEERKNS0_ISR_EE, symObjAddr: 0x17888, symBinAddr: 0x10001BB74, symSize: 0x4C }
  - { offsetInCU: 0x1692CA, offset: 0x1692CA, size: 0x8, addend: 0x0, symName: __ZN5Eigen8internal10AssignmentINS_5BlockINS2_INS_6MatrixIfLi3ELi3ELi0ELi3ELi3EEELin1ELin1ELb0EEELin1ELin1ELb0EEENS_7ProductINS_13CwiseBinaryOpINS0_17scalar_product_opIffEEKNS_14CwiseNullaryOpINS0_18scalar_constant_opIfEEKNS3_IfLin1ELi1ELi0ELi3ELi1EEEEEKNS2_INS2_IS4_Li3ELi1ELb1EEELin1ELi1ELb0EEEEENS_3MapINS3_IfLi1ELin1ELi1ELi1ELi3EEELi0ENS_6StrideILi0ELi0EEEEELi1EEENS0_13sub_assign_opIffEENS0_11Dense2DenseEvE3runERS6_RKSR_RKST_, symObjAddr: 0x178D4, symBinAddr: 0x10001BBC0, symSize: 0x40 }
  - { offsetInCU: 0x16930C, offset: 0x16930C, size: 0x8, addend: 0x0, symName: __ZN5Eigen8internal27checkTransposeAliasing_implINS_5BlockINS2_INS_6MatrixIfLi3ELi3ELi0ELi3ELi3EEELin1ELin1ELb0EEELin1ELin1ELb0EEENS_7ProductINS_13CwiseBinaryOpINS0_17scalar_product_opIffEEKNS_14CwiseNullaryOpINS0_18scalar_constant_opIfEEKNS3_IfLin1ELi1ELi0ELi3ELi1EEEEEKNS2_INS2_IS4_Li3ELi1ELb1EEELin1ELi1ELb0EEEEENS_3MapINS3_IfLi1ELin1ELi1ELi1ELi3EEELi0ENS_6StrideILi0ELi0EEEEELi1EEELb0EE3runERKS6_RKSR_, symObjAddr: 0x17A54, symBinAddr: 0x10001BD40, symSize: 0x14 }
  - { offsetInCU: 0x169373, offset: 0x169373, size: 0x8, addend: 0x0, symName: __ZN5Eigen8internal9evaluatorINS_7ProductINS_13CwiseBinaryOpINS0_17scalar_product_opIffEEKNS_14CwiseNullaryOpINS0_18scalar_constant_opIfEEKNS_6MatrixIfLin1ELi1ELi0ELi3ELi1EEEEEKNS_5BlockINSE_INS9_IfLi3ELi3ELi0ELi3ELi3EEELi3ELi1ELb1EEELin1ELi1ELb0EEEEENS_3MapINS9_IfLi1ELin1ELi1ELi1ELi3EEELi0ENS_6StrideILi0ELi0EEEEELi1EEEEC1ERKSP_, symObjAddr: 0x17A68, symBinAddr: 0x10001BD54, symSize: 0x34 }
  - { offsetInCU: 0x1693AB, offset: 0x1693AB, size: 0x8, addend: 0x0, symName: __ZNK5Eigen9EigenBaseINS_5BlockINS1_INS_6MatrixIfLi3ELi3ELi0ELi3ELi3EEELin1ELin1ELb0EEELin1ELin1ELb0EEEE18const_cast_derivedEv, symObjAddr: 0x17B50, symBinAddr: 0x10001BE3C, symSize: 0x14 }
  - { offsetInCU: 0x1693FE, offset: 0x1693FE, size: 0x8, addend: 0x0, symName: __ZN5Eigen8internal31generic_dense_assignment_kernelINS0_9evaluatorINS_5BlockINS3_INS_6MatrixIfLi3ELi3ELi0ELi3ELi3EEELin1ELin1ELb0EEELin1ELin1ELb0EEEEENS2_INS_7ProductINS_13CwiseBinaryOpINS0_17scalar_product_opIffEEKNS_14CwiseNullaryOpINS0_18scalar_constant_opIfEEKNS4_IfLin1ELi1ELi0ELi3ELi1EEEEEKNS3_INS3_IS5_Li3ELi1ELb1EEELin1ELi1ELb0EEEEENS_3MapINS4_IfLi1ELin1ELi1ELi1ELi3EEELi0ENS_6StrideILi0ELi0EEEEELi1EEEEENS0_13sub_assign_opIffEELi0EEC1ERS8_RKSU_RKSW_RS7_, symObjAddr: 0x17B64, symBinAddr: 0x10001BE50, symSize: 0x4C }
  - { offsetInCU: 0x169469, offset: 0x169469, size: 0x8, addend: 0x0, symName: __ZN5Eigen8internal21dense_assignment_loopINS0_31generic_dense_assignment_kernelINS0_9evaluatorINS_5BlockINS4_INS_6MatrixIfLi3ELi3ELi0ELi3ELi3EEELin1ELin1ELb0EEELin1ELin1ELb0EEEEENS3_INS_7ProductINS_13CwiseBinaryOpINS0_17scalar_product_opIffEEKNS_14CwiseNullaryOpINS0_18scalar_constant_opIfEEKNS5_IfLin1ELi1ELi0ELi3ELi1EEEEEKNS4_INS4_IS6_Li3ELi1ELb1EEELin1ELi1ELb0EEEEENS_3MapINS5_IfLi1ELin1ELi1ELi1ELi3EEELi0ENS_6StrideILi0ELi0EEEEELi1EEEEENS0_13sub_assign_opIffEELi0EEELi0ELi0EE3runERSY_, symObjAddr: 0x17BB0, symBinAddr: 0x10001BE9C, symSize: 0xAC }
  - { offsetInCU: 0x1694C7, offset: 0x1694C7, size: 0x8, addend: 0x0, symName: __ZN5Eigen8internal9evaluatorINS_7ProductINS_13CwiseBinaryOpINS0_17scalar_product_opIffEEKNS_14CwiseNullaryOpINS0_18scalar_constant_opIfEEKNS_6MatrixIfLin1ELi1ELi0ELi3ELi1EEEEEKNS_5BlockINSE_INS9_IfLi3ELi3ELi0ELi3ELi3EEELi3ELi1ELb1EEELin1ELi1ELb0EEEEENS_3MapINS9_IfLi1ELin1ELi1ELi1ELi3EEELi0ENS_6StrideILi0ELi0EEEEELi1EEEED1Ev, symObjAddr: 0x17C5C, symBinAddr: 0x10001BF48, symSize: 0x2C }
  - { offsetInCU: 0x1694F3, offset: 0x1694F3, size: 0x8, addend: 0x0, symName: __ZN5Eigen8internal9evaluatorINS_7ProductINS_13CwiseBinaryOpINS0_17scalar_product_opIffEEKNS_14CwiseNullaryOpINS0_18scalar_constant_opIfEEKNS_6MatrixIfLin1ELi1ELi0ELi3ELi1EEEEEKNS_5BlockINSE_INS9_IfLi3ELi3ELi0ELi3ELi3EEELi3ELi1ELb1EEELin1ELi1ELb0EEEEENS_3MapINS9_IfLi1ELin1ELi1ELi1ELi3EEELi0ENS_6StrideILi0ELi0EEEEELi1EEEEC2ERKSP_, symObjAddr: 0x17C88, symBinAddr: 0x10001BF74, symSize: 0x34 }
  - { offsetInCU: 0x16952B, offset: 0x16952B, size: 0x8, addend: 0x0, symName: __ZN5Eigen8internal17product_evaluatorINS_7ProductINS_13CwiseBinaryOpINS0_17scalar_product_opIffEEKNS_14CwiseNullaryOpINS0_18scalar_constant_opIfEEKNS_6MatrixIfLin1ELi1ELi0ELi3ELi1EEEEEKNS_5BlockINSE_INS9_IfLi3ELi3ELi0ELi3ELi3EEELi3ELi1ELb1EEELin1ELi1ELb0EEEEENS_3MapINS9_IfLi1ELin1ELi1ELi1ELi3EEELi0ENS_6StrideILi0ELi0EEEEELi1EEELi4ENS_10DenseShapeESQ_ffEC2ERKSP_, symObjAddr: 0x17CBC, symBinAddr: 0x10001BFA8, symSize: 0x124 }
  - { offsetInCU: 0x169564, offset: 0x169564, size: 0x8, addend: 0x0, symName: __ZN5Eigen8internal14evaluator_baseINS_7ProductINS_13CwiseBinaryOpINS0_17scalar_product_opIffEEKNS_14CwiseNullaryOpINS0_18scalar_constant_opIfEEKNS_6MatrixIfLin1ELi1ELi0ELi3ELi1EEEEEKNS_5BlockINSE_INS9_IfLi3ELi3ELi0ELi3ELi3EEELi3ELi1ELb1EEELin1ELi1ELb0EEEEENS_3MapINS9_IfLi1ELin1ELi1ELi1ELi3EEELi0ENS_6StrideILi0ELi0EEEEELi1EEEEC2Ev, symObjAddr: 0x17DE0, symBinAddr: 0x10001C0CC, symSize: 0x14 }
  - { offsetInCU: 0x16958E, offset: 0x16958E, size: 0x8, addend: 0x0, symName: __ZNK5Eigen7ProductINS_13CwiseBinaryOpINS_8internal17scalar_product_opIffEEKNS_14CwiseNullaryOpINS2_18scalar_constant_opIfEEKNS_6MatrixIfLin1ELi1ELi0ELi3ELi1EEEEEKNS_5BlockINSD_INS8_IfLi3ELi3ELi0ELi3ELi3EEELi3ELi1ELb1EEELin1ELi1ELb0EEEEENS_3MapINS8_IfLi1ELin1ELi1ELi1ELi3EEELi0ENS_6StrideILi0ELi0EEEEELi1EE3lhsEv, symObjAddr: 0x17DF4, symBinAddr: 0x10001C0E0, symSize: 0x14 }
  - { offsetInCU: 0x1695B4, offset: 0x1695B4, size: 0x8, addend: 0x0, symName: __ZN5Eigen6MatrixIfLin1ELi1ELi0ELi3ELi1EEC1INS_13CwiseBinaryOpINS_8internal17scalar_product_opIffEEKNS_14CwiseNullaryOpINS4_18scalar_constant_opIfEEKS1_EEKNS_5BlockINSD_INS0_IfLi3ELi3ELi0ELi3ELi3EEELi3ELi1ELb1EEELin1ELi1ELb0EEEEEEERKT_, symObjAddr: 0x17E08, symBinAddr: 0x10001C0F4, symSize: 0x34 }
  - { offsetInCU: 0x1695F6, offset: 0x1695F6, size: 0x8, addend: 0x0, symName: __ZNK5Eigen7ProductINS_13CwiseBinaryOpINS_8internal17scalar_product_opIffEEKNS_14CwiseNullaryOpINS2_18scalar_constant_opIfEEKNS_6MatrixIfLin1ELi1ELi0ELi3ELi1EEEEEKNS_5BlockINSD_INS8_IfLi3ELi3ELi0ELi3ELi3EEELi3ELi1ELb1EEELin1ELi1ELb0EEEEENS_3MapINS8_IfLi1ELin1ELi1ELi1ELi3EEELi0ENS_6StrideILi0ELi0EEEEELi1EE3rhsEv, symObjAddr: 0x17E3C, symBinAddr: 0x10001C128, symSize: 0x18 }
  - { offsetInCU: 0x16961C, offset: 0x16961C, size: 0x8, addend: 0x0, symName: __ZN5Eigen8internal9evaluatorINS_6MatrixIfLin1ELi1ELi0ELi3ELi1EEEEC1ERKS3_, symObjAddr: 0x17E54, symBinAddr: 0x10001C140, symSize: 0x34 }
  - { offsetInCU: 0x169655, offset: 0x169655, size: 0x8, addend: 0x0, symName: __ZN5Eigen8internal9evaluatorINS_6MatrixIfLin1ELi1ELi0ELi3ELi1EEEED1Ev, symObjAddr: 0x17E88, symBinAddr: 0x10001C174, symSize: 0x2C }
  - { offsetInCU: 0x169682, offset: 0x169682, size: 0x8, addend: 0x0, symName: __ZN5Eigen8internal14evaluator_baseINS_7ProductINS_13CwiseBinaryOpINS0_17scalar_product_opIffEEKNS_14CwiseNullaryOpINS0_18scalar_constant_opIfEEKNS_6MatrixIfLin1ELi1ELi0ELi3ELi1EEEEEKNS_5BlockINSE_INS9_IfLi3ELi3ELi0ELi3ELi3EEELi3ELi1ELb1EEELin1ELi1ELb0EEEEENS_3MapINS9_IfLi1ELin1ELi1ELi1ELi3EEELi0ENS_6StrideILi0ELi0EEEEELi1EEEED2Ev, symObjAddr: 0x17EB4, symBinAddr: 0x10001C1A0, symSize: 0x14 }
  - { offsetInCU: 0x1696AC, offset: 0x1696AC, size: 0x8, addend: 0x0, symName: __ZN5Eigen6MatrixIfLin1ELi1ELi0ELi3ELi1EEC2INS_13CwiseBinaryOpINS_8internal17scalar_product_opIffEEKNS_14CwiseNullaryOpINS4_18scalar_constant_opIfEEKS1_EEKNS_5BlockINSD_INS0_IfLi3ELi3ELi0ELi3ELi3EEELi3ELi1ELb1EEELin1ELi1ELb0EEEEEEERKT_, symObjAddr: 0x17EC8, symBinAddr: 0x10001C1B4, symSize: 0x40 }
  - { offsetInCU: 0x1696EE, offset: 0x1696EE, size: 0x8, addend: 0x0, symName: __ZN5Eigen15PlainObjectBaseINS_6MatrixIfLin1ELi1ELi0ELi3ELi1EEEEC2Ev, symObjAddr: 0x17F08, symBinAddr: 0x10001C1F4, symSize: 0x34 }
  - { offsetInCU: 0x169718, offset: 0x169718, size: 0x8, addend: 0x0, symName: __ZN5Eigen15PlainObjectBaseINS_6MatrixIfLin1ELi1ELi0ELi3ELi1EEEE22_check_template_paramsEv, symObjAddr: 0x17F3C, symBinAddr: 0x10001C228, symSize: 0x4 }
  - { offsetInCU: 0x16972C, offset: 0x16972C, size: 0x8, addend: 0x0, symName: __ZN5Eigen15PlainObjectBaseINS_6MatrixIfLin1ELi1ELi0ELi3ELi1EEEE6_init1INS_13CwiseBinaryOpINS_8internal17scalar_product_opIffEEKNS_14CwiseNullaryOpINS6_18scalar_constant_opIfEEKS2_EEKNS_5BlockINSF_INS1_IfLi3ELi3ELi0ELi3ELi3EEELi3ELi1ELb1EEELin1ELi1ELb0EEEEESK_EEvRKNS_9DenseBaseIT0_EE, symObjAddr: 0x17F40, symBinAddr: 0x10001C22C, symSize: 0x2C }
  - { offsetInCU: 0x169773, offset: 0x169773, size: 0x8, addend: 0x0, symName: __ZN5Eigen10MatrixBaseINS_6MatrixIfLin1ELi1ELi0ELi3ELi1EEEEC2Ev, symObjAddr: 0x17F6C, symBinAddr: 0x10001C258, symSize: 0x2C }
  - { offsetInCU: 0x16979D, offset: 0x16979D, size: 0x8, addend: 0x0, symName: __ZN5Eigen12DenseStorageIfLi3ELin1ELi1ELi0EEC1Ev, symObjAddr: 0x17F98, symBinAddr: 0x10001C284, symSize: 0x2C }
  - { offsetInCU: 0x1697C7, offset: 0x1697C7, size: 0x8, addend: 0x0, symName: __ZN5Eigen9DenseBaseINS_6MatrixIfLin1ELi1ELi0ELi3ELi1EEEEC2Ev, symObjAddr: 0x17FC4, symBinAddr: 0x10001C2B0, symSize: 0x14 }
  - { offsetInCU: 0x1697F1, offset: 0x1697F1, size: 0x8, addend: 0x0, symName: __ZN5Eigen12DenseStorageIfLi3ELin1ELi1ELi0EEC2Ev, symObjAddr: 0x17FD8, symBinAddr: 0x10001C2C4, symSize: 0x30 }
  - { offsetInCU: 0x16981B, offset: 0x16981B, size: 0x8, addend: 0x0, symName: __ZN5Eigen15PlainObjectBaseINS_6MatrixIfLin1ELi1ELi0ELi3ELi1EEEE12_set_noaliasINS_13CwiseBinaryOpINS_8internal17scalar_product_opIffEEKNS_14CwiseNullaryOpINS6_18scalar_constant_opIfEEKS2_EEKNS_5BlockINSF_INS1_IfLi3ELi3ELi0ELi3ELi3EEELi3ELi1ELb1EEELin1ELi1ELb0EEEEEEERS2_RKNS_9DenseBaseIT_EE, symObjAddr: 0x18008, symBinAddr: 0x10001C2F4, symSize: 0x60 }
  - { offsetInCU: 0x169859, offset: 0x169859, size: 0x8, addend: 0x0, symName: __ZN5Eigen9EigenBaseINS_6MatrixIfLin1ELi1ELi0ELi3ELi1EEEE7derivedEv, symObjAddr: 0x180A4, symBinAddr: 0x10001C390, symSize: 0x14 }
  - { offsetInCU: 0x16987F, offset: 0x16987F, size: 0x8, addend: 0x0, symName: __ZN5Eigen8internal10AssignmentINS_6MatrixIfLin1ELi1ELi0ELi3ELi1EEENS_13CwiseBinaryOpINS0_17scalar_product_opIffEEKNS_14CwiseNullaryOpINS0_18scalar_constant_opIfEEKS3_EEKNS_5BlockINSD_INS2_IfLi3ELi3ELi0ELi3ELi3EEELi3ELi1ELb1EEELin1ELi1ELb0EEEEENS0_9assign_opIffEENS0_11Dense2DenseEvE3runERS3_RKSI_RKSK_, symObjAddr: 0x180B8, symBinAddr: 0x10001C3A4, symSize: 0x40 }
  - { offsetInCU: 0x1698C1, offset: 0x1698C1, size: 0x8, addend: 0x0, symName: __ZN5Eigen8internal9evaluatorINS_13CwiseBinaryOpINS0_17scalar_product_opIffEEKNS_14CwiseNullaryOpINS0_18scalar_constant_opIfEEKNS_6MatrixIfLin1ELi1ELi0ELi3ELi1EEEEEKNS_5BlockINSD_INS8_IfLi3ELi3ELi0ELi3ELi3EEELi3ELi1ELb1EEELin1ELi1ELb0EEEEEEC1ERKSI_, symObjAddr: 0x181EC, symBinAddr: 0x10001C4D8, symSize: 0x34 }
  - { offsetInCU: 0x1698FA, offset: 0x1698FA, size: 0x8, addend: 0x0, symName: __ZNK5Eigen9EigenBaseINS_6MatrixIfLin1ELi1ELi0ELi3ELi1EEEE18const_cast_derivedEv, symObjAddr: 0x18318, symBinAddr: 0x10001C604, symSize: 0x14 }
  - { offsetInCU: 0x169920, offset: 0x169920, size: 0x8, addend: 0x0, symName: __ZN5Eigen8internal31generic_dense_assignment_kernelINS0_9evaluatorINS_6MatrixIfLin1ELi1ELi0ELi3ELi1EEEEENS2_INS_13CwiseBinaryOpINS0_17scalar_product_opIffEEKNS_14CwiseNullaryOpINS0_18scalar_constant_opIfEEKS4_EEKNS_5BlockINSF_INS3_IfLi3ELi3ELi0ELi3ELi3EEELi3ELi1ELb1EEELin1ELi1ELb0EEEEEEENS0_9assign_opIffEELi0EEC1ERS5_RKSL_RKSN_RS4_, symObjAddr: 0x1832C, symBinAddr: 0x10001C618, symSize: 0x4C }
  - { offsetInCU: 0x169986, offset: 0x169986, size: 0x8, addend: 0x0, symName: __ZN5Eigen8internal9evaluatorINS_13CwiseBinaryOpINS0_17scalar_product_opIffEEKNS_14CwiseNullaryOpINS0_18scalar_constant_opIfEEKNS_6MatrixIfLin1ELi1ELi0ELi3ELi1EEEEEKNS_5BlockINSD_INS8_IfLi3ELi3ELi0ELi3ELi3EEELi3ELi1ELb1EEELin1ELi1ELb0EEEEEED1Ev, symObjAddr: 0x18438, symBinAddr: 0x10001C724, symSize: 0x2C }
  - { offsetInCU: 0x1699B3, offset: 0x1699B3, size: 0x8, addend: 0x0, symName: __ZN5Eigen8internal9evaluatorINS_13CwiseBinaryOpINS0_17scalar_product_opIffEEKNS_14CwiseNullaryOpINS0_18scalar_constant_opIfEEKNS_6MatrixIfLin1ELi1ELi0ELi3ELi1EEEEEKNS_5BlockINSD_INS8_IfLi3ELi3ELi0ELi3ELi3EEELi3ELi1ELb1EEELin1ELi1ELb0EEEEEEC2ERKSI_, symObjAddr: 0x18464, symBinAddr: 0x10001C750, symSize: 0x34 }
  - { offsetInCU: 0x1699EC, offset: 0x1699EC, size: 0x8, addend: 0x0, symName: __ZN5Eigen8internal16binary_evaluatorINS_13CwiseBinaryOpINS0_17scalar_product_opIffEEKNS_14CwiseNullaryOpINS0_18scalar_constant_opIfEEKNS_6MatrixIfLin1ELi1ELi0ELi3ELi1EEEEEKNS_5BlockINSD_INS8_IfLi3ELi3ELi0ELi3ELi3EEELi3ELi1ELb1EEELin1ELi1ELb0EEEEENS0_10IndexBasedESJ_ffEC2ERKSI_, symObjAddr: 0x18498, symBinAddr: 0x10001C784, symSize: 0x64 }
  - { offsetInCU: 0x169A25, offset: 0x169A25, size: 0x8, addend: 0x0, symName: __ZN5Eigen8internal14evaluator_baseINS_13CwiseBinaryOpINS0_17scalar_product_opIffEEKNS_14CwiseNullaryOpINS0_18scalar_constant_opIfEEKNS_6MatrixIfLin1ELi1ELi0ELi3ELi1EEEEEKNS_5BlockINSD_INS8_IfLi3ELi3ELi0ELi3ELi3EEELi3ELi1ELb1EEELin1ELi1ELb0EEEEEEC2Ev, symObjAddr: 0x184FC, symBinAddr: 0x10001C7E8, symSize: 0x14 }
  - { offsetInCU: 0x169A4F, offset: 0x169A4F, size: 0x8, addend: 0x0, symName: __ZN5Eigen8internal16binary_evaluatorINS_13CwiseBinaryOpINS0_17scalar_product_opIffEEKNS_14CwiseNullaryOpINS0_18scalar_constant_opIfEEKNS_6MatrixIfLin1ELi1ELi0ELi3ELi1EEEEEKNS_5BlockINSD_INS8_IfLi3ELi3ELi0ELi3ELi3EEELi3ELi1ELb1EEELin1ELi1ELb0EEEEENS0_10IndexBasedESJ_ffE4DataC1ERKSI_, symObjAddr: 0x18510, symBinAddr: 0x10001C7FC, symSize: 0x34 }
  - { offsetInCU: 0x169A88, offset: 0x169A88, size: 0x8, addend: 0x0, symName: __ZN5Eigen8internal14evaluator_baseINS_13CwiseBinaryOpINS0_17scalar_product_opIffEEKNS_14CwiseNullaryOpINS0_18scalar_constant_opIfEEKNS_6MatrixIfLin1ELi1ELi0ELi3ELi1EEEEEKNS_5BlockINSD_INS8_IfLi3ELi3ELi0ELi3ELi3EEELi3ELi1ELb1EEELin1ELi1ELb0EEEEEED2Ev, symObjAddr: 0x18544, symBinAddr: 0x10001C830, symSize: 0x14 }
  - { offsetInCU: 0x169AB2, offset: 0x169AB2, size: 0x8, addend: 0x0, symName: __ZN5Eigen8internal16binary_evaluatorINS_13CwiseBinaryOpINS0_17scalar_product_opIffEEKNS_14CwiseNullaryOpINS0_18scalar_constant_opIfEEKNS_6MatrixIfLin1ELi1ELi0ELi3ELi1EEEEEKNS_5BlockINSD_INS8_IfLi3ELi3ELi0ELi3ELi3EEELi3ELi1ELb1EEELin1ELi1ELb0EEEEENS0_10IndexBasedESJ_ffE4DataC2ERKSI_, symObjAddr: 0x18558, symBinAddr: 0x10001C844, symSize: 0xA8 }
  - { offsetInCU: 0x169AEB, offset: 0x169AEB, size: 0x8, addend: 0x0, symName: __ZNK5Eigen13CwiseBinaryOpINS_8internal17scalar_product_opIffEEKNS_14CwiseNullaryOpINS1_18scalar_constant_opIfEEKNS_6MatrixIfLin1ELi1ELi0ELi3ELi1EEEEEKNS_5BlockINSC_INS7_IfLi3ELi3ELi0ELi3ELi3EEELi3ELi1ELb1EEELin1ELi1ELb0EEEE7functorEv, symObjAddr: 0x18600, symBinAddr: 0x10001C8EC, symSize: 0x18 }
  - { offsetInCU: 0x169B11, offset: 0x169B11, size: 0x8, addend: 0x0, symName: __ZNK5Eigen13CwiseBinaryOpINS_8internal17scalar_product_opIffEEKNS_14CwiseNullaryOpINS1_18scalar_constant_opIfEEKNS_6MatrixIfLin1ELi1ELi0ELi3ELi1EEEEEKNS_5BlockINSC_INS7_IfLi3ELi3ELi0ELi3ELi3EEELi3ELi1ELb1EEELin1ELi1ELb0EEEE3lhsEv, symObjAddr: 0x18618, symBinAddr: 0x10001C904, symSize: 0x18 }
  - { offsetInCU: 0x169B37, offset: 0x169B37, size: 0x8, addend: 0x0, symName: __ZNK5Eigen13CwiseBinaryOpINS_8internal17scalar_product_opIffEEKNS_14CwiseNullaryOpINS1_18scalar_constant_opIfEEKNS_6MatrixIfLin1ELi1ELi0ELi3ELi1EEEEEKNS_5BlockINSC_INS7_IfLi3ELi3ELi0ELi3ELi3EEELi3ELi1ELb1EEELin1ELi1ELb0EEEE3rhsEv, symObjAddr: 0x18630, symBinAddr: 0x10001C91C, symSize: 0x18 }
  - { offsetInCU: 0x169B5D, offset: 0x169B5D, size: 0x8, addend: 0x0, symName: __ZNK5Eigen15PlainObjectBaseINS_6MatrixIfLin1ELi1ELi0ELi3ELi1EEEE4rowsEv, symObjAddr: 0x18648, symBinAddr: 0x10001C934, symSize: 0x24 }
  - { offsetInCU: 0x169B83, offset: 0x169B83, size: 0x8, addend: 0x0, symName: __ZNK5Eigen15PlainObjectBaseINS_6MatrixIfLin1ELi1ELi0ELi3ELi1EEEE4colsEv, symObjAddr: 0x1866C, symBinAddr: 0x10001C958, symSize: 0x24 }
  - { offsetInCU: 0x169BA9, offset: 0x169BA9, size: 0x8, addend: 0x0, symName: __ZN5Eigen15PlainObjectBaseINS_6MatrixIfLin1ELi1ELi0ELi3ELi1EEEE6resizeEll, symObjAddr: 0x18690, symBinAddr: 0x10001C97C, symSize: 0x104 }
  - { offsetInCU: 0x169BED, offset: 0x169BED, size: 0x8, addend: 0x0, symName: __ZNK5Eigen12DenseStorageIfLi3ELin1ELi1ELi0EE4rowsEv, symObjAddr: 0x18794, symBinAddr: 0x10001CA80, symSize: 0x18 }
  - { offsetInCU: 0x169C13, offset: 0x169C13, size: 0x8, addend: 0x0, symName: __ZNK5Eigen12DenseStorageIfLi3ELin1ELi1ELi0EE4colsEv, symObjAddr: 0x187AC, symBinAddr: 0x10001CA98, symSize: 0x14 }
  - { offsetInCU: 0x169C39, offset: 0x169C39, size: 0x8, addend: 0x0, symName: __ZN5Eigen12DenseStorageIfLi3ELin1ELi1ELi0EE6resizeElll, symObjAddr: 0x187C0, symBinAddr: 0x10001CAAC, symSize: 0x28 }
  - { offsetInCU: 0x169C84, offset: 0x169C84, size: 0x8, addend: 0x0, symName: __ZN5Eigen8internal31generic_dense_assignment_kernelINS0_9evaluatorINS_6MatrixIfLin1ELi1ELi0ELi3ELi1EEEEENS2_INS_13CwiseBinaryOpINS0_17scalar_product_opIffEEKNS_14CwiseNullaryOpINS0_18scalar_constant_opIfEEKS4_EEKNS_5BlockINSF_INS3_IfLi3ELi3ELi0ELi3ELi3EEELi3ELi1ELb1EEELin1ELi1ELb0EEEEEEENS0_9assign_opIffEELi0EEC2ERS5_RKSL_RKSN_RS4_, symObjAddr: 0x187E8, symBinAddr: 0x10001CAD4, symSize: 0x44 }
  - { offsetInCU: 0x169CEA, offset: 0x169CEA, size: 0x8, addend: 0x0, symName: __ZNK5Eigen8internal31generic_dense_assignment_kernelINS0_9evaluatorINS_6MatrixIfLin1ELi1ELi0ELi3ELi1EEEEENS2_INS_13CwiseBinaryOpINS0_17scalar_product_opIffEEKNS_14CwiseNullaryOpINS0_18scalar_constant_opIfEEKS4_EEKNS_5BlockINSF_INS3_IfLi3ELi3ELi0ELi3ELi3EEELi3ELi1ELb1EEELin1ELi1ELb0EEEEEEENS0_9assign_opIffEELi0EE4sizeEv, symObjAddr: 0x1882C, symBinAddr: 0x10001CB18, symSize: 0x28 }
  - { offsetInCU: 0x169D10, offset: 0x169D10, size: 0x8, addend: 0x0, symName: __ZNK5Eigen8internal31generic_dense_assignment_kernelINS0_9evaluatorINS_6MatrixIfLin1ELi1ELi0ELi3ELi1EEEEENS2_INS_13CwiseBinaryOpINS0_17scalar_product_opIffEEKNS_14CwiseNullaryOpINS0_18scalar_constant_opIfEEKS4_EEKNS_5BlockINSF_INS3_IfLi3ELi3ELi0ELi3ELi3EEELi3ELi1ELb1EEELin1ELi1ELb0EEEEEEENS0_9assign_opIffEELi0EE10dstDataPtrEv, symObjAddr: 0x18854, symBinAddr: 0x10001CB40, symSize: 0x28 }
  - { offsetInCU: 0x169D36, offset: 0x169D36, size: 0x8, addend: 0x0, symName: __ZN5Eigen8internal31unaligned_dense_assignment_loopILb0EE3runINS0_31generic_dense_assignment_kernelINS0_9evaluatorINS_6MatrixIfLin1ELi1ELi0ELi3ELi1EEEEENS5_INS_13CwiseBinaryOpINS0_17scalar_product_opIffEEKNS_14CwiseNullaryOpINS0_18scalar_constant_opIfEEKS7_EEKNS_5BlockINSI_INS6_IfLi3ELi3ELi0ELi3ELi3EEELi3ELi1ELb1EEELin1ELi1ELb0EEEEEEENS0_9assign_opIffEELi0EEEEEvRT_ll, symObjAddr: 0x1887C, symBinAddr: 0x10001CB68, symSize: 0x68 }
  - { offsetInCU: 0x169D9E, offset: 0x169D9E, size: 0x8, addend: 0x0, symName: __ZN5Eigen8internal31generic_dense_assignment_kernelINS0_9evaluatorINS_6MatrixIfLin1ELi1ELi0ELi3ELi1EEEEENS2_INS_13CwiseBinaryOpINS0_17scalar_product_opIffEEKNS_14CwiseNullaryOpINS0_18scalar_constant_opIfEEKS4_EEKNS_5BlockINSF_INS3_IfLi3ELi3ELi0ELi3ELi3EEELi3ELi1ELb1EEELin1ELi1ELb0EEEEEEENS0_9assign_opIffEELi0EE12assignPacketILi16ELi0E19__simd128_float32_tEEvl, symObjAddr: 0x188E4, symBinAddr: 0x10001CBD0, symSize: 0x64 }
  - { offsetInCU: 0x169DF0, offset: 0x169DF0, size: 0x8, addend: 0x0, symName: __ZNK5Eigen9EigenBaseINS_6MatrixIfLin1ELi1ELi0ELi3ELi1EEEE4sizeEv, symObjAddr: 0x18948, symBinAddr: 0x10001CC34, symSize: 0x44 }
  - { offsetInCU: 0x169E16, offset: 0x169E16, size: 0x8, addend: 0x0, symName: __ZNK5Eigen9EigenBaseINS_6MatrixIfLin1ELi1ELi0ELi3ELi1EEEE4rowsEv, symObjAddr: 0x1898C, symBinAddr: 0x10001CC78, symSize: 0x38 }
  - { offsetInCU: 0x169E3C, offset: 0x169E3C, size: 0x8, addend: 0x0, symName: __ZNK5Eigen9EigenBaseINS_6MatrixIfLin1ELi1ELi0ELi3ELi1EEEE4colsEv, symObjAddr: 0x189C4, symBinAddr: 0x10001CCB0, symSize: 0x28 }
  - { offsetInCU: 0x169E62, offset: 0x169E62, size: 0x8, addend: 0x0, symName: __ZNK5Eigen9EigenBaseINS_6MatrixIfLin1ELi1ELi0ELi3ELi1EEEE7derivedEv, symObjAddr: 0x189EC, symBinAddr: 0x10001CCD8, symSize: 0x14 }
  - { offsetInCU: 0x169E88, offset: 0x169E88, size: 0x8, addend: 0x0, symName: __ZN5Eigen15PlainObjectBaseINS_6MatrixIfLin1ELi1ELi0ELi3ELi1EEEE4dataEv, symObjAddr: 0x18A00, symBinAddr: 0x10001CCEC, symSize: 0x24 }
  - { offsetInCU: 0x169EAE, offset: 0x169EAE, size: 0x8, addend: 0x0, symName: __ZN5Eigen12DenseStorageIfLi3ELin1ELi1ELi0EE4dataEv, symObjAddr: 0x18A24, symBinAddr: 0x10001CD10, symSize: 0x14 }
  - { offsetInCU: 0x169ED4, offset: 0x169ED4, size: 0x8, addend: 0x0, symName: __ZN5Eigen8internal31generic_dense_assignment_kernelINS0_9evaluatorINS_6MatrixIfLin1ELi1ELi0ELi3ELi1EEEEENS2_INS_13CwiseBinaryOpINS0_17scalar_product_opIffEEKNS_14CwiseNullaryOpINS0_18scalar_constant_opIfEEKS4_EEKNS_5BlockINSF_INS3_IfLi3ELi3ELi0ELi3ELi3EEELi3ELi1ELb1EEELin1ELi1ELb0EEEEEEENS0_9assign_opIffEELi0EE11assignCoeffEl, symObjAddr: 0x18A38, symBinAddr: 0x10001CD24, symSize: 0x64 }
  - { offsetInCU: 0x169F09, offset: 0x169F09, size: 0x8, addend: 0x0, symName: __ZN5Eigen8internal9evaluatorINS_15PlainObjectBaseINS_6MatrixIfLin1ELi1ELi0ELi3ELi1EEEEEE8coeffRefEl, symObjAddr: 0x18A9C, symBinAddr: 0x10001CD88, symSize: 0x24 }
  - { offsetInCU: 0x169F3D, offset: 0x169F3D, size: 0x8, addend: 0x0, symName: __ZNK5Eigen8internal16binary_evaluatorINS_13CwiseBinaryOpINS0_17scalar_product_opIffEEKNS_14CwiseNullaryOpINS0_18scalar_constant_opIfEEKNS_6MatrixIfLin1ELi1ELi0ELi3ELi1EEEEEKNS_5BlockINSD_INS8_IfLi3ELi3ELi0ELi3ELi3EEELi3ELi1ELb1EEELin1ELi1ELb0EEEEENS0_10IndexBasedESJ_ffE5coeffEl, symObjAddr: 0x18AC0, symBinAddr: 0x10001CDAC, symSize: 0x6C }
  - { offsetInCU: 0x169F72, offset: 0x169F72, size: 0x8, addend: 0x0, symName: __ZNK5Eigen8internal16binary_evaluatorINS_13CwiseBinaryOpINS0_17scalar_product_opIffEEKNS_14CwiseNullaryOpINS0_18scalar_constant_opIfEEKNS_6MatrixIfLin1ELi1ELi0ELi3ELi1EEEEEKNS_5BlockINSD_INS8_IfLi3ELi3ELi0ELi3ELi3EEELi3ELi1ELb1EEELin1ELi1ELb0EEEEENS0_10IndexBasedESJ_ffE4Data4funcEv, symObjAddr: 0x18B2C, symBinAddr: 0x10001CE18, symSize: 0x14 }
  - { offsetInCU: 0x169F98, offset: 0x169F98, size: 0x8, addend: 0x0, symName: __ZNK5Eigen8internal16binary_evaluatorINS_13CwiseBinaryOpINS0_17scalar_product_opIffEEKNS_14CwiseNullaryOpINS0_18scalar_constant_opIfEEKNS_6MatrixIfLin1ELi1ELi0ELi3ELi1EEEEEKNS_5BlockINSD_INS8_IfLi3ELi3ELi0ELi3ELi3EEELi3ELi1ELb1EEELin1ELi1ELb0EEEEENS0_10IndexBasedESJ_ffE6packetILi0E19__simd128_float32_tEET0_l, symObjAddr: 0x18B40, symBinAddr: 0x10001CE2C, symSize: 0x70 }
  - { offsetInCU: 0x169FE0, offset: 0x169FE0, size: 0x8, addend: 0x0, symName: __ZNK5Eigen8internal17mapbase_evaluatorINS_5BlockINS2_INS_6MatrixIfLi3ELi3ELi0ELi3ELi3EEELi3ELi1ELb1EEELin1ELi1ELb0EEENS3_IfLin1ELi1ELi0ELi3ELi1EEEE6packetILi0E19__simd128_float32_tEET0_l, symObjAddr: 0x18BB0, symBinAddr: 0x10001CE9C, symSize: 0x54 }
  - { offsetInCU: 0x16A046, offset: 0x16A046, size: 0x8, addend: 0x0, symName: __ZN5Eigen8internal9evaluatorINS_13CwiseBinaryOpINS0_17scalar_product_opIffEEKNS_14CwiseNullaryOpINS0_18scalar_constant_opIfEEKNS_6MatrixIfLin1ELi1ELi0ELi3ELi1EEEEEKNS_5BlockINSD_INS8_IfLi3ELi3ELi0ELi3ELi3EEELi3ELi1ELb1EEELin1ELi1ELb0EEEEEED2Ev, symObjAddr: 0x18C04, symBinAddr: 0x10001CEF0, symSize: 0x2C }
  - { offsetInCU: 0x16A073, offset: 0x16A073, size: 0x8, addend: 0x0, symName: __ZN5Eigen8internal16binary_evaluatorINS_13CwiseBinaryOpINS0_17scalar_product_opIffEEKNS_14CwiseNullaryOpINS0_18scalar_constant_opIfEEKNS_6MatrixIfLin1ELi1ELi0ELi3ELi1EEEEEKNS_5BlockINSD_INS8_IfLi3ELi3ELi0ELi3ELi3EEELi3ELi1ELb1EEELin1ELi1ELb0EEEEENS0_10IndexBasedESJ_ffED2Ev, symObjAddr: 0x18C30, symBinAddr: 0x10001CF1C, symSize: 0x34 }
  - { offsetInCU: 0x16A09F, offset: 0x16A09F, size: 0x8, addend: 0x0, symName: __ZN5Eigen8internal16binary_evaluatorINS_13CwiseBinaryOpINS0_17scalar_product_opIffEEKNS_14CwiseNullaryOpINS0_18scalar_constant_opIfEEKNS_6MatrixIfLin1ELi1ELi0ELi3ELi1EEEEEKNS_5BlockINSD_INS8_IfLi3ELi3ELi0ELi3ELi3EEELi3ELi1ELb1EEELin1ELi1ELb0EEEEENS0_10IndexBasedESJ_ffE4DataD1Ev, symObjAddr: 0x18C64, symBinAddr: 0x10001CF50, symSize: 0x2C }
  - { offsetInCU: 0x16A0CC, offset: 0x16A0CC, size: 0x8, addend: 0x0, symName: __ZN5Eigen8internal16binary_evaluatorINS_13CwiseBinaryOpINS0_17scalar_product_opIffEEKNS_14CwiseNullaryOpINS0_18scalar_constant_opIfEEKNS_6MatrixIfLin1ELi1ELi0ELi3ELi1EEEEEKNS_5BlockINSD_INS8_IfLi3ELi3ELi0ELi3ELi3EEELi3ELi1ELb1EEELin1ELi1ELb0EEEEENS0_10IndexBasedESJ_ffE4DataD2Ev, symObjAddr: 0x18C90, symBinAddr: 0x10001CF7C, symSize: 0x3C }
  - { offsetInCU: 0x16A0F9, offset: 0x16A0F9, size: 0x8, addend: 0x0, symName: __ZN5Eigen8internal9evaluatorINS_6MatrixIfLin1ELi1ELi0ELi3ELi1EEEEC2ERKS3_, symObjAddr: 0x18CCC, symBinAddr: 0x10001CFB8, symSize: 0x34 }
  - { offsetInCU: 0x16A132, offset: 0x16A132, size: 0x8, addend: 0x0, symName: __ZN5Eigen8internal9evaluatorINS_15PlainObjectBaseINS_6MatrixIfLin1ELi1ELi0ELi3ELi1EEEEEEC2ERKS5_, symObjAddr: 0x18D00, symBinAddr: 0x10001CFEC, symSize: 0x78 }
  - { offsetInCU: 0x16A16A, offset: 0x16A16A, size: 0x8, addend: 0x0, symName: __ZN5Eigen8internal14evaluator_baseINS_6MatrixIfLin1ELi1ELi0ELi3ELi1EEEEC2Ev, symObjAddr: 0x18D78, symBinAddr: 0x10001D064, symSize: 0x14 }
  - { offsetInCU: 0x16A194, offset: 0x16A194, size: 0x8, addend: 0x0, symName: __ZNK5Eigen15PlainObjectBaseINS_6MatrixIfLin1ELi1ELi0ELi3ELi1EEEE4dataEv, symObjAddr: 0x18D8C, symBinAddr: 0x10001D078, symSize: 0x24 }
  - { offsetInCU: 0x16A1BA, offset: 0x16A1BA, size: 0x8, addend: 0x0, symName: __ZN5Eigen8internal14evaluator_baseINS_6MatrixIfLin1ELi1ELi0ELi3ELi1EEEED2Ev, symObjAddr: 0x18DB0, symBinAddr: 0x10001D09C, symSize: 0x14 }
  - { offsetInCU: 0x16A1E4, offset: 0x16A1E4, size: 0x8, addend: 0x0, symName: __ZNK5Eigen12DenseStorageIfLi3ELin1ELi1ELi0EE4dataEv, symObjAddr: 0x18DC4, symBinAddr: 0x10001D0B0, symSize: 0x14 }
  - { offsetInCU: 0x16A20A, offset: 0x16A20A, size: 0x8, addend: 0x0, symName: __ZN5Eigen8internal9evaluatorINS_6MatrixIfLin1ELi1ELi0ELi3ELi1EEEED2Ev, symObjAddr: 0x18DD8, symBinAddr: 0x10001D0C4, symSize: 0x2C }
  - { offsetInCU: 0x16A237, offset: 0x16A237, size: 0x8, addend: 0x0, symName: __ZN5Eigen8internal9evaluatorINS_15PlainObjectBaseINS_6MatrixIfLin1ELi1ELi0ELi3ELi1EEEEEED2Ev, symObjAddr: 0x18E04, symBinAddr: 0x10001D0F0, symSize: 0x2C }
  - { offsetInCU: 0x16A263, offset: 0x16A263, size: 0x8, addend: 0x0, symName: __ZNK5Eigen7ProductINS_13CwiseBinaryOpINS_8internal17scalar_product_opIffEEKNS_14CwiseNullaryOpINS2_18scalar_constant_opIfEEKNS_6MatrixIfLin1ELi1ELi0ELi3ELi1EEEEEKNS_5BlockINSD_INS8_IfLi3ELi3ELi0ELi3ELi3EEELi3ELi1ELb1EEELin1ELi1ELb0EEEEENS_3MapINS8_IfLi1ELin1ELi1ELi1ELi3EEELi0ENS_6StrideILi0ELi0EEEEELi1EE4rowsEv, symObjAddr: 0x18E30, symBinAddr: 0x10001D11C, symSize: 0x24 }
  - { offsetInCU: 0x16A289, offset: 0x16A289, size: 0x8, addend: 0x0, symName: __ZNK5Eigen7ProductINS_13CwiseBinaryOpINS_8internal17scalar_product_opIffEEKNS_14CwiseNullaryOpINS2_18scalar_constant_opIfEEKNS_6MatrixIfLin1ELi1ELi0ELi3ELi1EEEEEKNS_5BlockINSD_INS8_IfLi3ELi3ELi0ELi3ELi3EEELi3ELi1ELb1EEELin1ELi1ELb0EEEEENS_3MapINS8_IfLi1ELin1ELi1ELi1ELi3EEELi0ENS_6StrideILi0ELi0EEEEELi1EE4colsEv, symObjAddr: 0x18E54, symBinAddr: 0x10001D140, symSize: 0x28 }
  - { offsetInCU: 0x16A2AF, offset: 0x16A2AF, size: 0x8, addend: 0x0, symName: __ZN5Eigen8internal31generic_dense_assignment_kernelINS0_9evaluatorINS_5BlockINS3_INS_6MatrixIfLi3ELi3ELi0ELi3ELi3EEELin1ELin1ELb0EEELin1ELin1ELb0EEEEENS2_INS_7ProductINS_13CwiseBinaryOpINS0_17scalar_product_opIffEEKNS_14CwiseNullaryOpINS0_18scalar_constant_opIfEEKNS4_IfLin1ELi1ELi0ELi3ELi1EEEEEKNS3_INS3_IS5_Li3ELi1ELb1EEELin1ELi1ELb0EEEEENS_3MapINS4_IfLi1ELin1ELi1ELi1ELi3EEELi0ENS_6StrideILi0ELi0EEEEELi1EEEEENS0_13sub_assign_opIffEELi0EEC2ERS8_RKSU_RKSW_RS7_, symObjAddr: 0x18E7C, symBinAddr: 0x10001D168, symSize: 0x44 }
  - { offsetInCU: 0x16A315, offset: 0x16A315, size: 0x8, addend: 0x0, symName: __ZNK5Eigen8internal31generic_dense_assignment_kernelINS0_9evaluatorINS_5BlockINS3_INS_6MatrixIfLi3ELi3ELi0ELi3ELi3EEELin1ELin1ELb0EEELin1ELin1ELb0EEEEENS2_INS_7ProductINS_13CwiseBinaryOpINS0_17scalar_product_opIffEEKNS_14CwiseNullaryOpINS0_18scalar_constant_opIfEEKNS4_IfLin1ELi1ELi0ELi3ELi1EEEEEKNS3_INS3_IS5_Li3ELi1ELb1EEELin1ELi1ELb0EEEEENS_3MapINS4_IfLi1ELin1ELi1ELi1ELi3EEELi0ENS_6StrideILi0ELi0EEEEELi1EEEEENS0_13sub_assign_opIffEELi0EE9outerSizeEv, symObjAddr: 0x18EC0, symBinAddr: 0x10001D1AC, symSize: 0x38 }
  - { offsetInCU: 0x16A33B, offset: 0x16A33B, size: 0x8, addend: 0x0, symName: __ZNK5Eigen8internal31generic_dense_assignment_kernelINS0_9evaluatorINS_5BlockINS3_INS_6MatrixIfLi3ELi3ELi0ELi3ELi3EEELin1ELin1ELb0EEELin1ELin1ELb0EEEEENS2_INS_7ProductINS_13CwiseBinaryOpINS0_17scalar_product_opIffEEKNS_14CwiseNullaryOpINS0_18scalar_constant_opIfEEKNS4_IfLin1ELi1ELi0ELi3ELi1EEEEEKNS3_INS3_IS5_Li3ELi1ELb1EEELin1ELi1ELb0EEEEENS_3MapINS4_IfLi1ELin1ELi1ELi1ELi3EEELi0ENS_6StrideILi0ELi0EEEEELi1EEEEENS0_13sub_assign_opIffEELi0EE9innerSizeEv, symObjAddr: 0x18EF8, symBinAddr: 0x10001D1E4, symSize: 0x38 }
  - { offsetInCU: 0x16A361, offset: 0x16A361, size: 0x8, addend: 0x0, symName: __ZN5Eigen8internal31generic_dense_assignment_kernelINS0_9evaluatorINS_5BlockINS3_INS_6MatrixIfLi3ELi3ELi0ELi3ELi3EEELin1ELin1ELb0EEELin1ELin1ELb0EEEEENS2_INS_7ProductINS_13CwiseBinaryOpINS0_17scalar_product_opIffEEKNS_14CwiseNullaryOpINS0_18scalar_constant_opIfEEKNS4_IfLin1ELi1ELi0ELi3ELi1EEEEEKNS3_INS3_IS5_Li3ELi1ELb1EEELin1ELi1ELb0EEEEENS_3MapINS4_IfLi1ELin1ELi1ELi1ELi3EEELi0ENS_6StrideILi0ELi0EEEEELi1EEEEENS0_13sub_assign_opIffEELi0EE23assignCoeffByOuterInnerEll, symObjAddr: 0x18F30, symBinAddr: 0x10001D21C, symSize: 0x60 }
  - { offsetInCU: 0x16A3C3, offset: 0x16A3C3, size: 0x8, addend: 0x0, symName: __ZNK5Eigen9DenseBaseINS_5BlockINS1_INS_6MatrixIfLi3ELi3ELi0ELi3ELi3EEELin1ELin1ELb0EEELin1ELin1ELb0EEEE9outerSizeEv, symObjAddr: 0x18F90, symBinAddr: 0x10001D27C, symSize: 0x24 }
  - { offsetInCU: 0x16A3E9, offset: 0x16A3E9, size: 0x8, addend: 0x0, symName: __ZNK5Eigen9EigenBaseINS_5BlockINS1_INS_6MatrixIfLi3ELi3ELi0ELi3ELi3EEELin1ELin1ELb0EEELin1ELin1ELb0EEEE4colsEv, symObjAddr: 0x18FB4, symBinAddr: 0x10001D2A0, symSize: 0x28 }
  - { offsetInCU: 0x16A40F, offset: 0x16A40F, size: 0x8, addend: 0x0, symName: __ZNK5Eigen9DenseBaseINS_5BlockINS1_INS_6MatrixIfLi3ELi3ELi0ELi3ELi3EEELin1ELin1ELb0EEELin1ELin1ELb0EEEE9innerSizeEv, symObjAddr: 0x18FDC, symBinAddr: 0x10001D2C8, symSize: 0x24 }
  - { offsetInCU: 0x16A435, offset: 0x16A435, size: 0x8, addend: 0x0, symName: __ZNK5Eigen9EigenBaseINS_5BlockINS1_INS_6MatrixIfLi3ELi3ELi0ELi3ELi3EEELin1ELin1ELb0EEELin1ELin1ELb0EEEE4rowsEv, symObjAddr: 0x19000, symBinAddr: 0x10001D2EC, symSize: 0x28 }
  - { offsetInCU: 0x16A45B, offset: 0x16A45B, size: 0x8, addend: 0x0, symName: __ZN5Eigen8internal31generic_dense_assignment_kernelINS0_9evaluatorINS_5BlockINS3_INS_6MatrixIfLi3ELi3ELi0ELi3ELi3EEELin1ELin1ELb0EEELin1ELin1ELb0EEEEENS2_INS_7ProductINS_13CwiseBinaryOpINS0_17scalar_product_opIffEEKNS_14CwiseNullaryOpINS0_18scalar_constant_opIfEEKNS4_IfLin1ELi1ELi0ELi3ELi1EEEEEKNS3_INS3_IS5_Li3ELi1ELb1EEELin1ELi1ELb0EEEEENS_3MapINS4_IfLi1ELin1ELi1ELi1ELi3EEELi0ENS_6StrideILi0ELi0EEEEELi1EEEEENS0_13sub_assign_opIffEELi0EE20rowIndexByOuterInnerEll, symObjAddr: 0x19028, symBinAddr: 0x10001D314, symSize: 0x18 }
  - { offsetInCU: 0x16A48E, offset: 0x16A48E, size: 0x8, addend: 0x0, symName: __ZN5Eigen8internal31generic_dense_assignment_kernelINS0_9evaluatorINS_5BlockINS3_INS_6MatrixIfLi3ELi3ELi0ELi3ELi3EEELin1ELin1ELb0EEELin1ELin1ELb0EEEEENS2_INS_7ProductINS_13CwiseBinaryOpINS0_17scalar_product_opIffEEKNS_14CwiseNullaryOpINS0_18scalar_constant_opIfEEKNS4_IfLin1ELi1ELi0ELi3ELi1EEEEEKNS3_INS3_IS5_Li3ELi1ELb1EEELin1ELi1ELb0EEEEENS_3MapINS4_IfLi1ELin1ELi1ELi1ELi3EEELi0ENS_6StrideILi0ELi0EEEEELi1EEEEENS0_13sub_assign_opIffEELi0EE20colIndexByOuterInnerEll, symObjAddr: 0x19040, symBinAddr: 0x10001D32C, symSize: 0x18 }
  - { offsetInCU: 0x16A4C1, offset: 0x16A4C1, size: 0x8, addend: 0x0, symName: __ZN5Eigen8internal31generic_dense_assignment_kernelINS0_9evaluatorINS_5BlockINS3_INS_6MatrixIfLi3ELi3ELi0ELi3ELi3EEELin1ELin1ELb0EEELin1ELin1ELb0EEEEENS2_INS_7ProductINS_13CwiseBinaryOpINS0_17scalar_product_opIffEEKNS_14CwiseNullaryOpINS0_18scalar_constant_opIfEEKNS4_IfLin1ELi1ELi0ELi3ELi1EEEEEKNS3_INS3_IS5_Li3ELi1ELb1EEELin1ELi1ELb0EEEEENS_3MapINS4_IfLi1ELin1ELi1ELi1ELi3EEELi0ENS_6StrideILi0ELi0EEEEELi1EEEEENS0_13sub_assign_opIffEELi0EE11assignCoeffEll, symObjAddr: 0x19058, symBinAddr: 0x10001D344, symSize: 0x70 }
  - { offsetInCU: 0x16A505, offset: 0x16A505, size: 0x8, addend: 0x0, symName: __ZN5Eigen8internal17mapbase_evaluatorINS_5BlockINS2_INS_6MatrixIfLi3ELi3ELi0ELi3ELi3EEELin1ELin1ELb0EEELin1ELin1ELb0EEENS3_IfLin1ELin1ELi0ELi3ELi3EEEE8coeffRefEll, symObjAddr: 0x190C8, symBinAddr: 0x10001D3B4, symSize: 0x78 }
  - { offsetInCU: 0x16A549, offset: 0x16A549, size: 0x8, addend: 0x0, symName: __ZNK5Eigen8internal17product_evaluatorINS_7ProductINS_13CwiseBinaryOpINS0_17scalar_product_opIffEEKNS_14CwiseNullaryOpINS0_18scalar_constant_opIfEEKNS_6MatrixIfLin1ELi1ELi0ELi3ELi1EEEEEKNS_5BlockINSE_INS9_IfLi3ELi3ELi0ELi3ELi3EEELi3ELi1ELb1EEELin1ELi1ELb0EEEEENS_3MapINS9_IfLi1ELin1ELi1ELi1ELi3EEELi0ENS_6StrideILi0ELi0EEEEELi1EEELi4ENS_10DenseShapeESQ_ffE5coeffEll, symObjAddr: 0x19140, symBinAddr: 0x10001D42C, symSize: 0x88 }
  - { offsetInCU: 0x16A58D, offset: 0x16A58D, size: 0x8, addend: 0x0, symName: __ZNK5Eigen8internal17mapbase_evaluatorINS_5BlockINS2_INS_6MatrixIfLi3ELi3ELi0ELi3ELi3EEELin1ELin1ELb0EEELin1ELin1ELb0EEENS3_IfLin1ELin1ELi0ELi3ELi3EEEE9colStrideEv, symObjAddr: 0x191C8, symBinAddr: 0x10001D4B4, symSize: 0x20 }
  - { offsetInCU: 0x16A5B3, offset: 0x16A5B3, size: 0x8, addend: 0x0, symName: __ZNK5Eigen8internal17mapbase_evaluatorINS_5BlockINS2_INS_6MatrixIfLi3ELi3ELi0ELi3ELi3EEELin1ELin1ELb0EEELin1ELin1ELb0EEENS3_IfLin1ELin1ELi0ELi3ELi3EEEE9rowStrideEv, symObjAddr: 0x191E8, symBinAddr: 0x10001D4D4, symSize: 0x20 }
  - { offsetInCU: 0x16A5D9, offset: 0x16A5D9, size: 0x8, addend: 0x0, symName: __ZNK5Eigen9DenseBaseINS_6MatrixIfLin1ELi1ELi0ELi3ELi1EEEE3rowEl, symObjAddr: 0x19208, symBinAddr: 0x10001D4F4, symSize: 0x3C }
  - { offsetInCU: 0x16A60E, offset: 0x16A60E, size: 0x8, addend: 0x0, symName: __ZNK5Eigen9DenseBaseINS_5BlockIKNS_6MatrixIfLin1ELi1ELi0ELi3ELi1EEELi1ELi1ELb0EEEE9transposeEv, symObjAddr: 0x19244, symBinAddr: 0x10001D530, symSize: 0x34 }
  - { offsetInCU: 0x16A636, offset: 0x16A636, size: 0x8, addend: 0x0, symName: __ZNK5Eigen10MatrixBaseINS_9TransposeIKNS_5BlockIKNS_6MatrixIfLin1ELi1ELi0ELi3ELi1EEELi1ELi1ELb0EEEEEE12cwiseProductINS2_IKNS_3MapINS3_IfLi1ELin1ELi1ELi1ELi3EEELi0ENS_6StrideILi0ELi0EEEEELi1ELi1ELb0EEEEEKNS_13CwiseBinaryOpINS_8internal17scalar_product_opIfNSJ_6traitsIT_E6ScalarEEEKS8_KSM_EERKNS0_ISM_EE, symObjAddr: 0x19278, symBinAddr: 0x10001D564, symSize: 0x60 }
  - { offsetInCU: 0x16A673, offset: 0x16A673, size: 0x8, addend: 0x0, symName: __ZNK5Eigen9DenseBaseINS_3MapINS_6MatrixIfLi1ELin1ELi1ELi1ELi3EEELi0ENS_6StrideILi0ELi0EEEEEE3colEl, symObjAddr: 0x192D8, symBinAddr: 0x10001D5C4, symSize: 0x40 }
  - { offsetInCU: 0x16A6A8, offset: 0x16A6A8, size: 0x8, addend: 0x0, symName: __ZNK5Eigen9DenseBaseINS_13CwiseBinaryOpINS_8internal17scalar_product_opIffEEKNS_9TransposeIKNS_5BlockIKNS_6MatrixIfLin1ELi1ELi0ELi3ELi1EEELi1ELi1ELb0EEEEEKNS6_IKNS_3MapINS7_IfLi1ELin1ELi1ELi1ELi3EEELi0ENS_6StrideILi0ELi0EEEEELi1ELi1ELb0EEEEEE3sumEv, symObjAddr: 0x19318, symBinAddr: 0x10001D604, symSize: 0x40 }
  - { offsetInCU: 0x16A6D1, offset: 0x16A6D1, size: 0x8, addend: 0x0, symName: __ZN5Eigen5BlockIKNS_6MatrixIfLin1ELi1ELi0ELi3ELi1EEELi1ELi1ELb0EEC1ERS3_l, symObjAddr: 0x19358, symBinAddr: 0x10001D644, symSize: 0x3C }
  - { offsetInCU: 0x16A717, offset: 0x16A717, size: 0x8, addend: 0x0, symName: __ZN5Eigen5BlockIKNS_6MatrixIfLin1ELi1ELi0ELi3ELi1EEELi1ELi1ELb0EEC2ERS3_l, symObjAddr: 0x19394, symBinAddr: 0x10001D680, symSize: 0xCC }
  - { offsetInCU: 0x16A75D, offset: 0x16A75D, size: 0x8, addend: 0x0, symName: __ZN5Eigen9BlockImplIKNS_6MatrixIfLin1ELi1ELi0ELi3ELi1EEELi1ELi1ELb0ENS_5DenseEEC2ERS3_l, symObjAddr: 0x19460, symBinAddr: 0x10001D74C, symSize: 0x3C }
  - { offsetInCU: 0x16A7A3, offset: 0x16A7A3, size: 0x8, addend: 0x0, symName: __ZN5Eigen8internal15BlockImpl_denseIKNS_6MatrixIfLin1ELi1ELi0ELi3ELi1EEELi1ELi1ELb0ELb1EEC2ERS4_l, symObjAddr: 0x1949C, symBinAddr: 0x10001D788, symSize: 0xA0 }
  - { offsetInCU: 0x16A7EB, offset: 0x16A7EB, size: 0x8, addend: 0x0, symName: __ZNK5Eigen6MatrixIfLin1ELi1ELi0ELi3ELi1EE11innerStrideEv, symObjAddr: 0x1953C, symBinAddr: 0x10001D828, symSize: 0x14 }
  - { offsetInCU: 0x16A811, offset: 0x16A811, size: 0x8, addend: 0x0, symName: __ZN5Eigen7MapBaseINS_5BlockIKNS_6MatrixIfLin1ELi1ELi0ELi3ELi1EEELi1ELi1ELb0EEELi0EEC2EPKfll, symObjAddr: 0x19550, symBinAddr: 0x10001D83C, symSize: 0x13C }
  - { offsetInCU: 0x16A865, offset: 0x16A865, size: 0x8, addend: 0x0, symName: __ZN5Eigen8internal15BlockImpl_denseIKNS_6MatrixIfLin1ELi1ELi0ELi3ELi1EEELi1ELi1ELb0ELb1EE4initEv, symObjAddr: 0x1968C, symBinAddr: 0x10001D978, symSize: 0x34 }
  - { offsetInCU: 0x16A88B, offset: 0x16A88B, size: 0x8, addend: 0x0, symName: __ZN5Eigen10MatrixBaseINS_5BlockIKNS_6MatrixIfLin1ELi1ELi0ELi3ELi1EEELi1ELi1ELb0EEEEC2Ev, symObjAddr: 0x196C0, symBinAddr: 0x10001D9AC, symSize: 0x2C }
  - { offsetInCU: 0x16A8B5, offset: 0x16A8B5, size: 0x8, addend: 0x0, symName: __ZNK5Eigen7MapBaseINS_5BlockIKNS_6MatrixIfLin1ELi1ELi0ELi3ELi1EEELi1ELi1ELb0EEELi0EE11checkSanityIS5_EEvNS_8internal9enable_ifIXeqsr8internal6traitsIT_EE9AlignmentLi0EEPvE4typeE, symObjAddr: 0x196EC, symBinAddr: 0x10001D9D8, symSize: 0x14 }
  - { offsetInCU: 0x16A8EF, offset: 0x16A8EF, size: 0x8, addend: 0x0, symName: __ZN5Eigen9DenseBaseINS_5BlockIKNS_6MatrixIfLin1ELi1ELi0ELi3ELi1EEELi1ELi1ELb0EEEEC2Ev, symObjAddr: 0x19700, symBinAddr: 0x10001D9EC, symSize: 0x14 }
  - { offsetInCU: 0x16A919, offset: 0x16A919, size: 0x8, addend: 0x0, symName: __ZNK5Eigen6MatrixIfLin1ELi1ELi0ELi3ELi1EE11outerStrideEv, symObjAddr: 0x19714, symBinAddr: 0x10001DA00, symSize: 0x34 }
  - { offsetInCU: 0x16A93F, offset: 0x16A93F, size: 0x8, addend: 0x0, symName: __ZNK5Eigen9DenseBaseINS_6MatrixIfLin1ELi1ELi0ELi3ELi1EEEE9innerSizeEv, symObjAddr: 0x19748, symBinAddr: 0x10001DA34, symSize: 0x24 }
  - { offsetInCU: 0x16A965, offset: 0x16A965, size: 0x8, addend: 0x0, symName: __ZNK5Eigen9EigenBaseINS_5BlockIKNS_6MatrixIfLin1ELi1ELi0ELi3ELi1EEELi1ELi1ELb0EEEE7derivedEv, symObjAddr: 0x1976C, symBinAddr: 0x10001DA58, symSize: 0x14 }
  - { offsetInCU: 0x16A98B, offset: 0x16A98B, size: 0x8, addend: 0x0, symName: __ZN5Eigen9TransposeIKNS_5BlockIKNS_6MatrixIfLin1ELi1ELi0ELi3ELi1EEELi1ELi1ELb0EEEEC1ERS6_, symObjAddr: 0x19780, symBinAddr: 0x10001DA6C, symSize: 0x34 }
  - { offsetInCU: 0x16A9C3, offset: 0x16A9C3, size: 0x8, addend: 0x0, symName: __ZN5Eigen9TransposeIKNS_5BlockIKNS_6MatrixIfLin1ELi1ELi0ELi3ELi1EEELi1ELi1ELb0EEEEC2ERS6_, symObjAddr: 0x197B4, symBinAddr: 0x10001DAA0, symSize: 0x40 }
  - { offsetInCU: 0x16A9FB, offset: 0x16A9FB, size: 0x8, addend: 0x0, symName: __ZN5Eigen13TransposeImplIKNS_5BlockIKNS_6MatrixIfLin1ELi1ELi0ELi3ELi1EEELi1ELi1ELb0EEENS_5DenseEEC2Ev, symObjAddr: 0x197F4, symBinAddr: 0x10001DAE0, symSize: 0x2C }
  - { offsetInCU: 0x16AA25, offset: 0x16AA25, size: 0x8, addend: 0x0, symName: __ZN5Eigen10MatrixBaseINS_9TransposeIKNS_5BlockIKNS_6MatrixIfLin1ELi1ELi0ELi3ELi1EEELi1ELi1ELb0EEEEEEC2Ev, symObjAddr: 0x19820, symBinAddr: 0x10001DB0C, symSize: 0x2C }
  - { offsetInCU: 0x16AA4F, offset: 0x16AA4F, size: 0x8, addend: 0x0, symName: __ZN5Eigen9DenseBaseINS_9TransposeIKNS_5BlockIKNS_6MatrixIfLin1ELi1ELi0ELi3ELi1EEELi1ELi1ELb0EEEEEEC2Ev, symObjAddr: 0x1984C, symBinAddr: 0x10001DB38, symSize: 0x14 }
  - { offsetInCU: 0x16AA79, offset: 0x16AA79, size: 0x8, addend: 0x0, symName: __ZNK5Eigen9EigenBaseINS_9TransposeIKNS_5BlockIKNS_6MatrixIfLin1ELi1ELi0ELi3ELi1EEELi1ELi1ELb0EEEEEE7derivedEv, symObjAddr: 0x19860, symBinAddr: 0x10001DB4C, symSize: 0x14 }
  - { offsetInCU: 0x16AA9F, offset: 0x16AA9F, size: 0x8, addend: 0x0, symName: __ZNK5Eigen9EigenBaseINS_5BlockIKNS_3MapINS_6MatrixIfLi1ELin1ELi1ELi1ELi3EEELi0ENS_6StrideILi0ELi0EEEEELi1ELi1ELb0EEEE7derivedEv, symObjAddr: 0x19874, symBinAddr: 0x10001DB60, symSize: 0x14 }
  - { offsetInCU: 0x16AAC5, offset: 0x16AAC5, size: 0x8, addend: 0x0, symName: __ZN5Eigen13CwiseBinaryOpINS_8internal17scalar_product_opIffEEKNS_9TransposeIKNS_5BlockIKNS_6MatrixIfLin1ELi1ELi0ELi3ELi1EEELi1ELi1ELb0EEEEEKNS5_IKNS_3MapINS6_IfLi1ELin1ELi1ELi1ELi3EEELi0ENS_6StrideILi0ELi0EEEEELi1ELi1ELb0EEEEC1ERSC_RSK_RKS3_, symObjAddr: 0x19888, symBinAddr: 0x10001DB74, symSize: 0x44 }
  - { offsetInCU: 0x16AB19, offset: 0x16AB19, size: 0x8, addend: 0x0, symName: __ZN5Eigen13CwiseBinaryOpINS_8internal17scalar_product_opIffEEKNS_9TransposeIKNS_5BlockIKNS_6MatrixIfLin1ELi1ELi0ELi3ELi1EEELi1ELi1ELb0EEEEEKNS5_IKNS_3MapINS6_IfLi1ELin1ELi1ELi1ELi3EEELi0ENS_6StrideILi0ELi0EEEEELi1ELi1ELb0EEEEC2ERSC_RSK_RKS3_, symObjAddr: 0x198CC, symBinAddr: 0x10001DBB8, symSize: 0xFC }
  - { offsetInCU: 0x16AB72, offset: 0x16AB72, size: 0x8, addend: 0x0, symName: __ZN5Eigen17CwiseBinaryOpImplINS_8internal17scalar_product_opIffEEKNS_9TransposeIKNS_5BlockIKNS_6MatrixIfLin1ELi1ELi0ELi3ELi1EEELi1ELi1ELb0EEEEEKNS5_IKNS_3MapINS6_IfLi1ELin1ELi1ELi1ELi3EEELi0ENS_6StrideILi0ELi0EEEEELi1ELi1ELb0EEENS_5DenseEEC2Ev, symObjAddr: 0x199C8, symBinAddr: 0x10001DCB4, symSize: 0x2C }
  - { offsetInCU: 0x16AB9E, offset: 0x16AB9E, size: 0x8, addend: 0x0, symName: __ZN5Eigen5BlockIKNS_3MapINS_6MatrixIfLi1ELin1ELi1ELi1ELi3EEELi0ENS_6StrideILi0ELi0EEEEELi1ELi1ELb0EEC1ERKS8_, symObjAddr: 0x199F4, symBinAddr: 0x10001DCE0, symSize: 0x34 }
  - { offsetInCU: 0x16ABD3, offset: 0x16ABD3, size: 0x8, addend: 0x0, symName: __ZNK5Eigen9TransposeIKNS_5BlockIKNS_6MatrixIfLin1ELi1ELi0ELi3ELi1EEELi1ELi1ELb0EEEE4rowsEv, symObjAddr: 0x19A28, symBinAddr: 0x10001DD14, symSize: 0x24 }
  - { offsetInCU: 0x16ABF9, offset: 0x16ABF9, size: 0x8, addend: 0x0, symName: __ZNK5Eigen7MapBaseINS_5BlockIKNS_3MapINS_6MatrixIfLi1ELin1ELi1ELi1ELi3EEELi0ENS_6StrideILi0ELi0EEEEELi1ELi1ELb0EEELi0EE4rowsEv, symObjAddr: 0x19A4C, symBinAddr: 0x10001DD38, symSize: 0x20 }
  - { offsetInCU: 0x16AC1F, offset: 0x16AC1F, size: 0x8, addend: 0x0, symName: __ZNK5Eigen9TransposeIKNS_5BlockIKNS_6MatrixIfLin1ELi1ELi0ELi3ELi1EEELi1ELi1ELb0EEEE4colsEv, symObjAddr: 0x19A6C, symBinAddr: 0x10001DD58, symSize: 0x24 }
  - { offsetInCU: 0x16AC45, offset: 0x16AC45, size: 0x8, addend: 0x0, symName: __ZNK5Eigen7MapBaseINS_5BlockIKNS_3MapINS_6MatrixIfLi1ELin1ELi1ELi1ELi3EEELi0ENS_6StrideILi0ELi0EEEEELi1ELi1ELb0EEELi0EE4colsEv, symObjAddr: 0x19A90, symBinAddr: 0x10001DD7C, symSize: 0x20 }
  - { offsetInCU: 0x16AC6B, offset: 0x16AC6B, size: 0x8, addend: 0x0, symName: __ZN5Eigen10MatrixBaseINS_13CwiseBinaryOpINS_8internal17scalar_product_opIffEEKNS_9TransposeIKNS_5BlockIKNS_6MatrixIfLin1ELi1ELi0ELi3ELi1EEELi1ELi1ELb0EEEEEKNS6_IKNS_3MapINS7_IfLi1ELin1ELi1ELi1ELi3EEELi0ENS_6StrideILi0ELi0EEEEELi1ELi1ELb0EEEEEEC2Ev, symObjAddr: 0x19AB0, symBinAddr: 0x10001DD9C, symSize: 0x2C }
  - { offsetInCU: 0x16AC95, offset: 0x16AC95, size: 0x8, addend: 0x0, symName: __ZN5Eigen9DenseBaseINS_13CwiseBinaryOpINS_8internal17scalar_product_opIffEEKNS_9TransposeIKNS_5BlockIKNS_6MatrixIfLin1ELi1ELi0ELi3ELi1EEELi1ELi1ELb0EEEEEKNS6_IKNS_3MapINS7_IfLi1ELin1ELi1ELi1ELi3EEELi0ENS_6StrideILi0ELi0EEEEELi1ELi1ELb0EEEEEEC2Ev, symObjAddr: 0x19ADC, symBinAddr: 0x10001DDC8, symSize: 0x14 }
  - { offsetInCU: 0x16ACBF, offset: 0x16ACBF, size: 0x8, addend: 0x0, symName: __ZN5Eigen5BlockIKNS_3MapINS_6MatrixIfLi1ELin1ELi1ELi1ELi3EEELi0ENS_6StrideILi0ELi0EEEEELi1ELi1ELb0EEC2ERKS8_, symObjAddr: 0x19AF0, symBinAddr: 0x10001DDDC, symSize: 0x34 }
  - { offsetInCU: 0x16ACF4, offset: 0x16ACF4, size: 0x8, addend: 0x0, symName: __ZN5Eigen9BlockImplIKNS_3MapINS_6MatrixIfLi1ELin1ELi1ELi1ELi3EEELi0ENS_6StrideILi0ELi0EEEEELi1ELi1ELb0ENS_5DenseEEC2ERKS9_, symObjAddr: 0x19B24, symBinAddr: 0x10001DE10, symSize: 0x34 }
  - { offsetInCU: 0x16AD29, offset: 0x16AD29, size: 0x8, addend: 0x0, symName: __ZN5Eigen8internal15BlockImpl_denseIKNS_3MapINS_6MatrixIfLi1ELin1ELi1ELi1ELi3EEELi0ENS_6StrideILi0ELi0EEEEELi1ELi1ELb0ELb1EEC2ERKS9_, symObjAddr: 0x19B58, symBinAddr: 0x10001DE44, symSize: 0x5C }
  - { offsetInCU: 0x16AD5E, offset: 0x16AD5E, size: 0x8, addend: 0x0, symName: __ZNK5Eigen7MapBaseINS_5BlockIKNS_6MatrixIfLin1ELi1ELi0ELi3ELi1EEELi1ELi1ELb0EEELi0EE4colsEv, symObjAddr: 0x19BB4, symBinAddr: 0x10001DEA0, symSize: 0x20 }
  - { offsetInCU: 0x16AD84, offset: 0x16AD84, size: 0x8, addend: 0x0, symName: __ZNK5Eigen7MapBaseINS_5BlockIKNS_6MatrixIfLin1ELi1ELi0ELi3ELi1EEELi1ELi1ELb0EEELi0EE4rowsEv, symObjAddr: 0x19BD4, symBinAddr: 0x10001DEC0, symSize: 0x20 }
  - { offsetInCU: 0x16ADAA, offset: 0x16ADAA, size: 0x8, addend: 0x0, symName: __ZN5Eigen5BlockIKNS_3MapINS_6MatrixIfLi1ELin1ELi1ELi1ELi3EEELi0ENS_6StrideILi0ELi0EEEEELi1ELi1ELb0EEC1ERS7_l, symObjAddr: 0x19BF4, symBinAddr: 0x10001DEE0, symSize: 0x3C }
  - { offsetInCU: 0x16ADF0, offset: 0x16ADF0, size: 0x8, addend: 0x0, symName: __ZN5Eigen5BlockIKNS_3MapINS_6MatrixIfLi1ELin1ELi1ELi1ELi3EEELi0ENS_6StrideILi0ELi0EEEEELi1ELi1ELb0EEC2ERS7_l, symObjAddr: 0x19C30, symBinAddr: 0x10001DF1C, symSize: 0xAC }
  - { offsetInCU: 0x16AE36, offset: 0x16AE36, size: 0x8, addend: 0x0, symName: __ZN5Eigen9BlockImplIKNS_3MapINS_6MatrixIfLi1ELin1ELi1ELi1ELi3EEELi0ENS_6StrideILi0ELi0EEEEELi1ELi1ELb0ENS_5DenseEEC2ERS7_l, symObjAddr: 0x19CDC, symBinAddr: 0x10001DFC8, symSize: 0x3C }
  - { offsetInCU: 0x16AE7C, offset: 0x16AE7C, size: 0x8, addend: 0x0, symName: __ZN5Eigen8internal15BlockImpl_denseIKNS_3MapINS_6MatrixIfLi1ELin1ELi1ELi1ELi3EEELi0ENS_6StrideILi0ELi0EEEEELi1ELi1ELb0ELb1EEC2ERS8_l, symObjAddr: 0x19D18, symBinAddr: 0x10001E004, symSize: 0xA8 }
  - { offsetInCU: 0x16AEC4, offset: 0x16AEC4, size: 0x8, addend: 0x0, symName: __ZN5Eigen7MapBaseINS_5BlockIKNS_3MapINS_6MatrixIfLi1ELin1ELi1ELi1ELi3EEELi0ENS_6StrideILi0ELi0EEEEELi1ELi1ELb0EEELi0EEC2EPKfll, symObjAddr: 0x19DC0, symBinAddr: 0x10001E0AC, symSize: 0x13C }
  - { offsetInCU: 0x16AF18, offset: 0x16AF18, size: 0x8, addend: 0x0, symName: __ZN5Eigen8internal15BlockImpl_denseIKNS_3MapINS_6MatrixIfLi1ELin1ELi1ELi1ELi3EEELi0ENS_6StrideILi0ELi0EEEEELi1ELi1ELb0ELb1EE4initEv, symObjAddr: 0x19EFC, symBinAddr: 0x10001E1E8, symSize: 0x34 }
  - { offsetInCU: 0x16AF3E, offset: 0x16AF3E, size: 0x8, addend: 0x0, symName: __ZN5Eigen10MatrixBaseINS_5BlockIKNS_3MapINS_6MatrixIfLi1ELin1ELi1ELi1ELi3EEELi0ENS_6StrideILi0ELi0EEEEELi1ELi1ELb0EEEEC2Ev, symObjAddr: 0x19F30, symBinAddr: 0x10001E21C, symSize: 0x2C }
  - { offsetInCU: 0x16AF68, offset: 0x16AF68, size: 0x8, addend: 0x0, symName: __ZNK5Eigen7MapBaseINS_5BlockIKNS_3MapINS_6MatrixIfLi1ELin1ELi1ELi1ELi3EEELi0ENS_6StrideILi0ELi0EEEEELi1ELi1ELb0EEELi0EE11checkSanityIS9_EEvNS_8internal9enable_ifIXeqsr8internal6traitsIT_EE9AlignmentLi0EEPvE4typeE, symObjAddr: 0x19F5C, symBinAddr: 0x10001E248, symSize: 0x14 }
